
vmm/guest/obj/net/ns:     file format elf64-x86-64


Disassembly of section .text:

0000000000800020 <_start>:
// starts us running when we are initially loaded into a new environment.
.text
.globl _start
_start:
	// See if we were started with arguments on the stack
	movabs $USTACKTOP, %rax
  800020:	48 b8 00 e0 7f ef 00 	movabs $0xef7fe000,%rax
  800027:	00 00 00 
	cmpq %rax,%rsp
  80002a:	48 39 c4             	cmp    %rax,%rsp
	jne args_exist
  80002d:	75 04                	jne    800033 <args_exist>

	// If not, push dummy argc/argv arguments.
	// This happens when we are loaded by the kernel,
	// because the kernel does not know about passing arguments.
	pushq $0
  80002f:	6a 00                	pushq  $0x0
	pushq $0
  800031:	6a 00                	pushq  $0x0

0000000000800033 <args_exist>:

args_exist:
	movq 8(%rsp), %rsi
  800033:	48 8b 74 24 08       	mov    0x8(%rsp),%rsi
	movq (%rsp), %rdi
  800038:	48 8b 3c 24          	mov    (%rsp),%rdi
	call libmain
  80003c:	e8 02 10 00 00       	callq  801043 <libmain>
1:	jmp 1b
  800041:	eb fe                	jmp    800041 <args_exist+0xe>

0000000000800043 <next_i>:
  800043:	55                   	push   %rbp
  800044:	48 89 e5             	mov    %rsp,%rbp
  800047:	48 83 ec 04          	sub    $0x4,%rsp
  80004b:	89 7d fc             	mov    %edi,-0x4(%rbp)
  80004e:	8b 45 fc             	mov    -0x4(%rbp),%eax
  800051:	8d 48 01             	lea    0x1(%rax),%ecx
  800054:	ba 67 66 66 66       	mov    $0x66666667,%edx
  800059:	89 c8                	mov    %ecx,%eax
  80005b:	f7 ea                	imul   %edx
  80005d:	c1 fa 03             	sar    $0x3,%edx
  800060:	89 c8                	mov    %ecx,%eax
  800062:	c1 f8 1f             	sar    $0x1f,%eax
  800065:	29 c2                	sub    %eax,%edx
  800067:	89 d0                	mov    %edx,%eax
  800069:	c1 e0 02             	shl    $0x2,%eax
  80006c:	01 d0                	add    %edx,%eax
  80006e:	c1 e0 02             	shl    $0x2,%eax
  800071:	29 c1                	sub    %eax,%ecx
  800073:	89 ca                	mov    %ecx,%edx
  800075:	89 d0                	mov    %edx,%eax
  800077:	c9                   	leaveq 
  800078:	c3                   	retq   

0000000000800079 <prev_i>:
  800079:	55                   	push   %rbp
  80007a:	48 89 e5             	mov    %rsp,%rbp
  80007d:	48 83 ec 04          	sub    $0x4,%rsp
  800081:	89 7d fc             	mov    %edi,-0x4(%rbp)
  800084:	83 7d fc 00          	cmpl   $0x0,-0x4(%rbp)
  800088:	74 08                	je     800092 <prev_i+0x19>
  80008a:	8b 45 fc             	mov    -0x4(%rbp),%eax
  80008d:	83 e8 01             	sub    $0x1,%eax
  800090:	eb 05                	jmp    800097 <prev_i+0x1e>
  800092:	b8 13 00 00 00       	mov    $0x13,%eax
  800097:	c9                   	leaveq 
  800098:	c3                   	retq   

0000000000800099 <get_buffer>:
  800099:	55                   	push   %rbp
  80009a:	48 89 e5             	mov    %rsp,%rbp
  80009d:	48 83 ec 10          	sub    $0x10,%rsp
  8000a1:	48 c7 45 f8 00 00 00 	movq   $0x0,-0x8(%rbp)
  8000a8:	00 
  8000a9:	eb 22                	jmp    8000cd <get_buffer+0x34>
  8000ab:	48 ba 70 90 82 00 00 	movabs $0x829070,%rdx
  8000b2:	00 00 00 
  8000b5:	48 8b 45 f8          	mov    -0x8(%rbp),%rax
  8000b9:	48 01 d0             	add    %rdx,%rax
  8000bc:	0f b6 00             	movzbl (%rax),%eax
  8000bf:	83 f0 01             	xor    $0x1,%eax
  8000c2:	84 c0                	test   %al,%al
  8000c4:	74 02                	je     8000c8 <get_buffer+0x2f>
  8000c6:	eb 0c                	jmp    8000d4 <get_buffer+0x3b>
  8000c8:	48 83 45 f8 01       	addq   $0x1,-0x8(%rbp)
  8000cd:	48 83 7d f8 13       	cmpq   $0x13,-0x8(%rbp)
  8000d2:	7e d7                	jle    8000ab <get_buffer+0x12>
  8000d4:	48 83 7d f8 14       	cmpq   $0x14,-0x8(%rbp)
  8000d9:	75 2a                	jne    800105 <get_buffer+0x6c>
  8000db:	48 ba 80 0a 82 00 00 	movabs $0x820a80,%rdx
  8000e2:	00 00 00 
  8000e5:	be 40 00 00 00       	mov    $0x40,%esi
  8000ea:	48 bf 94 0a 82 00 00 	movabs $0x820a94,%rdi
  8000f1:	00 00 00 
  8000f4:	b8 00 00 00 00       	mov    $0x0,%eax
  8000f9:	48 b9 e9 10 80 00 00 	movabs $0x8010e9,%rcx
  800100:	00 00 00 
  800103:	ff d1                	callq  *%rcx
  800105:	48 8b 45 f8          	mov    -0x8(%rbp),%rax
  800109:	48 05 eb ff 00 00    	add    $0xffeb,%rax
  80010f:	48 c1 e0 0c          	shl    $0xc,%rax
  800113:	48 89 45 f0          	mov    %rax,-0x10(%rbp)
  800117:	48 ba 70 90 82 00 00 	movabs $0x829070,%rdx
  80011e:	00 00 00 
  800121:	48 8b 45 f8          	mov    -0x8(%rbp),%rax
  800125:	48 01 d0             	add    %rdx,%rax
  800128:	c6 00 01             	movb   $0x1,(%rax)
  80012b:	48 8b 45 f0          	mov    -0x10(%rbp),%rax
  80012f:	c9                   	leaveq 
  800130:	c3                   	retq   

0000000000800131 <put_buffer>:
  800131:	55                   	push   %rbp
  800132:	48 89 e5             	mov    %rsp,%rbp
  800135:	48 83 ec 18          	sub    $0x18,%rsp
  800139:	48 89 7d e8          	mov    %rdi,-0x18(%rbp)
  80013d:	48 8b 45 e8          	mov    -0x18(%rbp),%rax
  800141:	48 2d 00 b0 fe 0f    	sub    $0xffeb000,%rax
  800147:	48 c1 e8 0c          	shr    $0xc,%rax
  80014b:	48 89 45 f8          	mov    %rax,-0x8(%rbp)
  80014f:	48 ba 70 90 82 00 00 	movabs $0x829070,%rdx
  800156:	00 00 00 
  800159:	48 8b 45 f8          	mov    -0x8(%rbp),%rax
  80015d:	48 01 d0             	add    %rdx,%rax
  800160:	c6 00 00             	movb   $0x0,(%rax)
  800163:	c9                   	leaveq 
  800164:	c3                   	retq   

0000000000800165 <lwip_init>:
  800165:	55                   	push   %rbp
  800166:	48 89 e5             	mov    %rsp,%rbp
  800169:	53                   	push   %rbx
  80016a:	48 83 ec 68          	sub    $0x68,%rsp
  80016e:	48 89 7d b8          	mov    %rdi,-0x48(%rbp)
  800172:	48 89 75 b0          	mov    %rsi,-0x50(%rbp)
  800176:	89 55 ac             	mov    %edx,-0x54(%rbp)
  800179:	89 4d a8             	mov    %ecx,-0x58(%rbp)
  80017c:	44 89 45 a4          	mov    %r8d,-0x5c(%rbp)
  800180:	8b 45 ac             	mov    -0x54(%rbp),%eax
  800183:	89 45 e0             	mov    %eax,-0x20(%rbp)
  800186:	8b 45 a8             	mov    -0x58(%rbp),%eax
  800189:	89 45 d0             	mov    %eax,-0x30(%rbp)
  80018c:	8b 45 a4             	mov    -0x5c(%rbp),%eax
  80018f:	89 45 c0             	mov    %eax,-0x40(%rbp)
  800192:	48 8b 7d b0          	mov    -0x50(%rbp),%rdi
  800196:	48 8d 4d c0          	lea    -0x40(%rbp),%rcx
  80019a:	48 8d 55 d0          	lea    -0x30(%rbp),%rdx
  80019e:	48 8d 75 e0          	lea    -0x20(%rbp),%rsi
  8001a2:	48 8b 45 b8          	mov    -0x48(%rbp),%rax
  8001a6:	48 bb b5 0e 81 00 00 	movabs $0x810eb5,%rbx
  8001ad:	00 00 00 
  8001b0:	48 89 1c 24          	mov    %rbx,(%rsp)
  8001b4:	49 b9 53 99 81 00 00 	movabs $0x819953,%r9
  8001bb:	00 00 00 
  8001be:	49 89 f8             	mov    %rdi,%r8
  8001c1:	48 89 c7             	mov    %rax,%rdi
  8001c4:	48 b8 a9 cf 80 00 00 	movabs $0x80cfa9,%rax
  8001cb:	00 00 00 
  8001ce:	ff d0                	callq  *%rax
  8001d0:	48 85 c0             	test   %rax,%rax
  8001d3:	75 2a                	jne    8001ff <lwip_init+0x9a>
  8001d5:	48 ba a8 0a 82 00 00 	movabs $0x820aa8,%rdx
  8001dc:	00 00 00 
  8001df:	be 5d 00 00 00       	mov    $0x5d,%esi
  8001e4:	48 bf 94 0a 82 00 00 	movabs $0x820a94,%rdi
  8001eb:	00 00 00 
  8001ee:	b8 00 00 00 00       	mov    $0x0,%eax
  8001f3:	48 b9 e9 10 80 00 00 	movabs $0x8010e9,%rcx
  8001fa:	00 00 00 
  8001fd:	ff d1                	callq  *%rcx
  8001ff:	48 8b 45 b8          	mov    -0x48(%rbp),%rax
  800203:	48 89 c7             	mov    %rax,%rdi
  800206:	48 b8 a9 d3 80 00 00 	movabs $0x80d3a9,%rax
  80020d:	00 00 00 
  800210:	ff d0                	callq  *%rax
  800212:	48 8b 45 b8          	mov    -0x48(%rbp),%rax
  800216:	48 89 c7             	mov    %rax,%rdi
  800219:	48 b8 c8 d3 80 00 00 	movabs $0x80d3c8,%rax
  800220:	00 00 00 
  800223:	ff d0                	callq  *%rax
  800225:	48 83 c4 68          	add    $0x68,%rsp
  800229:	5b                   	pop    %rbx
  80022a:	5d                   	pop    %rbp
  80022b:	c3                   	retq   

000000000080022c <net_timer>:
  80022c:	55                   	push   %rbp
  80022d:	48 89 e5             	mov    %rsp,%rbp
  800230:	48 83 ec 20          	sub    $0x20,%rsp
  800234:	48 89 7d e8          	mov    %rdi,-0x18(%rbp)
  800238:	48 8b 45 e8          	mov    -0x18(%rbp),%rax
  80023c:	48 89 45 f8          	mov    %rax,-0x8(%rbp)
  800240:	48 b8 73 2a 80 00 00 	movabs $0x802a73,%rax
  800247:	00 00 00 
  80024a:	ff d0                	callq  *%rax
  80024c:	89 45 f4             	mov    %eax,-0xc(%rbp)
  80024f:	48 b8 c3 8a 81 00 00 	movabs $0x818ac3,%rax
  800256:	00 00 00 
  800259:	ff d0                	callq  *%rax
  80025b:	48 8b 45 f8          	mov    -0x8(%rbp),%rax
  80025f:	48 8b 40 08          	mov    0x8(%rax),%rax
  800263:	ff d0                	callq  *%rax
  800265:	48 b8 c9 8a 81 00 00 	movabs $0x818ac9,%rax
  80026c:	00 00 00 
  80026f:	ff d0                	callq  *%rax
  800271:	48 8b 45 f8          	mov    -0x8(%rbp),%rax
  800275:	8b 10                	mov    (%rax),%edx
  800277:	8b 45 f4             	mov    -0xc(%rbp),%eax
  80027a:	01 d0                	add    %edx,%eax
  80027c:	89 c2                	mov    %eax,%edx
  80027e:	be 00 00 00 00       	mov    $0x0,%esi
  800283:	bf 00 00 00 00       	mov    $0x0,%edi
  800288:	48 b8 3e 8c 81 00 00 	movabs $0x818c3e,%rax
  80028f:	00 00 00 
  800292:	ff d0                	callq  *%rax
  800294:	eb aa                	jmp    800240 <net_timer+0x14>

0000000000800296 <start_timer>:
  800296:	55                   	push   %rbp
  800297:	48 89 e5             	mov    %rsp,%rbp
  80029a:	48 83 ec 30          	sub    $0x30,%rsp
  80029e:	48 89 7d e8          	mov    %rdi,-0x18(%rbp)
  8002a2:	48 89 75 e0          	mov    %rsi,-0x20(%rbp)
  8002a6:	48 89 55 d8          	mov    %rdx,-0x28(%rbp)
  8002aa:	89 4d d4             	mov    %ecx,-0x2c(%rbp)
  8002ad:	8b 55 d4             	mov    -0x2c(%rbp),%edx
  8002b0:	48 8b 45 e8          	mov    -0x18(%rbp),%rax
  8002b4:	89 10                	mov    %edx,(%rax)
  8002b6:	48 8b 45 e8          	mov    -0x18(%rbp),%rax
  8002ba:	48 8b 55 e0          	mov    -0x20(%rbp),%rdx
  8002be:	48 89 50 08          	mov    %rdx,0x8(%rax)
  8002c2:	48 8b 45 e8          	mov    -0x18(%rbp),%rax
  8002c6:	48 8b 55 d8          	mov    -0x28(%rbp),%rdx
  8002ca:	48 89 50 10          	mov    %rdx,0x10(%rax)
  8002ce:	48 8b 55 e8          	mov    -0x18(%rbp),%rdx
  8002d2:	48 8b 45 d8          	mov    -0x28(%rbp),%rax
  8002d6:	48 89 d1             	mov    %rdx,%rcx
  8002d9:	48 ba 2c 02 80 00 00 	movabs $0x80022c,%rdx
  8002e0:	00 00 00 
  8002e3:	48 89 c6             	mov    %rax,%rsi
  8002e6:	bf 00 00 00 00       	mov    $0x0,%edi
  8002eb:	48 b8 b3 8e 81 00 00 	movabs $0x818eb3,%rax
  8002f2:	00 00 00 
  8002f5:	ff d0                	callq  *%rax
  8002f7:	89 45 fc             	mov    %eax,-0x4(%rbp)
  8002fa:	83 7d fc 00          	cmpl   $0x0,-0x4(%rbp)
  8002fe:	79 3f                	jns    80033f <start_timer+0xa9>
  800300:	8b 45 fc             	mov    -0x4(%rbp),%eax
  800303:	89 c7                	mov    %eax,%edi
  800305:	48 b8 45 95 81 00 00 	movabs $0x819545,%rax
  80030c:	00 00 00 
  80030f:	ff d0                	callq  *%rax
  800311:	48 89 c1             	mov    %rax,%rcx
  800314:	48 ba c8 0a 82 00 00 	movabs $0x820ac8,%rdx
  80031b:	00 00 00 
  80031e:	be 7b 00 00 00       	mov    $0x7b,%esi
  800323:	48 bf 94 0a 82 00 00 	movabs $0x820a94,%rdi
  80032a:	00 00 00 
  80032d:	b8 00 00 00 00       	mov    $0x0,%eax
  800332:	49 b8 e9 10 80 00 00 	movabs $0x8010e9,%r8
  800339:	00 00 00 
  80033c:	41 ff d0             	callq  *%r8
  80033f:	c9                   	leaveq 
  800340:	c3                   	retq   

0000000000800341 <tcpip_init_done>:
  800341:	55                   	push   %rbp
  800342:	48 89 e5             	mov    %rsp,%rbp
  800345:	48 83 ec 20          	sub    $0x20,%rsp
  800349:	48 89 7d e8          	mov    %rdi,-0x18(%rbp)
  80034d:	48 8b 45 e8          	mov    -0x18(%rbp),%rax
  800351:	48 89 45 f8          	mov    %rax,-0x8(%rbp)
  800355:	48 8b 45 f8          	mov    -0x8(%rbp),%rax
  800359:	c7 00 01 00 00 00    	movl   $0x1,(%rax)
  80035f:	48 8b 45 f8          	mov    -0x8(%rbp),%rax
  800363:	48 89 c7             	mov    %rax,%rdi
  800366:	48 b8 eb 8b 81 00 00 	movabs $0x818beb,%rax
  80036d:	00 00 00 
  800370:	ff d0                	callq  *%rax
  800372:	c9                   	leaveq 
  800373:	c3                   	retq   

0000000000800374 <serve_init>:
  800374:	55                   	push   %rbp
  800375:	48 89 e5             	mov    %rsp,%rbp
  800378:	48 83 ec 30          	sub    $0x30,%rsp
  80037c:	89 7d ec             	mov    %edi,-0x14(%rbp)
  80037f:	89 75 e8             	mov    %esi,-0x18(%rbp)
  800382:	89 55 e4             	mov    %edx,-0x1c(%rbp)
  800385:	48 b8 c3 8a 81 00 00 	movabs $0x818ac3,%rax
  80038c:	00 00 00 
  80038f:	ff d0                	callq  *%rax
  800391:	c7 45 fc 00 00 00 00 	movl   $0x0,-0x4(%rbp)
  800398:	48 8d 45 fc          	lea    -0x4(%rbp),%rax
  80039c:	48 89 c6             	mov    %rax,%rsi
  80039f:	48 bf 41 03 80 00 00 	movabs $0x800341,%rdi
  8003a6:	00 00 00 
  8003a9:	48 b8 70 8d 80 00 00 	movabs $0x808d70,%rax
  8003b0:	00 00 00 
  8003b3:	ff d0                	callq  *%rax
  8003b5:	48 b8 c9 8a 81 00 00 	movabs $0x818ac9,%rax
  8003bc:	00 00 00 
  8003bf:	ff d0                	callq  *%rax
  8003c1:	48 8d 45 fc          	lea    -0x4(%rbp),%rax
  8003c5:	ba ff ff ff ff       	mov    $0xffffffff,%edx
  8003ca:	be 00 00 00 00       	mov    $0x0,%esi
  8003cf:	48 89 c7             	mov    %rax,%rdi
  8003d2:	48 b8 3e 8c 81 00 00 	movabs $0x818c3e,%rax
  8003d9:	00 00 00 
  8003dc:	ff d0                	callq  *%rax
  8003de:	48 b8 c3 8a 81 00 00 	movabs $0x818ac3,%rax
  8003e5:	00 00 00 
  8003e8:	ff d0                	callq  *%rax
  8003ea:	8b 4d e4             	mov    -0x1c(%rbp),%ecx
  8003ed:	8b 55 e8             	mov    -0x18(%rbp),%edx
  8003f0:	8b 45 ec             	mov    -0x14(%rbp),%eax
  8003f3:	41 89 c8             	mov    %ecx,%r8d
  8003f6:	89 d1                	mov    %edx,%ecx
  8003f8:	89 c2                	mov    %eax,%edx
  8003fa:	48 be 60 90 82 00 00 	movabs $0x829060,%rsi
  800401:	00 00 00 
  800404:	48 bf 20 75 b5 00 00 	movabs $0xb57520,%rdi
  80040b:	00 00 00 
  80040e:	48 b8 65 01 80 00 00 	movabs $0x800165,%rax
  800415:	00 00 00 
  800418:	ff d0                	callq  *%rax
  80041a:	b9 88 13 00 00       	mov    $0x1388,%ecx
  80041f:	48 ba e7 0a 82 00 00 	movabs $0x820ae7,%rdx
  800426:	00 00 00 
  800429:	48 be b2 5a 81 00 00 	movabs $0x815ab2,%rsi
  800430:	00 00 00 
  800433:	48 bf 00 90 82 00 00 	movabs $0x829000,%rdi
  80043a:	00 00 00 
  80043d:	48 b8 96 02 80 00 00 	movabs $0x800296,%rax
  800444:	00 00 00 
  800447:	ff d0                	callq  *%rax
  800449:	b9 fa 00 00 00       	mov    $0xfa,%ecx
  80044e:	48 ba f1 0a 82 00 00 	movabs $0x820af1,%rdx
  800455:	00 00 00 
  800458:	48 be 40 03 81 00 00 	movabs $0x810340,%rsi
  80045f:	00 00 00 
  800462:	48 bf 20 90 82 00 00 	movabs $0x829020,%rdi
  800469:	00 00 00 
  80046c:	48 b8 96 02 80 00 00 	movabs $0x800296,%rax
  800473:	00 00 00 
  800476:	ff d0                	callq  *%rax
  800478:	b9 f4 01 00 00       	mov    $0x1f4,%ecx
  80047d:	48 ba fd 0a 82 00 00 	movabs $0x820afd,%rdx
  800484:	00 00 00 
  800487:	48 be 04 fb 80 00 00 	movabs $0x80fb04,%rsi
  80048e:	00 00 00 
  800491:	48 bf 40 90 82 00 00 	movabs $0x829040,%rdi
  800498:	00 00 00 
  80049b:	48 b8 96 02 80 00 00 	movabs $0x800296,%rax
  8004a2:	00 00 00 
  8004a5:	ff d0                	callq  *%rax
  8004a7:	8b 45 ec             	mov    -0x14(%rbp),%eax
  8004aa:	89 45 f0             	mov    %eax,-0x10(%rbp)
  8004ad:	8b 45 f0             	mov    -0x10(%rbp),%eax
  8004b0:	89 c7                	mov    %eax,%edi
  8004b2:	48 b8 02 2f 81 00 00 	movabs $0x812f02,%rax
  8004b9:	00 00 00 
  8004bc:	ff d0                	callq  *%rax
  8004be:	48 ba 20 75 b5 00 00 	movabs $0xb57520,%rdx
  8004c5:	00 00 00 
  8004c8:	0f b6 52 46          	movzbl 0x46(%rdx),%edx
  8004cc:	0f b6 fa             	movzbl %dl,%edi
  8004cf:	48 ba 20 75 b5 00 00 	movabs $0xb57520,%rdx
  8004d6:	00 00 00 
  8004d9:	0f b6 52 45          	movzbl 0x45(%rdx),%edx
  8004dd:	44 0f b6 ca          	movzbl %dl,%r9d
  8004e1:	48 ba 20 75 b5 00 00 	movabs $0xb57520,%rdx
  8004e8:	00 00 00 
  8004eb:	0f b6 52 44          	movzbl 0x44(%rdx),%edx
  8004ef:	44 0f b6 c2          	movzbl %dl,%r8d
  8004f3:	48 ba 20 75 b5 00 00 	movabs $0xb57520,%rdx
  8004fa:	00 00 00 
  8004fd:	0f b6 52 43          	movzbl 0x43(%rdx),%edx
  800501:	0f b6 ca             	movzbl %dl,%ecx
  800504:	48 ba 20 75 b5 00 00 	movabs $0xb57520,%rdx
  80050b:	00 00 00 
  80050e:	0f b6 52 42          	movzbl 0x42(%rdx),%edx
  800512:	0f b6 d2             	movzbl %dl,%edx
  800515:	48 be 20 75 b5 00 00 	movabs $0xb57520,%rsi
  80051c:	00 00 00 
  80051f:	0f b6 76 41          	movzbl 0x41(%rsi),%esi
  800523:	40 0f b6 f6          	movzbl %sil,%esi
  800527:	48 89 44 24 08       	mov    %rax,0x8(%rsp)
  80052c:	89 3c 24             	mov    %edi,(%rsp)
  80052f:	48 bf 10 0b 82 00 00 	movabs $0x820b10,%rdi
  800536:	00 00 00 
  800539:	b8 00 00 00 00       	mov    $0x0,%eax
  80053e:	49 ba 22 13 80 00 00 	movabs $0x801322,%r10
  800545:	00 00 00 
  800548:	41 ff d2             	callq  *%r10
  80054b:	48 b8 c9 8a 81 00 00 	movabs $0x818ac9,%rax
  800552:	00 00 00 
  800555:	ff d0                	callq  *%rax
  800557:	48 bf 49 0b 82 00 00 	movabs $0x820b49,%rdi
  80055e:	00 00 00 
  800561:	b8 00 00 00 00       	mov    $0x0,%eax
  800566:	48 ba 22 13 80 00 00 	movabs $0x801322,%rdx
  80056d:	00 00 00 
  800570:	ff d2                	callq  *%rdx
  800572:	c9                   	leaveq 
  800573:	c3                   	retq   

0000000000800574 <process_timer>:
  800574:	55                   	push   %rbp
  800575:	48 89 e5             	mov    %rsp,%rbp
  800578:	48 83 ec 20          	sub    $0x20,%rsp
  80057c:	89 7d ec             	mov    %edi,-0x14(%rbp)
  80057f:	48 b8 58 90 82 00 00 	movabs $0x829058,%rax
  800586:	00 00 00 
  800589:	8b 00                	mov    (%rax),%eax
  80058b:	39 45 ec             	cmp    %eax,-0x14(%rbp)
  80058e:	74 22                	je     8005b2 <process_timer+0x3e>
  800590:	8b 45 ec             	mov    -0x14(%rbp),%eax
  800593:	89 c6                	mov    %eax,%esi
  800595:	48 bf 68 0b 82 00 00 	movabs $0x820b68,%rdi
  80059c:	00 00 00 
  80059f:	b8 00 00 00 00       	mov    $0x0,%eax
  8005a4:	48 ba 22 13 80 00 00 	movabs $0x801322,%rdx
  8005ab:	00 00 00 
  8005ae:	ff d2                	callq  *%rdx
  8005b0:	eb 5a                	jmp    80060c <process_timer+0x98>
  8005b2:	48 b8 73 2a 80 00 00 	movabs $0x802a73,%rax
  8005b9:	00 00 00 
  8005bc:	ff d0                	callq  *%rax
  8005be:	89 45 fc             	mov    %eax,-0x4(%rbp)
  8005c1:	48 b8 33 91 81 00 00 	movabs $0x819133,%rax
  8005c8:	00 00 00 
  8005cb:	ff d0                	callq  *%rax
  8005cd:	48 b8 73 2a 80 00 00 	movabs $0x802a73,%rax
  8005d4:	00 00 00 
  8005d7:	ff d0                	callq  *%rax
  8005d9:	89 45 f8             	mov    %eax,-0x8(%rbp)
  8005dc:	8b 45 f8             	mov    -0x8(%rbp),%eax
  8005df:	8b 55 fc             	mov    -0x4(%rbp),%edx
  8005e2:	29 c2                	sub    %eax,%edx
  8005e4:	89 d0                	mov    %edx,%eax
  8005e6:	05 fa 00 00 00       	add    $0xfa,%eax
  8005eb:	89 45 f4             	mov    %eax,-0xc(%rbp)
  8005ee:	8b 75 f4             	mov    -0xc(%rbp),%esi
  8005f1:	8b 45 ec             	mov    -0x14(%rbp),%eax
  8005f4:	b9 00 00 00 00       	mov    $0x0,%ecx
  8005f9:	ba 00 00 00 00       	mov    $0x0,%edx
  8005fe:	89 c7                	mov    %eax,%edi
  800600:	48 b8 bc 32 80 00 00 	movabs $0x8032bc,%rax
  800607:	00 00 00 
  80060a:	ff d0                	callq  *%rax
  80060c:	c9                   	leaveq 
  80060d:	c3                   	retq   

000000000080060e <serve_thread>:
  80060e:	55                   	push   %rbp
  80060f:	48 89 e5             	mov    %rsp,%rbp
  800612:	48 81 ec b0 00 00 00 	sub    $0xb0,%rsp
  800619:	48 89 bd 58 ff ff ff 	mov    %rdi,-0xa8(%rbp)
  800620:	48 8b 85 58 ff ff ff 	mov    -0xa8(%rbp),%rax
  800627:	48 89 45 f0          	mov    %rax,-0x10(%rbp)
  80062b:	48 8b 45 f0          	mov    -0x10(%rbp),%rax
  80062f:	48 8b 40 08          	mov    0x8(%rax),%rax
  800633:	48 89 45 e8          	mov    %rax,-0x18(%rbp)
  800637:	48 8b 45 f0          	mov    -0x10(%rbp),%rax
  80063b:	8b 00                	mov    (%rax),%eax
  80063d:	83 f8 0a             	cmp    $0xa,%eax
  800640:	0f 87 d8 01 00 00    	ja     80081e <serve_thread+0x210>
  800646:	89 c0                	mov    %eax,%eax
  800648:	48 8d 14 c5 00 00 00 	lea    0x0(,%rax,8),%rdx
  80064f:	00 
  800650:	48 b8 e0 0b 82 00 00 	movabs $0x820be0,%rax
  800657:	00 00 00 
  80065a:	48 01 d0             	add    %rdx,%rax
  80065d:	48 8b 00             	mov    (%rax),%rax
  800660:	ff e0                	jmpq   *%rax
  800662:	48 8b 45 e8          	mov    -0x18(%rbp),%rax
  800666:	8b 00                	mov    (%rax),%eax
  800668:	48 8d 55 d0          	lea    -0x30(%rbp),%rdx
  80066c:	48 83 c2 10          	add    $0x10,%rdx
  800670:	48 8d 4d d0          	lea    -0x30(%rbp),%rcx
  800674:	48 89 ce             	mov    %rcx,%rsi
  800677:	89 c7                	mov    %eax,%edi
  800679:	48 b8 86 5f 80 00 00 	movabs $0x805f86,%rax
  800680:	00 00 00 
  800683:	ff d0                	callq  *%rax
  800685:	89 45 fc             	mov    %eax,-0x4(%rbp)
  800688:	48 8d 4d d0          	lea    -0x30(%rbp),%rcx
  80068c:	48 8b 45 e8          	mov    -0x18(%rbp),%rax
  800690:	ba 14 00 00 00       	mov    $0x14,%edx
  800695:	48 89 ce             	mov    %rcx,%rsi
  800698:	48 89 c7             	mov    %rax,%rdi
  80069b:	48 b8 fb 21 80 00 00 	movabs $0x8021fb,%rax
  8006a2:	00 00 00 
  8006a5:	ff d0                	callq  *%rax
  8006a7:	90                   	nop
  8006a8:	e9 a5 01 00 00       	jmpq   800852 <serve_thread+0x244>
  8006ad:	48 8b 45 e8          	mov    -0x18(%rbp),%rax
  8006b1:	8b 50 14             	mov    0x14(%rax),%edx
  8006b4:	48 8b 45 e8          	mov    -0x18(%rbp),%rax
  8006b8:	48 8d 48 04          	lea    0x4(%rax),%rcx
  8006bc:	48 8b 45 e8          	mov    -0x18(%rbp),%rax
  8006c0:	8b 00                	mov    (%rax),%eax
  8006c2:	48 89 ce             	mov    %rcx,%rsi
  8006c5:	89 c7                	mov    %eax,%edi
  8006c7:	48 b8 b9 62 80 00 00 	movabs $0x8062b9,%rax
  8006ce:	00 00 00 
  8006d1:	ff d0                	callq  *%rax
  8006d3:	89 45 fc             	mov    %eax,-0x4(%rbp)
  8006d6:	e9 77 01 00 00       	jmpq   800852 <serve_thread+0x244>
  8006db:	48 8b 45 e8          	mov    -0x18(%rbp),%rax
  8006df:	8b 50 04             	mov    0x4(%rax),%edx
  8006e2:	48 8b 45 e8          	mov    -0x18(%rbp),%rax
  8006e6:	8b 00                	mov    (%rax),%eax
  8006e8:	89 d6                	mov    %edx,%esi
  8006ea:	89 c7                	mov    %eax,%edi
  8006ec:	48 b8 1d 7a 80 00 00 	movabs $0x807a1d,%rax
  8006f3:	00 00 00 
  8006f6:	ff d0                	callq  *%rax
  8006f8:	89 45 fc             	mov    %eax,-0x4(%rbp)
  8006fb:	e9 52 01 00 00       	jmpq   800852 <serve_thread+0x244>
  800700:	48 8b 45 e8          	mov    -0x18(%rbp),%rax
  800704:	8b 00                	mov    (%rax),%eax
  800706:	89 c7                	mov    %eax,%edi
  800708:	48 b8 ee 63 80 00 00 	movabs $0x8063ee,%rax
  80070f:	00 00 00 
  800712:	ff d0                	callq  *%rax
  800714:	89 45 fc             	mov    %eax,-0x4(%rbp)
  800717:	e9 36 01 00 00       	jmpq   800852 <serve_thread+0x244>
  80071c:	48 8b 45 e8          	mov    -0x18(%rbp),%rax
  800720:	8b 50 14             	mov    0x14(%rax),%edx
  800723:	48 8b 45 e8          	mov    -0x18(%rbp),%rax
  800727:	48 8d 48 04          	lea    0x4(%rax),%rcx
  80072b:	48 8b 45 e8          	mov    -0x18(%rbp),%rax
  80072f:	8b 00                	mov    (%rax),%eax
  800731:	48 89 ce             	mov    %rcx,%rsi
  800734:	89 c7                	mov    %eax,%edi
  800736:	48 b8 d3 64 80 00 00 	movabs $0x8064d3,%rax
  80073d:	00 00 00 
  800740:	ff d0                	callq  *%rax
  800742:	89 45 fc             	mov    %eax,-0x4(%rbp)
  800745:	e9 08 01 00 00       	jmpq   800852 <serve_thread+0x244>
  80074a:	48 8b 45 e8          	mov    -0x18(%rbp),%rax
  80074e:	8b 50 04             	mov    0x4(%rax),%edx
  800751:	48 8b 45 e8          	mov    -0x18(%rbp),%rax
  800755:	8b 00                	mov    (%rax),%eax
  800757:	89 d6                	mov    %edx,%esi
  800759:	89 c7                	mov    %eax,%edi
  80075b:	48 b8 2f 66 80 00 00 	movabs $0x80662f,%rax
  800762:	00 00 00 
  800765:	ff d0                	callq  *%rax
  800767:	89 45 fc             	mov    %eax,-0x4(%rbp)
  80076a:	e9 e3 00 00 00       	jmpq   800852 <serve_thread+0x244>
  80076f:	48 8b 45 e8          	mov    -0x18(%rbp),%rax
  800773:	8b 48 08             	mov    0x8(%rax),%ecx
  800776:	48 8b 45 e8          	mov    -0x18(%rbp),%rax
  80077a:	8b 50 04             	mov    0x4(%rax),%edx
  80077d:	48 8b 75 e8          	mov    -0x18(%rbp),%rsi
  800781:	48 8b 45 e8          	mov    -0x18(%rbp),%rax
  800785:	8b 00                	mov    (%rax),%eax
  800787:	89 c7                	mov    %eax,%edi
  800789:	48 b8 2e 6b 80 00 00 	movabs $0x806b2e,%rax
  800790:	00 00 00 
  800793:	ff d0                	callq  *%rax
  800795:	89 45 fc             	mov    %eax,-0x4(%rbp)
  800798:	e9 b5 00 00 00       	jmpq   800852 <serve_thread+0x244>
  80079d:	48 8b 45 e8          	mov    -0x18(%rbp),%rax
  8007a1:	8b 48 08             	mov    0x8(%rax),%ecx
  8007a4:	48 8b 45 e8          	mov    -0x18(%rbp),%rax
  8007a8:	8b 50 04             	mov    0x4(%rax),%edx
  8007ab:	48 8b 45 e8          	mov    -0x18(%rbp),%rax
  8007af:	48 8d 70 0c          	lea    0xc(%rax),%rsi
  8007b3:	48 8b 45 e8          	mov    -0x18(%rbp),%rax
  8007b7:	8b 00                	mov    (%rax),%eax
  8007b9:	89 c7                	mov    %eax,%edi
  8007bb:	48 b8 6c 6b 80 00 00 	movabs $0x806b6c,%rax
  8007c2:	00 00 00 
  8007c5:	ff d0                	callq  *%rax
  8007c7:	89 45 fc             	mov    %eax,-0x4(%rbp)
  8007ca:	e9 83 00 00 00       	jmpq   800852 <serve_thread+0x244>
  8007cf:	48 8b 45 e8          	mov    -0x18(%rbp),%rax
  8007d3:	8b 50 08             	mov    0x8(%rax),%edx
  8007d6:	48 8b 45 e8          	mov    -0x18(%rbp),%rax
  8007da:	8b 48 04             	mov    0x4(%rax),%ecx
  8007dd:	48 8b 45 e8          	mov    -0x18(%rbp),%rax
  8007e1:	8b 00                	mov    (%rax),%eax
  8007e3:	89 ce                	mov    %ecx,%esi
  8007e5:	89 c7                	mov    %eax,%edi
  8007e7:	48 b8 89 6e 80 00 00 	movabs $0x806e89,%rax
  8007ee:	00 00 00 
  8007f1:	ff d0                	callq  *%rax
  8007f3:	89 45 fc             	mov    %eax,-0x4(%rbp)
  8007f6:	eb 5a                	jmp    800852 <serve_thread+0x244>
  8007f8:	48 8b 45 e8          	mov    -0x18(%rbp),%rax
  8007fc:	48 89 c6             	mov    %rax,%rsi
  8007ff:	48 bf 20 75 b5 00 00 	movabs $0xb57520,%rdi
  800806:	00 00 00 
  800809:	48 b8 58 98 81 00 00 	movabs $0x819858,%rax
  800810:	00 00 00 
  800813:	ff d0                	callq  *%rax
  800815:	c7 45 fc 00 00 00 00 	movl   $0x0,-0x4(%rbp)
  80081c:	eb 34                	jmp    800852 <serve_thread+0x244>
  80081e:	48 8b 45 f0          	mov    -0x10(%rbp),%rax
  800822:	48 8b 50 08          	mov    0x8(%rax),%rdx
  800826:	48 8b 45 f0          	mov    -0x10(%rbp),%rax
  80082a:	8b 40 04             	mov    0x4(%rax),%eax
  80082d:	89 c6                	mov    %eax,%esi
  80082f:	48 bf a8 0b 82 00 00 	movabs $0x820ba8,%rdi
  800836:	00 00 00 
  800839:	b8 00 00 00 00       	mov    $0x0,%eax
  80083e:	48 b9 22 13 80 00 00 	movabs $0x801322,%rcx
  800845:	00 00 00 
  800848:	ff d1                	callq  *%rcx
  80084a:	c7 45 fc fd ff ff ff 	movl   $0xfffffffd,-0x4(%rbp)
  800851:	90                   	nop
  800852:	83 7d fc ff          	cmpl   $0xffffffff,-0x4(%rbp)
  800856:	75 49                	jne    8008a1 <serve_thread+0x293>
  800858:	48 8b 45 f0          	mov    -0x10(%rbp),%rax
  80085c:	8b 10                	mov    (%rax),%edx
  80085e:	48 8d 85 60 ff ff ff 	lea    -0xa0(%rbp),%rax
  800865:	89 d1                	mov    %edx,%ecx
  800867:	48 ba cb 0b 82 00 00 	movabs $0x820bcb,%rdx
  80086e:	00 00 00 
  800871:	be 64 00 00 00       	mov    $0x64,%esi
  800876:	48 89 c7             	mov    %rax,%rdi
  800879:	b8 00 00 00 00       	mov    $0x0,%eax
  80087e:	49 b8 8a 1d 80 00 00 	movabs $0x801d8a,%r8
  800885:	00 00 00 
  800888:	41 ff d0             	callq  *%r8
  80088b:	48 8d 85 60 ff ff ff 	lea    -0xa0(%rbp),%rax
  800892:	48 89 c7             	mov    %rax,%rdi
  800895:	48 b8 f2 94 81 00 00 	movabs $0x8194f2,%rax
  80089c:	00 00 00 
  80089f:	ff d0                	callq  *%rax
  8008a1:	48 8b 45 f0          	mov    -0x10(%rbp),%rax
  8008a5:	8b 00                	mov    (%rax),%eax
  8008a7:	83 f8 0a             	cmp    $0xa,%eax
  8008aa:	74 22                	je     8008ce <serve_thread+0x2c0>
  8008ac:	8b 75 fc             	mov    -0x4(%rbp),%esi
  8008af:	48 8b 45 f0          	mov    -0x10(%rbp),%rax
  8008b3:	8b 40 04             	mov    0x4(%rax),%eax
  8008b6:	b9 00 00 00 00       	mov    $0x0,%ecx
  8008bb:	ba 00 00 00 00       	mov    $0x0,%edx
  8008c0:	89 c7                	mov    %eax,%edi
  8008c2:	48 b8 bc 32 80 00 00 	movabs $0x8032bc,%rax
  8008c9:	00 00 00 
  8008cc:	ff d0                	callq  *%rax
  8008ce:	48 8b 45 f0          	mov    -0x10(%rbp),%rax
  8008d2:	48 8b 40 08          	mov    0x8(%rax),%rax
  8008d6:	48 89 c7             	mov    %rax,%rdi
  8008d9:	48 b8 31 01 80 00 00 	movabs $0x800131,%rax
  8008e0:	00 00 00 
  8008e3:	ff d0                	callq  *%rax
  8008e5:	48 8b 45 f0          	mov    -0x10(%rbp),%rax
  8008e9:	48 8b 40 08          	mov    0x8(%rax),%rax
  8008ed:	48 89 c6             	mov    %rax,%rsi
  8008f0:	bf 00 00 00 00       	mov    $0x0,%edi
  8008f5:	48 b8 b1 28 80 00 00 	movabs $0x8028b1,%rax
  8008fc:	00 00 00 
  8008ff:	ff d0                	callq  *%rax
  800901:	48 8b 45 f0          	mov    -0x10(%rbp),%rax
  800905:	48 89 c7             	mov    %rax,%rdi
  800908:	48 b8 b2 51 80 00 00 	movabs $0x8051b2,%rax
  80090f:	00 00 00 
  800912:	ff d0                	callq  *%rax
  800914:	c9                   	leaveq 
  800915:	c3                   	retq   

0000000000800916 <serve>:
  800916:	55                   	push   %rbp
  800917:	48 89 e5             	mov    %rsp,%rbp
  80091a:	48 83 ec 30          	sub    $0x30,%rsp
  80091e:	c7 45 fc 00 00 00 00 	movl   $0x0,-0x4(%rbp)
  800925:	eb 10                	jmp    800937 <serve+0x21>
  800927:	48 b8 33 91 81 00 00 	movabs $0x819133,%rax
  80092e:	00 00 00 
  800931:	ff d0                	callq  *%rax
  800933:	83 45 fc 01          	addl   $0x1,-0x4(%rbp)
  800937:	48 b8 1c 8d 81 00 00 	movabs $0x818d1c,%rax
  80093e:	00 00 00 
  800941:	ff d0                	callq  *%rax
  800943:	85 c0                	test   %eax,%eax
  800945:	74 06                	je     80094d <serve+0x37>
  800947:	83 7d fc 1f          	cmpl   $0x1f,-0x4(%rbp)
  80094b:	7e da                	jle    800927 <serve+0x11>
  80094d:	c7 45 d8 00 00 00 00 	movl   $0x0,-0x28(%rbp)
  800954:	48 b8 99 00 80 00 00 	movabs $0x800099,%rax
  80095b:	00 00 00 
  80095e:	ff d0                	callq  *%rax
  800960:	48 89 45 f0          	mov    %rax,-0x10(%rbp)
  800964:	48 8d 55 d8          	lea    -0x28(%rbp),%rdx
  800968:	48 8b 4d f0          	mov    -0x10(%rbp),%rcx
  80096c:	48 8d 45 dc          	lea    -0x24(%rbp),%rax
  800970:	48 89 ce             	mov    %rcx,%rsi
  800973:	48 89 c7             	mov    %rax,%rdi
  800976:	48 b8 fb 31 80 00 00 	movabs $0x8031fb,%rax
  80097d:	00 00 00 
  800980:	ff d0                	callq  *%rax
  800982:	89 45 ec             	mov    %eax,-0x14(%rbp)
  800985:	83 7d ec 0c          	cmpl   $0xc,-0x14(%rbp)
  800989:	75 29                	jne    8009b4 <serve+0x9e>
  80098b:	8b 45 dc             	mov    -0x24(%rbp),%eax
  80098e:	89 c7                	mov    %eax,%edi
  800990:	48 b8 74 05 80 00 00 	movabs $0x800574,%rax
  800997:	00 00 00 
  80099a:	ff d0                	callq  *%rax
  80099c:	48 8b 45 f0          	mov    -0x10(%rbp),%rax
  8009a0:	48 89 c7             	mov    %rax,%rdi
  8009a3:	48 b8 31 01 80 00 00 	movabs $0x800131,%rax
  8009aa:	00 00 00 
  8009ad:	ff d0                	callq  *%rax
  8009af:	e9 d1 00 00 00       	jmpq   800a85 <serve+0x16f>
  8009b4:	8b 45 d8             	mov    -0x28(%rbp),%eax
  8009b7:	83 e0 01             	and    $0x1,%eax
  8009ba:	85 c0                	test   %eax,%eax
  8009bc:	75 25                	jne    8009e3 <serve+0xcd>
  8009be:	8b 45 dc             	mov    -0x24(%rbp),%eax
  8009c1:	89 c6                	mov    %eax,%esi
  8009c3:	48 bf 38 0c 82 00 00 	movabs $0x820c38,%rdi
  8009ca:	00 00 00 
  8009cd:	b8 00 00 00 00       	mov    $0x0,%eax
  8009d2:	48 ba 22 13 80 00 00 	movabs $0x801322,%rdx
  8009d9:	00 00 00 
  8009dc:	ff d2                	callq  *%rdx
  8009de:	e9 a2 00 00 00       	jmpq   800a85 <serve+0x16f>
  8009e3:	bf 10 00 00 00       	mov    $0x10,%edi
  8009e8:	48 b8 34 4e 80 00 00 	movabs $0x804e34,%rax
  8009ef:	00 00 00 
  8009f2:	ff d0                	callq  *%rax
  8009f4:	48 89 45 e0          	mov    %rax,-0x20(%rbp)
  8009f8:	48 83 7d e0 00       	cmpq   $0x0,-0x20(%rbp)
  8009fd:	75 2a                	jne    800a29 <serve+0x113>
  8009ff:	48 ba 68 0c 82 00 00 	movabs $0x820c68,%rdx
  800a06:	00 00 00 
  800a09:	be 27 01 00 00       	mov    $0x127,%esi
  800a0e:	48 bf 94 0a 82 00 00 	movabs $0x820a94,%rdi
  800a15:	00 00 00 
  800a18:	b8 00 00 00 00       	mov    $0x0,%eax
  800a1d:	48 b9 e9 10 80 00 00 	movabs $0x8010e9,%rcx
  800a24:	00 00 00 
  800a27:	ff d1                	callq  *%rcx
  800a29:	48 8b 45 e0          	mov    -0x20(%rbp),%rax
  800a2d:	8b 55 ec             	mov    -0x14(%rbp),%edx
  800a30:	89 10                	mov    %edx,(%rax)
  800a32:	8b 55 dc             	mov    -0x24(%rbp),%edx
  800a35:	48 8b 45 e0          	mov    -0x20(%rbp),%rax
  800a39:	89 50 04             	mov    %edx,0x4(%rax)
  800a3c:	48 8b 45 e0          	mov    -0x20(%rbp),%rax
  800a40:	48 8b 55 f0          	mov    -0x10(%rbp),%rdx
  800a44:	48 89 50 08          	mov    %rdx,0x8(%rax)
  800a48:	48 8b 45 e0          	mov    -0x20(%rbp),%rax
  800a4c:	48 89 c1             	mov    %rax,%rcx
  800a4f:	48 ba 0e 06 80 00 00 	movabs $0x80060e,%rdx
  800a56:	00 00 00 
  800a59:	48 be 91 0c 82 00 00 	movabs $0x820c91,%rsi
  800a60:	00 00 00 
  800a63:	bf 00 00 00 00       	mov    $0x0,%edi
  800a68:	48 b8 b3 8e 81 00 00 	movabs $0x818eb3,%rax
  800a6f:	00 00 00 
  800a72:	ff d0                	callq  *%rax
  800a74:	48 b8 33 91 81 00 00 	movabs $0x819133,%rax
  800a7b:	00 00 00 
  800a7e:	ff d0                	callq  *%rax
  800a80:	e9 99 fe ff ff       	jmpq   80091e <serve+0x8>
  800a85:	e9 94 fe ff ff       	jmpq   80091e <serve+0x8>

0000000000800a8a <tmain>:
  800a8a:	55                   	push   %rbp
  800a8b:	48 89 e5             	mov    %rsp,%rbp
  800a8e:	41 54                	push   %r12
  800a90:	53                   	push   %rbx
  800a91:	48 83 ec 10          	sub    $0x10,%rsp
  800a95:	48 89 7d e8          	mov    %rdi,-0x18(%rbp)
  800a99:	48 bf 9e 0c 82 00 00 	movabs $0x820c9e,%rdi
  800aa0:	00 00 00 
  800aa3:	48 b8 25 2c 81 00 00 	movabs $0x812c25,%rax
  800aaa:	00 00 00 
  800aad:	ff d0                	callq  *%rax
  800aaf:	41 89 c4             	mov    %eax,%r12d
  800ab2:	48 bf a7 0c 82 00 00 	movabs $0x820ca7,%rdi
  800ab9:	00 00 00 
  800abc:	48 b8 25 2c 81 00 00 	movabs $0x812c25,%rax
  800ac3:	00 00 00 
  800ac6:	ff d0                	callq  *%rax
  800ac8:	89 c3                	mov    %eax,%ebx
  800aca:	48 bf b5 0c 82 00 00 	movabs $0x820cb5,%rdi
  800ad1:	00 00 00 
  800ad4:	48 b8 25 2c 81 00 00 	movabs $0x812c25,%rax
  800adb:	00 00 00 
  800ade:	ff d0                	callq  *%rax
  800ae0:	44 89 e2             	mov    %r12d,%edx
  800ae3:	89 de                	mov    %ebx,%esi
  800ae5:	89 c7                	mov    %eax,%edi
  800ae7:	48 b8 74 03 80 00 00 	movabs $0x800374,%rax
  800aee:	00 00 00 
  800af1:	ff d0                	callq  *%rax
  800af3:	48 b8 16 09 80 00 00 	movabs $0x800916,%rax
  800afa:	00 00 00 
  800afd:	ff d0                	callq  *%rax
  800aff:	48 83 c4 10          	add    $0x10,%rsp
  800b03:	5b                   	pop    %rbx
  800b04:	41 5c                	pop    %r12
  800b06:	5d                   	pop    %rbp
  800b07:	c3                   	retq   

0000000000800b08 <umain>:
  800b08:	55                   	push   %rbp
  800b09:	48 89 e5             	mov    %rsp,%rbp
  800b0c:	53                   	push   %rbx
  800b0d:	48 83 ec 28          	sub    $0x28,%rsp
  800b11:	89 7d dc             	mov    %edi,-0x24(%rbp)
  800b14:	48 89 75 d0          	mov    %rsi,-0x30(%rbp)
  800b18:	48 b8 8a 27 80 00 00 	movabs $0x80278a,%rax
  800b1f:	00 00 00 
  800b22:	ff d0                	callq  *%rax
  800b24:	89 45 ec             	mov    %eax,-0x14(%rbp)
  800b27:	48 b8 00 80 82 00 00 	movabs $0x828000,%rax
  800b2e:	00 00 00 
  800b31:	48 bb bf 0c 82 00 00 	movabs $0x820cbf,%rbx
  800b38:	00 00 00 
  800b3b:	48 89 18             	mov    %rbx,(%rax)
  800b3e:	48 b8 86 2f 80 00 00 	movabs $0x802f86,%rax
  800b45:	00 00 00 
  800b48:	ff d0                	callq  *%rax
  800b4a:	48 ba 58 90 82 00 00 	movabs $0x829058,%rdx
  800b51:	00 00 00 
  800b54:	89 02                	mov    %eax,(%rdx)
  800b56:	48 b8 58 90 82 00 00 	movabs $0x829058,%rax
  800b5d:	00 00 00 
  800b60:	8b 00                	mov    (%rax),%eax
  800b62:	85 c0                	test   %eax,%eax
  800b64:	79 2a                	jns    800b90 <umain+0x88>
  800b66:	48 ba c2 0c 82 00 00 	movabs $0x820cc2,%rdx
  800b6d:	00 00 00 
  800b70:	be 44 01 00 00       	mov    $0x144,%esi
  800b75:	48 bf 94 0a 82 00 00 	movabs $0x820a94,%rdi
  800b7c:	00 00 00 
  800b7f:	b8 00 00 00 00       	mov    $0x0,%eax
  800b84:	48 b9 e9 10 80 00 00 	movabs $0x8010e9,%rcx
  800b8b:	00 00 00 
  800b8e:	ff d1                	callq  *%rcx
  800b90:	48 b8 58 90 82 00 00 	movabs $0x829058,%rax
  800b97:	00 00 00 
  800b9a:	8b 00                	mov    (%rax),%eax
  800b9c:	85 c0                	test   %eax,%eax
  800b9e:	75 1b                	jne    800bbb <umain+0xb3>
  800ba0:	8b 45 ec             	mov    -0x14(%rbp),%eax
  800ba3:	be fa 00 00 00       	mov    $0xfa,%esi
  800ba8:	89 c7                	mov    %eax,%edi
  800baa:	48 b8 f1 0c 80 00 00 	movabs $0x800cf1,%rax
  800bb1:	00 00 00 
  800bb4:	ff d0                	callq  *%rax
  800bb6:	e9 2f 01 00 00       	jmpq   800cea <umain+0x1e2>
  800bbb:	48 b8 86 2f 80 00 00 	movabs $0x802f86,%rax
  800bc2:	00 00 00 
  800bc5:	ff d0                	callq  *%rax
  800bc7:	48 ba 5c 90 82 00 00 	movabs $0x82905c,%rdx
  800bce:	00 00 00 
  800bd1:	89 02                	mov    %eax,(%rdx)
  800bd3:	48 b8 5c 90 82 00 00 	movabs $0x82905c,%rax
  800bda:	00 00 00 
  800bdd:	8b 00                	mov    (%rax),%eax
  800bdf:	85 c0                	test   %eax,%eax
  800be1:	79 2a                	jns    800c0d <umain+0x105>
  800be3:	48 ba c2 0c 82 00 00 	movabs $0x820cc2,%rdx
  800bea:	00 00 00 
  800bed:	be 4e 01 00 00       	mov    $0x14e,%esi
  800bf2:	48 bf 94 0a 82 00 00 	movabs $0x820a94,%rdi
  800bf9:	00 00 00 
  800bfc:	b8 00 00 00 00       	mov    $0x0,%eax
  800c01:	48 b9 e9 10 80 00 00 	movabs $0x8010e9,%rcx
  800c08:	00 00 00 
  800c0b:	ff d1                	callq  *%rcx
  800c0d:	48 b8 5c 90 82 00 00 	movabs $0x82905c,%rax
  800c14:	00 00 00 
  800c17:	8b 00                	mov    (%rax),%eax
  800c19:	85 c0                	test   %eax,%eax
  800c1b:	75 16                	jne    800c33 <umain+0x12b>
  800c1d:	8b 45 ec             	mov    -0x14(%rbp),%eax
  800c20:	89 c7                	mov    %eax,%edi
  800c22:	48 b8 12 0e 80 00 00 	movabs $0x800e12,%rax
  800c29:	00 00 00 
  800c2c:	ff d0                	callq  *%rax
  800c2e:	e9 b7 00 00 00       	jmpq   800cea <umain+0x1e2>
  800c33:	48 b8 86 2f 80 00 00 	movabs $0x802f86,%rax
  800c3a:	00 00 00 
  800c3d:	ff d0                	callq  *%rax
  800c3f:	48 ba 60 90 82 00 00 	movabs $0x829060,%rdx
  800c46:	00 00 00 
  800c49:	89 02                	mov    %eax,(%rdx)
  800c4b:	48 b8 60 90 82 00 00 	movabs $0x829060,%rax
  800c52:	00 00 00 
  800c55:	8b 00                	mov    (%rax),%eax
  800c57:	85 c0                	test   %eax,%eax
  800c59:	79 2a                	jns    800c85 <umain+0x17d>
  800c5b:	48 ba c2 0c 82 00 00 	movabs $0x820cc2,%rdx
  800c62:	00 00 00 
  800c65:	be 58 01 00 00       	mov    $0x158,%esi
  800c6a:	48 bf 94 0a 82 00 00 	movabs $0x820a94,%rdi
  800c71:	00 00 00 
  800c74:	b8 00 00 00 00       	mov    $0x0,%eax
  800c79:	48 b9 e9 10 80 00 00 	movabs $0x8010e9,%rcx
  800c80:	00 00 00 
  800c83:	ff d1                	callq  *%rcx
  800c85:	48 b8 60 90 82 00 00 	movabs $0x829060,%rax
  800c8c:	00 00 00 
  800c8f:	8b 00                	mov    (%rax),%eax
  800c91:	85 c0                	test   %eax,%eax
  800c93:	75 13                	jne    800ca8 <umain+0x1a0>
  800c95:	8b 45 ec             	mov    -0x14(%rbp),%eax
  800c98:	89 c7                	mov    %eax,%edi
  800c9a:	48 b8 2c 0f 80 00 00 	movabs $0x800f2c,%rax
  800ca1:	00 00 00 
  800ca4:	ff d0                	callq  *%rax
  800ca6:	eb 42                	jmp    800cea <umain+0x1e2>
  800ca8:	48 b8 aa 8b 81 00 00 	movabs $0x818baa,%rax
  800caf:	00 00 00 
  800cb2:	ff d0                	callq  *%rax
  800cb4:	b9 00 00 00 00       	mov    $0x0,%ecx
  800cb9:	48 ba 8a 0a 80 00 00 	movabs $0x800a8a,%rdx
  800cc0:	00 00 00 
  800cc3:	48 be d0 0c 82 00 00 	movabs $0x820cd0,%rsi
  800cca:	00 00 00 
  800ccd:	bf 00 00 00 00       	mov    $0x0,%edi
  800cd2:	48 b8 b3 8e 81 00 00 	movabs $0x818eb3,%rax
  800cd9:	00 00 00 
  800cdc:	ff d0                	callq  *%rax
  800cde:	48 b8 33 91 81 00 00 	movabs $0x819133,%rax
  800ce5:	00 00 00 
  800ce8:	ff d0                	callq  *%rax
  800cea:	48 83 c4 28          	add    $0x28,%rsp
  800cee:	5b                   	pop    %rbx
  800cef:	5d                   	pop    %rbp
  800cf0:	c3                   	retq   

0000000000800cf1 <timer>:
  800cf1:	55                   	push   %rbp
  800cf2:	48 89 e5             	mov    %rsp,%rbp
  800cf5:	53                   	push   %rbx
  800cf6:	48 83 ec 28          	sub    $0x28,%rsp
  800cfa:	89 7d dc             	mov    %edi,-0x24(%rbp)
  800cfd:	89 75 d8             	mov    %esi,-0x28(%rbp)
  800d00:	48 b8 73 2a 80 00 00 	movabs $0x802a73,%rax
  800d07:	00 00 00 
  800d0a:	ff d0                	callq  *%rax
  800d0c:	8b 55 d8             	mov    -0x28(%rbp),%edx
  800d0f:	01 d0                	add    %edx,%eax
  800d11:	89 45 ec             	mov    %eax,-0x14(%rbp)
  800d14:	48 b8 00 80 82 00 00 	movabs $0x828000,%rax
  800d1b:	00 00 00 
  800d1e:	48 bb d8 0c 82 00 00 	movabs $0x820cd8,%rbx
  800d25:	00 00 00 
  800d28:	48 89 18             	mov    %rbx,(%rax)
  800d2b:	eb 0c                	jmp    800d39 <timer+0x48>
  800d2d:	48 b8 c8 27 80 00 00 	movabs $0x8027c8,%rax
  800d34:	00 00 00 
  800d37:	ff d0                	callq  *%rax
  800d39:	48 b8 73 2a 80 00 00 	movabs $0x802a73,%rax
  800d40:	00 00 00 
  800d43:	ff d0                	callq  *%rax
  800d45:	89 45 e8             	mov    %eax,-0x18(%rbp)
  800d48:	8b 45 e8             	mov    -0x18(%rbp),%eax
  800d4b:	3b 45 ec             	cmp    -0x14(%rbp),%eax
  800d4e:	73 06                	jae    800d56 <timer+0x65>
  800d50:	83 7d e8 00          	cmpl   $0x0,-0x18(%rbp)
  800d54:	79 d7                	jns    800d2d <timer+0x3c>
  800d56:	83 7d e8 00          	cmpl   $0x0,-0x18(%rbp)
  800d5a:	79 30                	jns    800d8c <timer+0x9b>
  800d5c:	8b 45 e8             	mov    -0x18(%rbp),%eax
  800d5f:	89 c1                	mov    %eax,%ecx
  800d61:	48 ba e1 0c 82 00 00 	movabs $0x820ce1,%rdx
  800d68:	00 00 00 
  800d6b:	be 10 00 00 00       	mov    $0x10,%esi
  800d70:	48 bf f3 0c 82 00 00 	movabs $0x820cf3,%rdi
  800d77:	00 00 00 
  800d7a:	b8 00 00 00 00       	mov    $0x0,%eax
  800d7f:	49 b8 e9 10 80 00 00 	movabs $0x8010e9,%r8
  800d86:	00 00 00 
  800d89:	41 ff d0             	callq  *%r8
  800d8c:	8b 45 dc             	mov    -0x24(%rbp),%eax
  800d8f:	b9 00 00 00 00       	mov    $0x0,%ecx
  800d94:	ba 00 00 00 00       	mov    $0x0,%edx
  800d99:	be 0c 00 00 00       	mov    $0xc,%esi
  800d9e:	89 c7                	mov    %eax,%edi
  800da0:	48 b8 bc 32 80 00 00 	movabs $0x8032bc,%rax
  800da7:	00 00 00 
  800daa:	ff d0                	callq  *%rax
  800dac:	48 8d 45 e0          	lea    -0x20(%rbp),%rax
  800db0:	ba 00 00 00 00       	mov    $0x0,%edx
  800db5:	be 00 00 00 00       	mov    $0x0,%esi
  800dba:	48 89 c7             	mov    %rax,%rdi
  800dbd:	48 b8 fb 31 80 00 00 	movabs $0x8031fb,%rax
  800dc4:	00 00 00 
  800dc7:	ff d0                	callq  *%rax
  800dc9:	89 45 e4             	mov    %eax,-0x1c(%rbp)
  800dcc:	8b 55 dc             	mov    -0x24(%rbp),%edx
  800dcf:	8b 45 e0             	mov    -0x20(%rbp),%eax
  800dd2:	39 c2                	cmp    %eax,%edx
  800dd4:	74 22                	je     800df8 <timer+0x107>
  800dd6:	8b 45 e0             	mov    -0x20(%rbp),%eax
  800dd9:	89 c6                	mov    %eax,%esi
  800ddb:	48 bf 08 0d 82 00 00 	movabs $0x820d08,%rdi
  800de2:	00 00 00 
  800de5:	b8 00 00 00 00       	mov    $0x0,%eax
  800dea:	48 ba 22 13 80 00 00 	movabs $0x801322,%rdx
  800df1:	00 00 00 
  800df4:	ff d2                	callq  *%rdx
  800df6:	eb b4                	jmp    800dac <timer+0xbb>
  800df8:	48 b8 73 2a 80 00 00 	movabs $0x802a73,%rax
  800dff:	00 00 00 
  800e02:	ff d0                	callq  *%rax
  800e04:	8b 55 e4             	mov    -0x1c(%rbp),%edx
  800e07:	01 d0                	add    %edx,%eax
  800e09:	89 45 ec             	mov    %eax,-0x14(%rbp)
  800e0c:	90                   	nop
  800e0d:	e9 27 ff ff ff       	jmpq   800d39 <timer+0x48>

0000000000800e12 <input>:
  800e12:	55                   	push   %rbp
  800e13:	48 89 e5             	mov    %rsp,%rbp
  800e16:	53                   	push   %rbx
  800e17:	48 83 ec 28          	sub    $0x28,%rsp
  800e1b:	89 7d dc             	mov    %edi,-0x24(%rbp)
  800e1e:	48 b8 00 80 82 00 00 	movabs $0x828000,%rax
  800e25:	00 00 00 
  800e28:	48 bb 43 0d 82 00 00 	movabs $0x820d43,%rbx
  800e2f:	00 00 00 
  800e32:	48 89 18             	mov    %rbx,(%rax)
  800e35:	ba 07 00 00 00       	mov    $0x7,%edx
  800e3a:	48 be 00 a0 b5 00 00 	movabs $0xb5a000,%rsi
  800e41:	00 00 00 
  800e44:	bf 00 00 00 00       	mov    $0x0,%edi
  800e49:	48 b8 06 28 80 00 00 	movabs $0x802806,%rax
  800e50:	00 00 00 
  800e53:	ff d0                	callq  *%rax
  800e55:	89 45 ec             	mov    %eax,-0x14(%rbp)
  800e58:	83 7d ec 00          	cmpl   $0x0,-0x14(%rbp)
  800e5c:	79 30                	jns    800e8e <input+0x7c>
  800e5e:	8b 45 ec             	mov    -0x14(%rbp),%eax
  800e61:	89 c1                	mov    %eax,%ecx
  800e63:	48 ba 4c 0d 82 00 00 	movabs $0x820d4c,%rdx
  800e6a:	00 00 00 
  800e6d:	be 0e 00 00 00       	mov    $0xe,%esi
  800e72:	48 bf 5f 0d 82 00 00 	movabs $0x820d5f,%rdi
  800e79:	00 00 00 
  800e7c:	b8 00 00 00 00       	mov    $0x0,%eax
  800e81:	49 b8 e9 10 80 00 00 	movabs $0x8010e9,%r8
  800e88:	00 00 00 
  800e8b:	41 ff d0             	callq  *%r8
  800e8e:	be ee 05 00 00       	mov    $0x5ee,%esi
  800e93:	48 bf 04 a0 b5 00 00 	movabs $0xb5a004,%rdi
  800e9a:	00 00 00 
  800e9d:	48 b8 f9 2a 80 00 00 	movabs $0x802af9,%rax
  800ea4:	00 00 00 
  800ea7:	ff d0                	callq  *%rax
  800ea9:	89 45 ec             	mov    %eax,-0x14(%rbp)
  800eac:	83 7d ec 00          	cmpl   $0x0,-0x14(%rbp)
  800eb0:	75 0e                	jne    800ec0 <input+0xae>
  800eb2:	48 b8 c8 27 80 00 00 	movabs $0x8027c8,%rax
  800eb9:	00 00 00 
  800ebc:	ff d0                	callq  *%rax
  800ebe:	eb 67                	jmp    800f27 <input+0x115>
  800ec0:	83 7d ec 00          	cmpl   $0x0,-0x14(%rbp)
  800ec4:	79 22                	jns    800ee8 <input+0xd6>
  800ec6:	8b 45 ec             	mov    -0x14(%rbp),%eax
  800ec9:	89 c6                	mov    %eax,%esi
  800ecb:	48 bf 6e 0d 82 00 00 	movabs $0x820d6e,%rdi
  800ed2:	00 00 00 
  800ed5:	b8 00 00 00 00       	mov    $0x0,%eax
  800eda:	48 ba 22 13 80 00 00 	movabs $0x801322,%rdx
  800ee1:	00 00 00 
  800ee4:	ff d2                	callq  *%rdx
  800ee6:	eb 3f                	jmp    800f27 <input+0x115>
  800ee8:	83 7d ec 00          	cmpl   $0x0,-0x14(%rbp)
  800eec:	7e 39                	jle    800f27 <input+0x115>
  800eee:	48 b8 00 a0 b5 00 00 	movabs $0xb5a000,%rax
  800ef5:	00 00 00 
  800ef8:	8b 55 ec             	mov    -0x14(%rbp),%edx
  800efb:	89 10                	mov    %edx,(%rax)
  800efd:	8b 45 dc             	mov    -0x24(%rbp),%eax
  800f00:	b9 05 00 00 00       	mov    $0x5,%ecx
  800f05:	48 ba 00 a0 b5 00 00 	movabs $0xb5a000,%rdx
  800f0c:	00 00 00 
  800f0f:	be 0a 00 00 00       	mov    $0xa,%esi
  800f14:	89 c7                	mov    %eax,%edi
  800f16:	48 b8 bc 32 80 00 00 	movabs $0x8032bc,%rax
  800f1d:	00 00 00 
  800f20:	ff d0                	callq  *%rax
  800f22:	e9 0e ff ff ff       	jmpq   800e35 <input+0x23>
  800f27:	e9 09 ff ff ff       	jmpq   800e35 <input+0x23>

0000000000800f2c <output>:
  800f2c:	55                   	push   %rbp
  800f2d:	48 89 e5             	mov    %rsp,%rbp
  800f30:	53                   	push   %rbx
  800f31:	48 83 ec 28          	sub    $0x28,%rsp
  800f35:	89 7d dc             	mov    %edi,-0x24(%rbp)
  800f38:	48 b8 00 80 82 00 00 	movabs $0x828000,%rax
  800f3f:	00 00 00 
  800f42:	48 bb 90 0d 82 00 00 	movabs $0x820d90,%rbx
  800f49:	00 00 00 
  800f4c:	48 89 18             	mov    %rbx,(%rax)
  800f4f:	48 8d 45 e4          	lea    -0x1c(%rbp),%rax
  800f53:	ba 00 00 00 00       	mov    $0x0,%edx
  800f58:	48 be 00 a0 b5 00 00 	movabs $0xb5a000,%rsi
  800f5f:	00 00 00 
  800f62:	48 89 c7             	mov    %rax,%rdi
  800f65:	48 b8 fb 31 80 00 00 	movabs $0x8031fb,%rax
  800f6c:	00 00 00 
  800f6f:	ff d0                	callq  *%rax
  800f71:	89 45 ec             	mov    %eax,-0x14(%rbp)
  800f74:	8b 45 e4             	mov    -0x1c(%rbp),%eax
  800f77:	3b 45 dc             	cmp    -0x24(%rbp),%eax
  800f7a:	74 35                	je     800fb1 <output+0x85>
  800f7c:	48 b9 9a 0d 82 00 00 	movabs $0x820d9a,%rcx
  800f83:	00 00 00 
  800f86:	48 ba ab 0d 82 00 00 	movabs $0x820dab,%rdx
  800f8d:	00 00 00 
  800f90:	be 11 00 00 00       	mov    $0x11,%esi
  800f95:	48 bf c0 0d 82 00 00 	movabs $0x820dc0,%rdi
  800f9c:	00 00 00 
  800f9f:	b8 00 00 00 00       	mov    $0x0,%eax
  800fa4:	49 b8 e9 10 80 00 00 	movabs $0x8010e9,%r8
  800fab:	00 00 00 
  800fae:	41 ff d0             	callq  *%r8
  800fb1:	83 7d ec 0b          	cmpl   $0xb,-0x14(%rbp)
  800fb5:	74 35                	je     800fec <output+0xc0>
  800fb7:	48 b9 d0 0d 82 00 00 	movabs $0x820dd0,%rcx
  800fbe:	00 00 00 
  800fc1:	48 ba ab 0d 82 00 00 	movabs $0x820dab,%rdx
  800fc8:	00 00 00 
  800fcb:	be 12 00 00 00       	mov    $0x12,%esi
  800fd0:	48 bf c0 0d 82 00 00 	movabs $0x820dc0,%rdi
  800fd7:	00 00 00 
  800fda:	b8 00 00 00 00       	mov    $0x0,%eax
  800fdf:	49 b8 e9 10 80 00 00 	movabs $0x8010e9,%r8
  800fe6:	00 00 00 
  800fe9:	41 ff d0             	callq  *%r8
  800fec:	48 b8 00 a0 b5 00 00 	movabs $0xb5a000,%rax
  800ff3:	00 00 00 
  800ff6:	8b 00                	mov    (%rax),%eax
  800ff8:	89 c6                	mov    %eax,%esi
  800ffa:	48 bf 04 a0 b5 00 00 	movabs $0xb5a004,%rdi
  801001:	00 00 00 
  801004:	48 b8 b1 2a 80 00 00 	movabs $0x802ab1,%rax
  80100b:	00 00 00 
  80100e:	ff d0                	callq  *%rax
  801010:	89 45 e8             	mov    %eax,-0x18(%rbp)
  801013:	83 7d e8 00          	cmpl   $0x0,-0x18(%rbp)
  801017:	79 25                	jns    80103e <output+0x112>
  801019:	8b 45 e8             	mov    -0x18(%rbp),%eax
  80101c:	89 c6                	mov    %eax,%esi
  80101e:	48 bf e8 0d 82 00 00 	movabs $0x820de8,%rdi
  801025:	00 00 00 
  801028:	b8 00 00 00 00       	mov    $0x0,%eax
  80102d:	48 ba 22 13 80 00 00 	movabs $0x801322,%rdx
  801034:	00 00 00 
  801037:	ff d2                	callq  *%rdx
  801039:	e9 11 ff ff ff       	jmpq   800f4f <output+0x23>
  80103e:	e9 0c ff ff ff       	jmpq   800f4f <output+0x23>

0000000000801043 <libmain>:
  801043:	55                   	push   %rbp
  801044:	48 89 e5             	mov    %rsp,%rbp
  801047:	48 83 ec 10          	sub    $0x10,%rsp
  80104b:	89 7d fc             	mov    %edi,-0x4(%rbp)
  80104e:	48 89 75 f0          	mov    %rsi,-0x10(%rbp)
  801052:	48 b8 8a 27 80 00 00 	movabs $0x80278a,%rax
  801059:	00 00 00 
  80105c:	ff d0                	callq  *%rax
  80105e:	25 ff 03 00 00       	and    $0x3ff,%eax
  801063:	48 98                	cltq   
  801065:	48 69 d0 68 01 00 00 	imul   $0x168,%rax,%rdx
  80106c:	48 b8 00 00 80 00 80 	movabs $0x8000800000,%rax
  801073:	00 00 00 
  801076:	48 01 c2             	add    %rax,%rdx
  801079:	48 b8 70 75 b5 00 00 	movabs $0xb57570,%rax
  801080:	00 00 00 
  801083:	48 89 10             	mov    %rdx,(%rax)
  801086:	83 7d fc 00          	cmpl   $0x0,-0x4(%rbp)
  80108a:	7e 14                	jle    8010a0 <libmain+0x5d>
  80108c:	48 8b 45 f0          	mov    -0x10(%rbp),%rax
  801090:	48 8b 10             	mov    (%rax),%rdx
  801093:	48 b8 00 80 82 00 00 	movabs $0x828000,%rax
  80109a:	00 00 00 
  80109d:	48 89 10             	mov    %rdx,(%rax)
  8010a0:	48 8b 55 f0          	mov    -0x10(%rbp),%rdx
  8010a4:	8b 45 fc             	mov    -0x4(%rbp),%eax
  8010a7:	48 89 d6             	mov    %rdx,%rsi
  8010aa:	89 c7                	mov    %eax,%edi
  8010ac:	48 b8 08 0b 80 00 00 	movabs $0x800b08,%rax
  8010b3:	00 00 00 
  8010b6:	ff d0                	callq  *%rax
  8010b8:	48 b8 c6 10 80 00 00 	movabs $0x8010c6,%rax
  8010bf:	00 00 00 
  8010c2:	ff d0                	callq  *%rax
  8010c4:	c9                   	leaveq 
  8010c5:	c3                   	retq   

00000000008010c6 <exit>:
  8010c6:	55                   	push   %rbp
  8010c7:	48 89 e5             	mov    %rsp,%rbp
  8010ca:	48 b8 a0 38 80 00 00 	movabs $0x8038a0,%rax
  8010d1:	00 00 00 
  8010d4:	ff d0                	callq  *%rax
  8010d6:	bf 00 00 00 00       	mov    $0x0,%edi
  8010db:	48 b8 46 27 80 00 00 	movabs $0x802746,%rax
  8010e2:	00 00 00 
  8010e5:	ff d0                	callq  *%rax
  8010e7:	5d                   	pop    %rbp
  8010e8:	c3                   	retq   

00000000008010e9 <_panic>:
  8010e9:	55                   	push   %rbp
  8010ea:	48 89 e5             	mov    %rsp,%rbp
  8010ed:	53                   	push   %rbx
  8010ee:	48 81 ec f8 00 00 00 	sub    $0xf8,%rsp
  8010f5:	48 89 bd 18 ff ff ff 	mov    %rdi,-0xe8(%rbp)
  8010fc:	89 b5 14 ff ff ff    	mov    %esi,-0xec(%rbp)
  801102:	48 89 8d 58 ff ff ff 	mov    %rcx,-0xa8(%rbp)
  801109:	4c 89 85 60 ff ff ff 	mov    %r8,-0xa0(%rbp)
  801110:	4c 89 8d 68 ff ff ff 	mov    %r9,-0x98(%rbp)
  801117:	84 c0                	test   %al,%al
  801119:	74 23                	je     80113e <_panic+0x55>
  80111b:	0f 29 85 70 ff ff ff 	movaps %xmm0,-0x90(%rbp)
  801122:	0f 29 4d 80          	movaps %xmm1,-0x80(%rbp)
  801126:	0f 29 55 90          	movaps %xmm2,-0x70(%rbp)
  80112a:	0f 29 5d a0          	movaps %xmm3,-0x60(%rbp)
  80112e:	0f 29 65 b0          	movaps %xmm4,-0x50(%rbp)
  801132:	0f 29 6d c0          	movaps %xmm5,-0x40(%rbp)
  801136:	0f 29 75 d0          	movaps %xmm6,-0x30(%rbp)
  80113a:	0f 29 7d e0          	movaps %xmm7,-0x20(%rbp)
  80113e:	48 89 95 08 ff ff ff 	mov    %rdx,-0xf8(%rbp)
  801145:	c7 85 28 ff ff ff 18 	movl   $0x18,-0xd8(%rbp)
  80114c:	00 00 00 
  80114f:	c7 85 2c ff ff ff 30 	movl   $0x30,-0xd4(%rbp)
  801156:	00 00 00 
  801159:	48 8d 45 10          	lea    0x10(%rbp),%rax
  80115d:	48 89 85 30 ff ff ff 	mov    %rax,-0xd0(%rbp)
  801164:	48 8d 85 40 ff ff ff 	lea    -0xc0(%rbp),%rax
  80116b:	48 89 85 38 ff ff ff 	mov    %rax,-0xc8(%rbp)
  801172:	48 b8 00 80 82 00 00 	movabs $0x828000,%rax
  801179:	00 00 00 
  80117c:	48 8b 18             	mov    (%rax),%rbx
  80117f:	48 b8 8a 27 80 00 00 	movabs $0x80278a,%rax
  801186:	00 00 00 
  801189:	ff d0                	callq  *%rax
  80118b:	8b 8d 14 ff ff ff    	mov    -0xec(%rbp),%ecx
  801191:	48 8b 95 18 ff ff ff 	mov    -0xe8(%rbp),%rdx
  801198:	41 89 c8             	mov    %ecx,%r8d
  80119b:	48 89 d1             	mov    %rdx,%rcx
  80119e:	48 89 da             	mov    %rbx,%rdx
  8011a1:	89 c6                	mov    %eax,%esi
  8011a3:	48 bf 18 0e 82 00 00 	movabs $0x820e18,%rdi
  8011aa:	00 00 00 
  8011ad:	b8 00 00 00 00       	mov    $0x0,%eax
  8011b2:	49 b9 22 13 80 00 00 	movabs $0x801322,%r9
  8011b9:	00 00 00 
  8011bc:	41 ff d1             	callq  *%r9
  8011bf:	48 8d 95 28 ff ff ff 	lea    -0xd8(%rbp),%rdx
  8011c6:	48 8b 85 08 ff ff ff 	mov    -0xf8(%rbp),%rax
  8011cd:	48 89 d6             	mov    %rdx,%rsi
  8011d0:	48 89 c7             	mov    %rax,%rdi
  8011d3:	48 b8 76 12 80 00 00 	movabs $0x801276,%rax
  8011da:	00 00 00 
  8011dd:	ff d0                	callq  *%rax
  8011df:	48 bf 3b 0e 82 00 00 	movabs $0x820e3b,%rdi
  8011e6:	00 00 00 
  8011e9:	b8 00 00 00 00       	mov    $0x0,%eax
  8011ee:	48 ba 22 13 80 00 00 	movabs $0x801322,%rdx
  8011f5:	00 00 00 
  8011f8:	ff d2                	callq  *%rdx
  8011fa:	cc                   	int3   
  8011fb:	eb fd                	jmp    8011fa <_panic+0x111>

00000000008011fd <putch>:
  8011fd:	55                   	push   %rbp
  8011fe:	48 89 e5             	mov    %rsp,%rbp
  801201:	48 83 ec 10          	sub    $0x10,%rsp
  801205:	89 7d fc             	mov    %edi,-0x4(%rbp)
  801208:	48 89 75 f0          	mov    %rsi,-0x10(%rbp)
  80120c:	48 8b 45 f0          	mov    -0x10(%rbp),%rax
  801210:	8b 00                	mov    (%rax),%eax
  801212:	8d 48 01             	lea    0x1(%rax),%ecx
  801215:	48 8b 55 f0          	mov    -0x10(%rbp),%rdx
  801219:	89 0a                	mov    %ecx,(%rdx)
  80121b:	8b 55 fc             	mov    -0x4(%rbp),%edx
  80121e:	89 d1                	mov    %edx,%ecx
  801220:	48 8b 55 f0          	mov    -0x10(%rbp),%rdx
  801224:	48 98                	cltq   
  801226:	88 4c 02 08          	mov    %cl,0x8(%rdx,%rax,1)
  80122a:	48 8b 45 f0          	mov    -0x10(%rbp),%rax
  80122e:	8b 00                	mov    (%rax),%eax
  801230:	3d ff 00 00 00       	cmp    $0xff,%eax
  801235:	75 2c                	jne    801263 <putch+0x66>
  801237:	48 8b 45 f0          	mov    -0x10(%rbp),%rax
  80123b:	8b 00                	mov    (%rax),%eax
  80123d:	48 98                	cltq   
  80123f:	48 8b 55 f0          	mov    -0x10(%rbp),%rdx
  801243:	48 83 c2 08          	add    $0x8,%rdx
  801247:	48 89 c6             	mov    %rax,%rsi
  80124a:	48 89 d7             	mov    %rdx,%rdi
  80124d:	48 b8 be 26 80 00 00 	movabs $0x8026be,%rax
  801254:	00 00 00 
  801257:	ff d0                	callq  *%rax
  801259:	48 8b 45 f0          	mov    -0x10(%rbp),%rax
  80125d:	c7 00 00 00 00 00    	movl   $0x0,(%rax)
  801263:	48 8b 45 f0          	mov    -0x10(%rbp),%rax
  801267:	8b 40 04             	mov    0x4(%rax),%eax
  80126a:	8d 50 01             	lea    0x1(%rax),%edx
  80126d:	48 8b 45 f0          	mov    -0x10(%rbp),%rax
  801271:	89 50 04             	mov    %edx,0x4(%rax)
  801274:	c9                   	leaveq 
  801275:	c3                   	retq   

0000000000801276 <vcprintf>:
  801276:	55                   	push   %rbp
  801277:	48 89 e5             	mov    %rsp,%rbp
  80127a:	48 81 ec 40 01 00 00 	sub    $0x140,%rsp
  801281:	48 89 bd c8 fe ff ff 	mov    %rdi,-0x138(%rbp)
  801288:	48 89 b5 c0 fe ff ff 	mov    %rsi,-0x140(%rbp)
  80128f:	48 8d 85 d8 fe ff ff 	lea    -0x128(%rbp),%rax
  801296:	48 8b 95 c0 fe ff ff 	mov    -0x140(%rbp),%rdx
  80129d:	48 8b 0a             	mov    (%rdx),%rcx
  8012a0:	48 89 08             	mov    %rcx,(%rax)
  8012a3:	48 8b 4a 08          	mov    0x8(%rdx),%rcx
  8012a7:	48 89 48 08          	mov    %rcx,0x8(%rax)
  8012ab:	48 8b 52 10          	mov    0x10(%rdx),%rdx
  8012af:	48 89 50 10          	mov    %rdx,0x10(%rax)
  8012b3:	c7 85 f0 fe ff ff 00 	movl   $0x0,-0x110(%rbp)
  8012ba:	00 00 00 
  8012bd:	c7 85 f4 fe ff ff 00 	movl   $0x0,-0x10c(%rbp)
  8012c4:	00 00 00 
  8012c7:	48 8d 8d d8 fe ff ff 	lea    -0x128(%rbp),%rcx
  8012ce:	48 8b 95 c8 fe ff ff 	mov    -0x138(%rbp),%rdx
  8012d5:	48 8d 85 f0 fe ff ff 	lea    -0x110(%rbp),%rax
  8012dc:	48 89 c6             	mov    %rax,%rsi
  8012df:	48 bf fd 11 80 00 00 	movabs $0x8011fd,%rdi
  8012e6:	00 00 00 
  8012e9:	48 b8 d5 16 80 00 00 	movabs $0x8016d5,%rax
  8012f0:	00 00 00 
  8012f3:	ff d0                	callq  *%rax
  8012f5:	8b 85 f0 fe ff ff    	mov    -0x110(%rbp),%eax
  8012fb:	48 98                	cltq   
  8012fd:	48 8d 95 f0 fe ff ff 	lea    -0x110(%rbp),%rdx
  801304:	48 83 c2 08          	add    $0x8,%rdx
  801308:	48 89 c6             	mov    %rax,%rsi
  80130b:	48 89 d7             	mov    %rdx,%rdi
  80130e:	48 b8 be 26 80 00 00 	movabs $0x8026be,%rax
  801315:	00 00 00 
  801318:	ff d0                	callq  *%rax
  80131a:	8b 85 f4 fe ff ff    	mov    -0x10c(%rbp),%eax
  801320:	c9                   	leaveq 
  801321:	c3                   	retq   

0000000000801322 <cprintf>:
  801322:	55                   	push   %rbp
  801323:	48 89 e5             	mov    %rsp,%rbp
  801326:	48 81 ec 00 01 00 00 	sub    $0x100,%rsp
  80132d:	48 89 b5 58 ff ff ff 	mov    %rsi,-0xa8(%rbp)
  801334:	48 89 95 60 ff ff ff 	mov    %rdx,-0xa0(%rbp)
  80133b:	48 89 8d 68 ff ff ff 	mov    %rcx,-0x98(%rbp)
  801342:	4c 89 85 70 ff ff ff 	mov    %r8,-0x90(%rbp)
  801349:	4c 89 8d 78 ff ff ff 	mov    %r9,-0x88(%rbp)
  801350:	84 c0                	test   %al,%al
  801352:	74 20                	je     801374 <cprintf+0x52>
  801354:	0f 29 45 80          	movaps %xmm0,-0x80(%rbp)
  801358:	0f 29 4d 90          	movaps %xmm1,-0x70(%rbp)
  80135c:	0f 29 55 a0          	movaps %xmm2,-0x60(%rbp)
  801360:	0f 29 5d b0          	movaps %xmm3,-0x50(%rbp)
  801364:	0f 29 65 c0          	movaps %xmm4,-0x40(%rbp)
  801368:	0f 29 6d d0          	movaps %xmm5,-0x30(%rbp)
  80136c:	0f 29 75 e0          	movaps %xmm6,-0x20(%rbp)
  801370:	0f 29 7d f0          	movaps %xmm7,-0x10(%rbp)
  801374:	48 89 bd 08 ff ff ff 	mov    %rdi,-0xf8(%rbp)
  80137b:	c7 85 30 ff ff ff 08 	movl   $0x8,-0xd0(%rbp)
  801382:	00 00 00 
  801385:	c7 85 34 ff ff ff 30 	movl   $0x30,-0xcc(%rbp)
  80138c:	00 00 00 
  80138f:	48 8d 45 10          	lea    0x10(%rbp),%rax
  801393:	48 89 85 38 ff ff ff 	mov    %rax,-0xc8(%rbp)
  80139a:	48 8d 85 50 ff ff ff 	lea    -0xb0(%rbp),%rax
  8013a1:	48 89 85 40 ff ff ff 	mov    %rax,-0xc0(%rbp)
  8013a8:	48 8d 85 18 ff ff ff 	lea    -0xe8(%rbp),%rax
  8013af:	48 8d 95 30 ff ff ff 	lea    -0xd0(%rbp),%rdx
  8013b6:	48 8b 0a             	mov    (%rdx),%rcx
  8013b9:	48 89 08             	mov    %rcx,(%rax)
  8013bc:	48 8b 4a 08          	mov    0x8(%rdx),%rcx
  8013c0:	48 89 48 08          	mov    %rcx,0x8(%rax)
  8013c4:	48 8b 52 10          	mov    0x10(%rdx),%rdx
  8013c8:	48 89 50 10          	mov    %rdx,0x10(%rax)
  8013cc:	48 8d 95 18 ff ff ff 	lea    -0xe8(%rbp),%rdx
  8013d3:	48 8b 85 08 ff ff ff 	mov    -0xf8(%rbp),%rax
  8013da:	48 89 d6             	mov    %rdx,%rsi
  8013dd:	48 89 c7             	mov    %rax,%rdi
  8013e0:	48 b8 76 12 80 00 00 	movabs $0x801276,%rax
  8013e7:	00 00 00 
  8013ea:	ff d0                	callq  *%rax
  8013ec:	89 85 4c ff ff ff    	mov    %eax,-0xb4(%rbp)
  8013f2:	8b 85 4c ff ff ff    	mov    -0xb4(%rbp),%eax
  8013f8:	c9                   	leaveq 
  8013f9:	c3                   	retq   

00000000008013fa <printnum>:
  8013fa:	55                   	push   %rbp
  8013fb:	48 89 e5             	mov    %rsp,%rbp
  8013fe:	53                   	push   %rbx
  8013ff:	48 83 ec 38          	sub    $0x38,%rsp
  801403:	48 89 7d e8          	mov    %rdi,-0x18(%rbp)
  801407:	48 89 75 e0          	mov    %rsi,-0x20(%rbp)
  80140b:	48 89 55 d8          	mov    %rdx,-0x28(%rbp)
  80140f:	89 4d d4             	mov    %ecx,-0x2c(%rbp)
  801412:	44 89 45 d0          	mov    %r8d,-0x30(%rbp)
  801416:	44 89 4d cc          	mov    %r9d,-0x34(%rbp)
  80141a:	8b 45 d4             	mov    -0x2c(%rbp),%eax
  80141d:	48 3b 45 d8          	cmp    -0x28(%rbp),%rax
  801421:	77 3b                	ja     80145e <printnum+0x64>
  801423:	8b 45 d0             	mov    -0x30(%rbp),%eax
  801426:	44 8d 40 ff          	lea    -0x1(%rax),%r8d
  80142a:	8b 5d d4             	mov    -0x2c(%rbp),%ebx
  80142d:	48 8b 45 d8          	mov    -0x28(%rbp),%rax
  801431:	ba 00 00 00 00       	mov    $0x0,%edx
  801436:	48 f7 f3             	div    %rbx
  801439:	48 89 c2             	mov    %rax,%rdx
  80143c:	8b 7d cc             	mov    -0x34(%rbp),%edi
  80143f:	8b 4d d4             	mov    -0x2c(%rbp),%ecx
  801442:	48 8b 75 e0          	mov    -0x20(%rbp),%rsi
  801446:	48 8b 45 e8          	mov    -0x18(%rbp),%rax
  80144a:	41 89 f9             	mov    %edi,%r9d
  80144d:	48 89 c7             	mov    %rax,%rdi
  801450:	48 b8 fa 13 80 00 00 	movabs $0x8013fa,%rax
  801457:	00 00 00 
  80145a:	ff d0                	callq  *%rax
  80145c:	eb 1e                	jmp    80147c <printnum+0x82>
  80145e:	eb 12                	jmp    801472 <printnum+0x78>
  801460:	48 8b 4d e0          	mov    -0x20(%rbp),%rcx
  801464:	8b 55 cc             	mov    -0x34(%rbp),%edx
  801467:	48 8b 45 e8          	mov    -0x18(%rbp),%rax
  80146b:	48 89 ce             	mov    %rcx,%rsi
  80146e:	89 d7                	mov    %edx,%edi
  801470:	ff d0                	callq  *%rax
  801472:	83 6d d0 01          	subl   $0x1,-0x30(%rbp)
  801476:	83 7d d0 00          	cmpl   $0x0,-0x30(%rbp)
  80147a:	7f e4                	jg     801460 <printnum+0x66>
  80147c:	8b 4d d4             	mov    -0x2c(%rbp),%ecx
  80147f:	48 8b 45 d8          	mov    -0x28(%rbp),%rax
  801483:	ba 00 00 00 00       	mov    $0x0,%edx
  801488:	48 f7 f1             	div    %rcx
  80148b:	48 89 d0             	mov    %rdx,%rax
  80148e:	48 ba 30 10 82 00 00 	movabs $0x821030,%rdx
  801495:	00 00 00 
  801498:	0f b6 04 02          	movzbl (%rdx,%rax,1),%eax
  80149c:	0f be d0             	movsbl %al,%edx
  80149f:	48 8b 4d e0          	mov    -0x20(%rbp),%rcx
  8014a3:	48 8b 45 e8          	mov    -0x18(%rbp),%rax
  8014a7:	48 89 ce             	mov    %rcx,%rsi
  8014aa:	89 d7                	mov    %edx,%edi
  8014ac:	ff d0                	callq  *%rax
  8014ae:	48 83 c4 38          	add    $0x38,%rsp
  8014b2:	5b                   	pop    %rbx
  8014b3:	5d                   	pop    %rbp
  8014b4:	c3                   	retq   

00000000008014b5 <getuint>:
  8014b5:	55                   	push   %rbp
  8014b6:	48 89 e5             	mov    %rsp,%rbp
  8014b9:	48 83 ec 1c          	sub    $0x1c,%rsp
  8014bd:	48 89 7d e8          	mov    %rdi,-0x18(%rbp)
  8014c1:	89 75 e4             	mov    %esi,-0x1c(%rbp)
  8014c4:	83 7d e4 01          	cmpl   $0x1,-0x1c(%rbp)
  8014c8:	7e 52                	jle    80151c <getuint+0x67>
  8014ca:	48 8b 45 e8          	mov    -0x18(%rbp),%rax
  8014ce:	8b 00                	mov    (%rax),%eax
  8014d0:	83 f8 30             	cmp    $0x30,%eax
  8014d3:	73 24                	jae    8014f9 <getuint+0x44>
  8014d5:	48 8b 45 e8          	mov    -0x18(%rbp),%rax
  8014d9:	48 8b 50 10          	mov    0x10(%rax),%rdx
  8014dd:	48 8b 45 e8          	mov    -0x18(%rbp),%rax
  8014e1:	8b 00                	mov    (%rax),%eax
  8014e3:	89 c0                	mov    %eax,%eax
  8014e5:	48 01 d0             	add    %rdx,%rax
  8014e8:	48 8b 55 e8          	mov    -0x18(%rbp),%rdx
  8014ec:	8b 12                	mov    (%rdx),%edx
  8014ee:	8d 4a 08             	lea    0x8(%rdx),%ecx
  8014f1:	48 8b 55 e8          	mov    -0x18(%rbp),%rdx
  8014f5:	89 0a                	mov    %ecx,(%rdx)
  8014f7:	eb 17                	jmp    801510 <getuint+0x5b>
  8014f9:	48 8b 45 e8          	mov    -0x18(%rbp),%rax
  8014fd:	48 8b 50 08          	mov    0x8(%rax),%rdx
  801501:	48 89 d0             	mov    %rdx,%rax
  801504:	48 8d 4a 08          	lea    0x8(%rdx),%rcx
  801508:	48 8b 55 e8          	mov    -0x18(%rbp),%rdx
  80150c:	48 89 4a 08          	mov    %rcx,0x8(%rdx)
  801510:	48 8b 00             	mov    (%rax),%rax
  801513:	48 89 45 f8          	mov    %rax,-0x8(%rbp)
  801517:	e9 a3 00 00 00       	jmpq   8015bf <getuint+0x10a>
  80151c:	83 7d e4 00          	cmpl   $0x0,-0x1c(%rbp)
  801520:	74 4f                	je     801571 <getuint+0xbc>
  801522:	48 8b 45 e8          	mov    -0x18(%rbp),%rax
  801526:	8b 00                	mov    (%rax),%eax
  801528:	83 f8 30             	cmp    $0x30,%eax
  80152b:	73 24                	jae    801551 <getuint+0x9c>
  80152d:	48 8b 45 e8          	mov    -0x18(%rbp),%rax
  801531:	48 8b 50 10          	mov    0x10(%rax),%rdx
  801535:	48 8b 45 e8          	mov    -0x18(%rbp),%rax
  801539:	8b 00                	mov    (%rax),%eax
  80153b:	89 c0                	mov    %eax,%eax
  80153d:	48 01 d0             	add    %rdx,%rax
  801540:	48 8b 55 e8          	mov    -0x18(%rbp),%rdx
  801544:	8b 12                	mov    (%rdx),%edx
  801546:	8d 4a 08             	lea    0x8(%rdx),%ecx
  801549:	48 8b 55 e8          	mov    -0x18(%rbp),%rdx
  80154d:	89 0a                	mov    %ecx,(%rdx)
  80154f:	eb 17                	jmp    801568 <getuint+0xb3>
  801551:	48 8b 45 e8          	mov    -0x18(%rbp),%rax
  801555:	48 8b 50 08          	mov    0x8(%rax),%rdx
  801559:	48 89 d0             	mov    %rdx,%rax
  80155c:	48 8d 4a 08          	lea    0x8(%rdx),%rcx
  801560:	48 8b 55 e8          	mov    -0x18(%rbp),%rdx
  801564:	48 89 4a 08          	mov    %rcx,0x8(%rdx)
  801568:	48 8b 00             	mov    (%rax),%rax
  80156b:	48 89 45 f8          	mov    %rax,-0x8(%rbp)
  80156f:	eb 4e                	jmp    8015bf <getuint+0x10a>
  801571:	48 8b 45 e8          	mov    -0x18(%rbp),%rax
  801575:	8b 00                	mov    (%rax),%eax
  801577:	83 f8 30             	cmp    $0x30,%eax
  80157a:	73 24                	jae    8015a0 <getuint+0xeb>
  80157c:	48 8b 45 e8          	mov    -0x18(%rbp),%rax
  801580:	48 8b 50 10          	mov    0x10(%rax),%rdx
  801584:	48 8b 45 e8          	mov    -0x18(%rbp),%rax
  801588:	8b 00                	mov    (%rax),%eax
  80158a:	89 c0                	mov    %eax,%eax
  80158c:	48 01 d0             	add    %rdx,%rax
  80158f:	48 8b 55 e8          	mov    -0x18(%rbp),%rdx
  801593:	8b 12                	mov    (%rdx),%edx
  801595:	8d 4a 08             	lea    0x8(%rdx),%ecx
  801598:	48 8b 55 e8          	mov    -0x18(%rbp),%rdx
  80159c:	89 0a                	mov    %ecx,(%rdx)
  80159e:	eb 17                	jmp    8015b7 <getuint+0x102>
  8015a0:	48 8b 45 e8          	mov    -0x18(%rbp),%rax
  8015a4:	48 8b 50 08          	mov    0x8(%rax),%rdx
  8015a8:	48 89 d0             	mov    %rdx,%rax
  8015ab:	48 8d 4a 08          	lea    0x8(%rdx),%rcx
  8015af:	48 8b 55 e8          	mov    -0x18(%rbp),%rdx
  8015b3:	48 89 4a 08          	mov    %rcx,0x8(%rdx)
  8015b7:	8b 00                	mov    (%rax),%eax
  8015b9:	89 c0                	mov    %eax,%eax
  8015bb:	48 89 45 f8          	mov    %rax,-0x8(%rbp)
  8015bf:	48 8b 45 f8          	mov    -0x8(%rbp),%rax
  8015c3:	c9                   	leaveq 
  8015c4:	c3                   	retq   

00000000008015c5 <getint>:
  8015c5:	55                   	push   %rbp
  8015c6:	48 89 e5             	mov    %rsp,%rbp
  8015c9:	48 83 ec 1c          	sub    $0x1c,%rsp
  8015cd:	48 89 7d e8          	mov    %rdi,-0x18(%rbp)
  8015d1:	89 75 e4             	mov    %esi,-0x1c(%rbp)
  8015d4:	83 7d e4 01          	cmpl   $0x1,-0x1c(%rbp)
  8015d8:	7e 52                	jle    80162c <getint+0x67>
  8015da:	48 8b 45 e8          	mov    -0x18(%rbp),%rax
  8015de:	8b 00                	mov    (%rax),%eax
  8015e0:	83 f8 30             	cmp    $0x30,%eax
  8015e3:	73 24                	jae    801609 <getint+0x44>
  8015e5:	48 8b 45 e8          	mov    -0x18(%rbp),%rax
  8015e9:	48 8b 50 10          	mov    0x10(%rax),%rdx
  8015ed:	48 8b 45 e8          	mov    -0x18(%rbp),%rax
  8015f1:	8b 00                	mov    (%rax),%eax
  8015f3:	89 c0                	mov    %eax,%eax
  8015f5:	48 01 d0             	add    %rdx,%rax
  8015f8:	48 8b 55 e8          	mov    -0x18(%rbp),%rdx
  8015fc:	8b 12                	mov    (%rdx),%edx
  8015fe:	8d 4a 08             	lea    0x8(%rdx),%ecx
  801601:	48 8b 55 e8          	mov    -0x18(%rbp),%rdx
  801605:	89 0a                	mov    %ecx,(%rdx)
  801607:	eb 17                	jmp    801620 <getint+0x5b>
  801609:	48 8b 45 e8          	mov    -0x18(%rbp),%rax
  80160d:	48 8b 50 08          	mov    0x8(%rax),%rdx
  801611:	48 89 d0             	mov    %rdx,%rax
  801614:	48 8d 4a 08          	lea    0x8(%rdx),%rcx
  801618:	48 8b 55 e8          	mov    -0x18(%rbp),%rdx
  80161c:	48 89 4a 08          	mov    %rcx,0x8(%rdx)
  801620:	48 8b 00             	mov    (%rax),%rax
  801623:	48 89 45 f8          	mov    %rax,-0x8(%rbp)
  801627:	e9 a3 00 00 00       	jmpq   8016cf <getint+0x10a>
  80162c:	83 7d e4 00          	cmpl   $0x0,-0x1c(%rbp)
  801630:	74 4f                	je     801681 <getint+0xbc>
  801632:	48 8b 45 e8          	mov    -0x18(%rbp),%rax
  801636:	8b 00                	mov    (%rax),%eax
  801638:	83 f8 30             	cmp    $0x30,%eax
  80163b:	73 24                	jae    801661 <getint+0x9c>
  80163d:	48 8b 45 e8          	mov    -0x18(%rbp),%rax
  801641:	48 8b 50 10          	mov    0x10(%rax),%rdx
  801645:	48 8b 45 e8          	mov    -0x18(%rbp),%rax
  801649:	8b 00                	mov    (%rax),%eax
  80164b:	89 c0                	mov    %eax,%eax
  80164d:	48 01 d0             	add    %rdx,%rax
  801650:	48 8b 55 e8          	mov    -0x18(%rbp),%rdx
  801654:	8b 12                	mov    (%rdx),%edx
  801656:	8d 4a 08             	lea    0x8(%rdx),%ecx
  801659:	48 8b 55 e8          	mov    -0x18(%rbp),%rdx
  80165d:	89 0a                	mov    %ecx,(%rdx)
  80165f:	eb 17                	jmp    801678 <getint+0xb3>
  801661:	48 8b 45 e8          	mov    -0x18(%rbp),%rax
  801665:	48 8b 50 08          	mov    0x8(%rax),%rdx
  801669:	48 89 d0             	mov    %rdx,%rax
  80166c:	48 8d 4a 08          	lea    0x8(%rdx),%rcx
  801670:	48 8b 55 e8          	mov    -0x18(%rbp),%rdx
  801674:	48 89 4a 08          	mov    %rcx,0x8(%rdx)
  801678:	48 8b 00             	mov    (%rax),%rax
  80167b:	48 89 45 f8          	mov    %rax,-0x8(%rbp)
  80167f:	eb 4e                	jmp    8016cf <getint+0x10a>
  801681:	48 8b 45 e8          	mov    -0x18(%rbp),%rax
  801685:	8b 00                	mov    (%rax),%eax
  801687:	83 f8 30             	cmp    $0x30,%eax
  80168a:	73 24                	jae    8016b0 <getint+0xeb>
  80168c:	48 8b 45 e8          	mov    -0x18(%rbp),%rax
  801690:	48 8b 50 10          	mov    0x10(%rax),%rdx
  801694:	48 8b 45 e8          	mov    -0x18(%rbp),%rax
  801698:	8b 00                	mov    (%rax),%eax
  80169a:	89 c0                	mov    %eax,%eax
  80169c:	48 01 d0             	add    %rdx,%rax
  80169f:	48 8b 55 e8          	mov    -0x18(%rbp),%rdx
  8016a3:	8b 12                	mov    (%rdx),%edx
  8016a5:	8d 4a 08             	lea    0x8(%rdx),%ecx
  8016a8:	48 8b 55 e8          	mov    -0x18(%rbp),%rdx
  8016ac:	89 0a                	mov    %ecx,(%rdx)
  8016ae:	eb 17                	jmp    8016c7 <getint+0x102>
  8016b0:	48 8b 45 e8          	mov    -0x18(%rbp),%rax
  8016b4:	48 8b 50 08          	mov    0x8(%rax),%rdx
  8016b8:	48 89 d0             	mov    %rdx,%rax
  8016bb:	48 8d 4a 08          	lea    0x8(%rdx),%rcx
  8016bf:	48 8b 55 e8          	mov    -0x18(%rbp),%rdx
  8016c3:	48 89 4a 08          	mov    %rcx,0x8(%rdx)
  8016c7:	8b 00                	mov    (%rax),%eax
  8016c9:	48 98                	cltq   
  8016cb:	48 89 45 f8          	mov    %rax,-0x8(%rbp)
  8016cf:	48 8b 45 f8          	mov    -0x8(%rbp),%rax
  8016d3:	c9                   	leaveq 
  8016d4:	c3                   	retq   

00000000008016d5 <vprintfmt>:
  8016d5:	55                   	push   %rbp
  8016d6:	48 89 e5             	mov    %rsp,%rbp
  8016d9:	41 54                	push   %r12
  8016db:	53                   	push   %rbx
  8016dc:	48 83 ec 60          	sub    $0x60,%rsp
  8016e0:	48 89 7d a8          	mov    %rdi,-0x58(%rbp)
  8016e4:	48 89 75 a0          	mov    %rsi,-0x60(%rbp)
  8016e8:	48 89 55 98          	mov    %rdx,-0x68(%rbp)
  8016ec:	48 89 4d 90          	mov    %rcx,-0x70(%rbp)
  8016f0:	48 8d 45 b8          	lea    -0x48(%rbp),%rax
  8016f4:	48 8b 55 90          	mov    -0x70(%rbp),%rdx
  8016f8:	48 8b 0a             	mov    (%rdx),%rcx
  8016fb:	48 89 08             	mov    %rcx,(%rax)
  8016fe:	48 8b 4a 08          	mov    0x8(%rdx),%rcx
  801702:	48 89 48 08          	mov    %rcx,0x8(%rax)
  801706:	48 8b 52 10          	mov    0x10(%rdx),%rdx
  80170a:	48 89 50 10          	mov    %rdx,0x10(%rax)
  80170e:	eb 17                	jmp    801727 <vprintfmt+0x52>
  801710:	85 db                	test   %ebx,%ebx
  801712:	0f 84 cc 04 00 00    	je     801be4 <vprintfmt+0x50f>
  801718:	48 8b 55 a0          	mov    -0x60(%rbp),%rdx
  80171c:	48 8b 45 a8          	mov    -0x58(%rbp),%rax
  801720:	48 89 d6             	mov    %rdx,%rsi
  801723:	89 df                	mov    %ebx,%edi
  801725:	ff d0                	callq  *%rax
  801727:	48 8b 45 98          	mov    -0x68(%rbp),%rax
  80172b:	48 8d 50 01          	lea    0x1(%rax),%rdx
  80172f:	48 89 55 98          	mov    %rdx,-0x68(%rbp)
  801733:	0f b6 00             	movzbl (%rax),%eax
  801736:	0f b6 d8             	movzbl %al,%ebx
  801739:	83 fb 25             	cmp    $0x25,%ebx
  80173c:	75 d2                	jne    801710 <vprintfmt+0x3b>
  80173e:	c6 45 d3 20          	movb   $0x20,-0x2d(%rbp)
  801742:	c7 45 dc ff ff ff ff 	movl   $0xffffffff,-0x24(%rbp)
  801749:	c7 45 d8 ff ff ff ff 	movl   $0xffffffff,-0x28(%rbp)
  801750:	c7 45 e0 00 00 00 00 	movl   $0x0,-0x20(%rbp)
  801757:	c7 45 d4 00 00 00 00 	movl   $0x0,-0x2c(%rbp)
  80175e:	48 8b 45 98          	mov    -0x68(%rbp),%rax
  801762:	48 8d 50 01          	lea    0x1(%rax),%rdx
  801766:	48 89 55 98          	mov    %rdx,-0x68(%rbp)
  80176a:	0f b6 00             	movzbl (%rax),%eax
  80176d:	0f b6 d8             	movzbl %al,%ebx
  801770:	8d 43 dd             	lea    -0x23(%rbx),%eax
  801773:	83 f8 55             	cmp    $0x55,%eax
  801776:	0f 87 34 04 00 00    	ja     801bb0 <vprintfmt+0x4db>
  80177c:	89 c0                	mov    %eax,%eax
  80177e:	48 8d 14 c5 00 00 00 	lea    0x0(,%rax,8),%rdx
  801785:	00 
  801786:	48 b8 58 10 82 00 00 	movabs $0x821058,%rax
  80178d:	00 00 00 
  801790:	48 01 d0             	add    %rdx,%rax
  801793:	48 8b 00             	mov    (%rax),%rax
  801796:	ff e0                	jmpq   *%rax
  801798:	c6 45 d3 2d          	movb   $0x2d,-0x2d(%rbp)
  80179c:	eb c0                	jmp    80175e <vprintfmt+0x89>
  80179e:	c6 45 d3 30          	movb   $0x30,-0x2d(%rbp)
  8017a2:	eb ba                	jmp    80175e <vprintfmt+0x89>
  8017a4:	c7 45 d8 00 00 00 00 	movl   $0x0,-0x28(%rbp)
  8017ab:	8b 55 d8             	mov    -0x28(%rbp),%edx
  8017ae:	89 d0                	mov    %edx,%eax
  8017b0:	c1 e0 02             	shl    $0x2,%eax
  8017b3:	01 d0                	add    %edx,%eax
  8017b5:	01 c0                	add    %eax,%eax
  8017b7:	01 d8                	add    %ebx,%eax
  8017b9:	83 e8 30             	sub    $0x30,%eax
  8017bc:	89 45 d8             	mov    %eax,-0x28(%rbp)
  8017bf:	48 8b 45 98          	mov    -0x68(%rbp),%rax
  8017c3:	0f b6 00             	movzbl (%rax),%eax
  8017c6:	0f be d8             	movsbl %al,%ebx
  8017c9:	83 fb 2f             	cmp    $0x2f,%ebx
  8017cc:	7e 0c                	jle    8017da <vprintfmt+0x105>
  8017ce:	83 fb 39             	cmp    $0x39,%ebx
  8017d1:	7f 07                	jg     8017da <vprintfmt+0x105>
  8017d3:	48 83 45 98 01       	addq   $0x1,-0x68(%rbp)
  8017d8:	eb d1                	jmp    8017ab <vprintfmt+0xd6>
  8017da:	eb 58                	jmp    801834 <vprintfmt+0x15f>
  8017dc:	8b 45 b8             	mov    -0x48(%rbp),%eax
  8017df:	83 f8 30             	cmp    $0x30,%eax
  8017e2:	73 17                	jae    8017fb <vprintfmt+0x126>
  8017e4:	48 8b 55 c8          	mov    -0x38(%rbp),%rdx
  8017e8:	8b 45 b8             	mov    -0x48(%rbp),%eax
  8017eb:	89 c0                	mov    %eax,%eax
  8017ed:	48 01 d0             	add    %rdx,%rax
  8017f0:	8b 55 b8             	mov    -0x48(%rbp),%edx
  8017f3:	83 c2 08             	add    $0x8,%edx
  8017f6:	89 55 b8             	mov    %edx,-0x48(%rbp)
  8017f9:	eb 0f                	jmp    80180a <vprintfmt+0x135>
  8017fb:	48 8b 55 c0          	mov    -0x40(%rbp),%rdx
  8017ff:	48 89 d0             	mov    %rdx,%rax
  801802:	48 83 c2 08          	add    $0x8,%rdx
  801806:	48 89 55 c0          	mov    %rdx,-0x40(%rbp)
  80180a:	8b 00                	mov    (%rax),%eax
  80180c:	89 45 d8             	mov    %eax,-0x28(%rbp)
  80180f:	eb 23                	jmp    801834 <vprintfmt+0x15f>
  801811:	83 7d dc 00          	cmpl   $0x0,-0x24(%rbp)
  801815:	79 0c                	jns    801823 <vprintfmt+0x14e>
  801817:	c7 45 dc 00 00 00 00 	movl   $0x0,-0x24(%rbp)
  80181e:	e9 3b ff ff ff       	jmpq   80175e <vprintfmt+0x89>
  801823:	e9 36 ff ff ff       	jmpq   80175e <vprintfmt+0x89>
  801828:	c7 45 d4 01 00 00 00 	movl   $0x1,-0x2c(%rbp)
  80182f:	e9 2a ff ff ff       	jmpq   80175e <vprintfmt+0x89>
  801834:	83 7d dc 00          	cmpl   $0x0,-0x24(%rbp)
  801838:	79 12                	jns    80184c <vprintfmt+0x177>
  80183a:	8b 45 d8             	mov    -0x28(%rbp),%eax
  80183d:	89 45 dc             	mov    %eax,-0x24(%rbp)
  801840:	c7 45 d8 ff ff ff ff 	movl   $0xffffffff,-0x28(%rbp)
  801847:	e9 12 ff ff ff       	jmpq   80175e <vprintfmt+0x89>
  80184c:	e9 0d ff ff ff       	jmpq   80175e <vprintfmt+0x89>
  801851:	83 45 e0 01          	addl   $0x1,-0x20(%rbp)
  801855:	e9 04 ff ff ff       	jmpq   80175e <vprintfmt+0x89>
  80185a:	8b 45 b8             	mov    -0x48(%rbp),%eax
  80185d:	83 f8 30             	cmp    $0x30,%eax
  801860:	73 17                	jae    801879 <vprintfmt+0x1a4>
  801862:	48 8b 55 c8          	mov    -0x38(%rbp),%rdx
  801866:	8b 45 b8             	mov    -0x48(%rbp),%eax
  801869:	89 c0                	mov    %eax,%eax
  80186b:	48 01 d0             	add    %rdx,%rax
  80186e:	8b 55 b8             	mov    -0x48(%rbp),%edx
  801871:	83 c2 08             	add    $0x8,%edx
  801874:	89 55 b8             	mov    %edx,-0x48(%rbp)
  801877:	eb 0f                	jmp    801888 <vprintfmt+0x1b3>
  801879:	48 8b 55 c0          	mov    -0x40(%rbp),%rdx
  80187d:	48 89 d0             	mov    %rdx,%rax
  801880:	48 83 c2 08          	add    $0x8,%rdx
  801884:	48 89 55 c0          	mov    %rdx,-0x40(%rbp)
  801888:	8b 10                	mov    (%rax),%edx
  80188a:	48 8b 4d a0          	mov    -0x60(%rbp),%rcx
  80188e:	48 8b 45 a8          	mov    -0x58(%rbp),%rax
  801892:	48 89 ce             	mov    %rcx,%rsi
  801895:	89 d7                	mov    %edx,%edi
  801897:	ff d0                	callq  *%rax
  801899:	e9 40 03 00 00       	jmpq   801bde <vprintfmt+0x509>
  80189e:	8b 45 b8             	mov    -0x48(%rbp),%eax
  8018a1:	83 f8 30             	cmp    $0x30,%eax
  8018a4:	73 17                	jae    8018bd <vprintfmt+0x1e8>
  8018a6:	48 8b 55 c8          	mov    -0x38(%rbp),%rdx
  8018aa:	8b 45 b8             	mov    -0x48(%rbp),%eax
  8018ad:	89 c0                	mov    %eax,%eax
  8018af:	48 01 d0             	add    %rdx,%rax
  8018b2:	8b 55 b8             	mov    -0x48(%rbp),%edx
  8018b5:	83 c2 08             	add    $0x8,%edx
  8018b8:	89 55 b8             	mov    %edx,-0x48(%rbp)
  8018bb:	eb 0f                	jmp    8018cc <vprintfmt+0x1f7>
  8018bd:	48 8b 55 c0          	mov    -0x40(%rbp),%rdx
  8018c1:	48 89 d0             	mov    %rdx,%rax
  8018c4:	48 83 c2 08          	add    $0x8,%rdx
  8018c8:	48 89 55 c0          	mov    %rdx,-0x40(%rbp)
  8018cc:	8b 18                	mov    (%rax),%ebx
  8018ce:	85 db                	test   %ebx,%ebx
  8018d0:	79 02                	jns    8018d4 <vprintfmt+0x1ff>
  8018d2:	f7 db                	neg    %ebx
  8018d4:	83 fb 15             	cmp    $0x15,%ebx
  8018d7:	7f 16                	jg     8018ef <vprintfmt+0x21a>
  8018d9:	48 b8 80 0f 82 00 00 	movabs $0x820f80,%rax
  8018e0:	00 00 00 
  8018e3:	48 63 d3             	movslq %ebx,%rdx
  8018e6:	4c 8b 24 d0          	mov    (%rax,%rdx,8),%r12
  8018ea:	4d 85 e4             	test   %r12,%r12
  8018ed:	75 2e                	jne    80191d <vprintfmt+0x248>
  8018ef:	48 8b 75 a0          	mov    -0x60(%rbp),%rsi
  8018f3:	48 8b 45 a8          	mov    -0x58(%rbp),%rax
  8018f7:	89 d9                	mov    %ebx,%ecx
  8018f9:	48 ba 41 10 82 00 00 	movabs $0x821041,%rdx
  801900:	00 00 00 
  801903:	48 89 c7             	mov    %rax,%rdi
  801906:	b8 00 00 00 00       	mov    $0x0,%eax
  80190b:	49 b8 ed 1b 80 00 00 	movabs $0x801bed,%r8
  801912:	00 00 00 
  801915:	41 ff d0             	callq  *%r8
  801918:	e9 c1 02 00 00       	jmpq   801bde <vprintfmt+0x509>
  80191d:	48 8b 75 a0          	mov    -0x60(%rbp),%rsi
  801921:	48 8b 45 a8          	mov    -0x58(%rbp),%rax
  801925:	4c 89 e1             	mov    %r12,%rcx
  801928:	48 ba 4a 10 82 00 00 	movabs $0x82104a,%rdx
  80192f:	00 00 00 
  801932:	48 89 c7             	mov    %rax,%rdi
  801935:	b8 00 00 00 00       	mov    $0x0,%eax
  80193a:	49 b8 ed 1b 80 00 00 	movabs $0x801bed,%r8
  801941:	00 00 00 
  801944:	41 ff d0             	callq  *%r8
  801947:	e9 92 02 00 00       	jmpq   801bde <vprintfmt+0x509>
  80194c:	8b 45 b8             	mov    -0x48(%rbp),%eax
  80194f:	83 f8 30             	cmp    $0x30,%eax
  801952:	73 17                	jae    80196b <vprintfmt+0x296>
  801954:	48 8b 55 c8          	mov    -0x38(%rbp),%rdx
  801958:	8b 45 b8             	mov    -0x48(%rbp),%eax
  80195b:	89 c0                	mov    %eax,%eax
  80195d:	48 01 d0             	add    %rdx,%rax
  801960:	8b 55 b8             	mov    -0x48(%rbp),%edx
  801963:	83 c2 08             	add    $0x8,%edx
  801966:	89 55 b8             	mov    %edx,-0x48(%rbp)
  801969:	eb 0f                	jmp    80197a <vprintfmt+0x2a5>
  80196b:	48 8b 55 c0          	mov    -0x40(%rbp),%rdx
  80196f:	48 89 d0             	mov    %rdx,%rax
  801972:	48 83 c2 08          	add    $0x8,%rdx
  801976:	48 89 55 c0          	mov    %rdx,-0x40(%rbp)
  80197a:	4c 8b 20             	mov    (%rax),%r12
  80197d:	4d 85 e4             	test   %r12,%r12
  801980:	75 0a                	jne    80198c <vprintfmt+0x2b7>
  801982:	49 bc 4d 10 82 00 00 	movabs $0x82104d,%r12
  801989:	00 00 00 
  80198c:	83 7d dc 00          	cmpl   $0x0,-0x24(%rbp)
  801990:	7e 3f                	jle    8019d1 <vprintfmt+0x2fc>
  801992:	80 7d d3 2d          	cmpb   $0x2d,-0x2d(%rbp)
  801996:	74 39                	je     8019d1 <vprintfmt+0x2fc>
  801998:	8b 45 d8             	mov    -0x28(%rbp),%eax
  80199b:	48 98                	cltq   
  80199d:	48 89 c6             	mov    %rax,%rsi
  8019a0:	4c 89 e7             	mov    %r12,%rdi
  8019a3:	48 b8 99 1e 80 00 00 	movabs $0x801e99,%rax
  8019aa:	00 00 00 
  8019ad:	ff d0                	callq  *%rax
  8019af:	29 45 dc             	sub    %eax,-0x24(%rbp)
  8019b2:	eb 17                	jmp    8019cb <vprintfmt+0x2f6>
  8019b4:	0f be 55 d3          	movsbl -0x2d(%rbp),%edx
  8019b8:	48 8b 4d a0          	mov    -0x60(%rbp),%rcx
  8019bc:	48 8b 45 a8          	mov    -0x58(%rbp),%rax
  8019c0:	48 89 ce             	mov    %rcx,%rsi
  8019c3:	89 d7                	mov    %edx,%edi
  8019c5:	ff d0                	callq  *%rax
  8019c7:	83 6d dc 01          	subl   $0x1,-0x24(%rbp)
  8019cb:	83 7d dc 00          	cmpl   $0x0,-0x24(%rbp)
  8019cf:	7f e3                	jg     8019b4 <vprintfmt+0x2df>
  8019d1:	eb 37                	jmp    801a0a <vprintfmt+0x335>
  8019d3:	83 7d d4 00          	cmpl   $0x0,-0x2c(%rbp)
  8019d7:	74 1e                	je     8019f7 <vprintfmt+0x322>
  8019d9:	83 fb 1f             	cmp    $0x1f,%ebx
  8019dc:	7e 05                	jle    8019e3 <vprintfmt+0x30e>
  8019de:	83 fb 7e             	cmp    $0x7e,%ebx
  8019e1:	7e 14                	jle    8019f7 <vprintfmt+0x322>
  8019e3:	48 8b 55 a0          	mov    -0x60(%rbp),%rdx
  8019e7:	48 8b 45 a8          	mov    -0x58(%rbp),%rax
  8019eb:	48 89 d6             	mov    %rdx,%rsi
  8019ee:	bf 3f 00 00 00       	mov    $0x3f,%edi
  8019f3:	ff d0                	callq  *%rax
  8019f5:	eb 0f                	jmp    801a06 <vprintfmt+0x331>
  8019f7:	48 8b 55 a0          	mov    -0x60(%rbp),%rdx
  8019fb:	48 8b 45 a8          	mov    -0x58(%rbp),%rax
  8019ff:	48 89 d6             	mov    %rdx,%rsi
  801a02:	89 df                	mov    %ebx,%edi
  801a04:	ff d0                	callq  *%rax
  801a06:	83 6d dc 01          	subl   $0x1,-0x24(%rbp)
  801a0a:	4c 89 e0             	mov    %r12,%rax
  801a0d:	4c 8d 60 01          	lea    0x1(%rax),%r12
  801a11:	0f b6 00             	movzbl (%rax),%eax
  801a14:	0f be d8             	movsbl %al,%ebx
  801a17:	85 db                	test   %ebx,%ebx
  801a19:	74 10                	je     801a2b <vprintfmt+0x356>
  801a1b:	83 7d d8 00          	cmpl   $0x0,-0x28(%rbp)
  801a1f:	78 b2                	js     8019d3 <vprintfmt+0x2fe>
  801a21:	83 6d d8 01          	subl   $0x1,-0x28(%rbp)
  801a25:	83 7d d8 00          	cmpl   $0x0,-0x28(%rbp)
  801a29:	79 a8                	jns    8019d3 <vprintfmt+0x2fe>
  801a2b:	eb 16                	jmp    801a43 <vprintfmt+0x36e>
  801a2d:	48 8b 55 a0          	mov    -0x60(%rbp),%rdx
  801a31:	48 8b 45 a8          	mov    -0x58(%rbp),%rax
  801a35:	48 89 d6             	mov    %rdx,%rsi
  801a38:	bf 20 00 00 00       	mov    $0x20,%edi
  801a3d:	ff d0                	callq  *%rax
  801a3f:	83 6d dc 01          	subl   $0x1,-0x24(%rbp)
  801a43:	83 7d dc 00          	cmpl   $0x0,-0x24(%rbp)
  801a47:	7f e4                	jg     801a2d <vprintfmt+0x358>
  801a49:	e9 90 01 00 00       	jmpq   801bde <vprintfmt+0x509>
  801a4e:	48 8d 45 b8          	lea    -0x48(%rbp),%rax
  801a52:	be 03 00 00 00       	mov    $0x3,%esi
  801a57:	48 89 c7             	mov    %rax,%rdi
  801a5a:	48 b8 c5 15 80 00 00 	movabs $0x8015c5,%rax
  801a61:	00 00 00 
  801a64:	ff d0                	callq  *%rax
  801a66:	48 89 45 e8          	mov    %rax,-0x18(%rbp)
  801a6a:	48 8b 45 e8          	mov    -0x18(%rbp),%rax
  801a6e:	48 85 c0             	test   %rax,%rax
  801a71:	79 1d                	jns    801a90 <vprintfmt+0x3bb>
  801a73:	48 8b 55 a0          	mov    -0x60(%rbp),%rdx
  801a77:	48 8b 45 a8          	mov    -0x58(%rbp),%rax
  801a7b:	48 89 d6             	mov    %rdx,%rsi
  801a7e:	bf 2d 00 00 00       	mov    $0x2d,%edi
  801a83:	ff d0                	callq  *%rax
  801a85:	48 8b 45 e8          	mov    -0x18(%rbp),%rax
  801a89:	48 f7 d8             	neg    %rax
  801a8c:	48 89 45 e8          	mov    %rax,-0x18(%rbp)
  801a90:	c7 45 e4 0a 00 00 00 	movl   $0xa,-0x1c(%rbp)
  801a97:	e9 d5 00 00 00       	jmpq   801b71 <vprintfmt+0x49c>
  801a9c:	48 8d 45 b8          	lea    -0x48(%rbp),%rax
  801aa0:	be 03 00 00 00       	mov    $0x3,%esi
  801aa5:	48 89 c7             	mov    %rax,%rdi
  801aa8:	48 b8 b5 14 80 00 00 	movabs $0x8014b5,%rax
  801aaf:	00 00 00 
  801ab2:	ff d0                	callq  *%rax
  801ab4:	48 89 45 e8          	mov    %rax,-0x18(%rbp)
  801ab8:	c7 45 e4 0a 00 00 00 	movl   $0xa,-0x1c(%rbp)
  801abf:	e9 ad 00 00 00       	jmpq   801b71 <vprintfmt+0x49c>
  801ac4:	48 8d 45 b8          	lea    -0x48(%rbp),%rax
  801ac8:	be 03 00 00 00       	mov    $0x3,%esi
  801acd:	48 89 c7             	mov    %rax,%rdi
  801ad0:	48 b8 b5 14 80 00 00 	movabs $0x8014b5,%rax
  801ad7:	00 00 00 
  801ada:	ff d0                	callq  *%rax
  801adc:	48 89 45 e8          	mov    %rax,-0x18(%rbp)
  801ae0:	c7 45 e4 08 00 00 00 	movl   $0x8,-0x1c(%rbp)
  801ae7:	e9 85 00 00 00       	jmpq   801b71 <vprintfmt+0x49c>
  801aec:	48 8b 55 a0          	mov    -0x60(%rbp),%rdx
  801af0:	48 8b 45 a8          	mov    -0x58(%rbp),%rax
  801af4:	48 89 d6             	mov    %rdx,%rsi
  801af7:	bf 30 00 00 00       	mov    $0x30,%edi
  801afc:	ff d0                	callq  *%rax
  801afe:	48 8b 55 a0          	mov    -0x60(%rbp),%rdx
  801b02:	48 8b 45 a8          	mov    -0x58(%rbp),%rax
  801b06:	48 89 d6             	mov    %rdx,%rsi
  801b09:	bf 78 00 00 00       	mov    $0x78,%edi
  801b0e:	ff d0                	callq  *%rax
  801b10:	8b 45 b8             	mov    -0x48(%rbp),%eax
  801b13:	83 f8 30             	cmp    $0x30,%eax
  801b16:	73 17                	jae    801b2f <vprintfmt+0x45a>
  801b18:	48 8b 55 c8          	mov    -0x38(%rbp),%rdx
  801b1c:	8b 45 b8             	mov    -0x48(%rbp),%eax
  801b1f:	89 c0                	mov    %eax,%eax
  801b21:	48 01 d0             	add    %rdx,%rax
  801b24:	8b 55 b8             	mov    -0x48(%rbp),%edx
  801b27:	83 c2 08             	add    $0x8,%edx
  801b2a:	89 55 b8             	mov    %edx,-0x48(%rbp)
  801b2d:	eb 0f                	jmp    801b3e <vprintfmt+0x469>
  801b2f:	48 8b 55 c0          	mov    -0x40(%rbp),%rdx
  801b33:	48 89 d0             	mov    %rdx,%rax
  801b36:	48 83 c2 08          	add    $0x8,%rdx
  801b3a:	48 89 55 c0          	mov    %rdx,-0x40(%rbp)
  801b3e:	48 8b 00             	mov    (%rax),%rax
  801b41:	48 89 45 e8          	mov    %rax,-0x18(%rbp)
  801b45:	c7 45 e4 10 00 00 00 	movl   $0x10,-0x1c(%rbp)
  801b4c:	eb 23                	jmp    801b71 <vprintfmt+0x49c>
  801b4e:	48 8d 45 b8          	lea    -0x48(%rbp),%rax
  801b52:	be 03 00 00 00       	mov    $0x3,%esi
  801b57:	48 89 c7             	mov    %rax,%rdi
  801b5a:	48 b8 b5 14 80 00 00 	movabs $0x8014b5,%rax
  801b61:	00 00 00 
  801b64:	ff d0                	callq  *%rax
  801b66:	48 89 45 e8          	mov    %rax,-0x18(%rbp)
  801b6a:	c7 45 e4 10 00 00 00 	movl   $0x10,-0x1c(%rbp)
  801b71:	44 0f be 45 d3       	movsbl -0x2d(%rbp),%r8d
  801b76:	8b 4d e4             	mov    -0x1c(%rbp),%ecx
  801b79:	8b 7d dc             	mov    -0x24(%rbp),%edi
  801b7c:	48 8b 55 e8          	mov    -0x18(%rbp),%rdx
  801b80:	48 8b 75 a0          	mov    -0x60(%rbp),%rsi
  801b84:	48 8b 45 a8          	mov    -0x58(%rbp),%rax
  801b88:	45 89 c1             	mov    %r8d,%r9d
  801b8b:	41 89 f8             	mov    %edi,%r8d
  801b8e:	48 89 c7             	mov    %rax,%rdi
  801b91:	48 b8 fa 13 80 00 00 	movabs $0x8013fa,%rax
  801b98:	00 00 00 
  801b9b:	ff d0                	callq  *%rax
  801b9d:	eb 3f                	jmp    801bde <vprintfmt+0x509>
  801b9f:	48 8b 55 a0          	mov    -0x60(%rbp),%rdx
  801ba3:	48 8b 45 a8          	mov    -0x58(%rbp),%rax
  801ba7:	48 89 d6             	mov    %rdx,%rsi
  801baa:	89 df                	mov    %ebx,%edi
  801bac:	ff d0                	callq  *%rax
  801bae:	eb 2e                	jmp    801bde <vprintfmt+0x509>
  801bb0:	48 8b 55 a0          	mov    -0x60(%rbp),%rdx
  801bb4:	48 8b 45 a8          	mov    -0x58(%rbp),%rax
  801bb8:	48 89 d6             	mov    %rdx,%rsi
  801bbb:	bf 25 00 00 00       	mov    $0x25,%edi
  801bc0:	ff d0                	callq  *%rax
  801bc2:	48 83 6d 98 01       	subq   $0x1,-0x68(%rbp)
  801bc7:	eb 05                	jmp    801bce <vprintfmt+0x4f9>
  801bc9:	48 83 6d 98 01       	subq   $0x1,-0x68(%rbp)
  801bce:	48 8b 45 98          	mov    -0x68(%rbp),%rax
  801bd2:	48 83 e8 01          	sub    $0x1,%rax
  801bd6:	0f b6 00             	movzbl (%rax),%eax
  801bd9:	3c 25                	cmp    $0x25,%al
  801bdb:	75 ec                	jne    801bc9 <vprintfmt+0x4f4>
  801bdd:	90                   	nop
  801bde:	90                   	nop
  801bdf:	e9 43 fb ff ff       	jmpq   801727 <vprintfmt+0x52>
  801be4:	48 83 c4 60          	add    $0x60,%rsp
  801be8:	5b                   	pop    %rbx
  801be9:	41 5c                	pop    %r12
  801beb:	5d                   	pop    %rbp
  801bec:	c3                   	retq   

0000000000801bed <printfmt>:
  801bed:	55                   	push   %rbp
  801bee:	48 89 e5             	mov    %rsp,%rbp
  801bf1:	48 81 ec f0 00 00 00 	sub    $0xf0,%rsp
  801bf8:	48 89 bd 28 ff ff ff 	mov    %rdi,-0xd8(%rbp)
  801bff:	48 89 b5 20 ff ff ff 	mov    %rsi,-0xe0(%rbp)
  801c06:	48 89 8d 68 ff ff ff 	mov    %rcx,-0x98(%rbp)
  801c0d:	4c 89 85 70 ff ff ff 	mov    %r8,-0x90(%rbp)
  801c14:	4c 89 8d 78 ff ff ff 	mov    %r9,-0x88(%rbp)
  801c1b:	84 c0                	test   %al,%al
  801c1d:	74 20                	je     801c3f <printfmt+0x52>
  801c1f:	0f 29 45 80          	movaps %xmm0,-0x80(%rbp)
  801c23:	0f 29 4d 90          	movaps %xmm1,-0x70(%rbp)
  801c27:	0f 29 55 a0          	movaps %xmm2,-0x60(%rbp)
  801c2b:	0f 29 5d b0          	movaps %xmm3,-0x50(%rbp)
  801c2f:	0f 29 65 c0          	movaps %xmm4,-0x40(%rbp)
  801c33:	0f 29 6d d0          	movaps %xmm5,-0x30(%rbp)
  801c37:	0f 29 75 e0          	movaps %xmm6,-0x20(%rbp)
  801c3b:	0f 29 7d f0          	movaps %xmm7,-0x10(%rbp)
  801c3f:	48 89 95 18 ff ff ff 	mov    %rdx,-0xe8(%rbp)
  801c46:	c7 85 38 ff ff ff 18 	movl   $0x18,-0xc8(%rbp)
  801c4d:	00 00 00 
  801c50:	c7 85 3c ff ff ff 30 	movl   $0x30,-0xc4(%rbp)
  801c57:	00 00 00 
  801c5a:	48 8d 45 10          	lea    0x10(%rbp),%rax
  801c5e:	48 89 85 40 ff ff ff 	mov    %rax,-0xc0(%rbp)
  801c65:	48 8d 85 50 ff ff ff 	lea    -0xb0(%rbp),%rax
  801c6c:	48 89 85 48 ff ff ff 	mov    %rax,-0xb8(%rbp)
  801c73:	48 8d 8d 38 ff ff ff 	lea    -0xc8(%rbp),%rcx
  801c7a:	48 8b 95 18 ff ff ff 	mov    -0xe8(%rbp),%rdx
  801c81:	48 8b b5 20 ff ff ff 	mov    -0xe0(%rbp),%rsi
  801c88:	48 8b 85 28 ff ff ff 	mov    -0xd8(%rbp),%rax
  801c8f:	48 89 c7             	mov    %rax,%rdi
  801c92:	48 b8 d5 16 80 00 00 	movabs $0x8016d5,%rax
  801c99:	00 00 00 
  801c9c:	ff d0                	callq  *%rax
  801c9e:	c9                   	leaveq 
  801c9f:	c3                   	retq   

0000000000801ca0 <sprintputch>:
  801ca0:	55                   	push   %rbp
  801ca1:	48 89 e5             	mov    %rsp,%rbp
  801ca4:	48 83 ec 10          	sub    $0x10,%rsp
  801ca8:	89 7d fc             	mov    %edi,-0x4(%rbp)
  801cab:	48 89 75 f0          	mov    %rsi,-0x10(%rbp)
  801caf:	48 8b 45 f0          	mov    -0x10(%rbp),%rax
  801cb3:	8b 40 10             	mov    0x10(%rax),%eax
  801cb6:	8d 50 01             	lea    0x1(%rax),%edx
  801cb9:	48 8b 45 f0          	mov    -0x10(%rbp),%rax
  801cbd:	89 50 10             	mov    %edx,0x10(%rax)
  801cc0:	48 8b 45 f0          	mov    -0x10(%rbp),%rax
  801cc4:	48 8b 10             	mov    (%rax),%rdx
  801cc7:	48 8b 45 f0          	mov    -0x10(%rbp),%rax
  801ccb:	48 8b 40 08          	mov    0x8(%rax),%rax
  801ccf:	48 39 c2             	cmp    %rax,%rdx
  801cd2:	73 17                	jae    801ceb <sprintputch+0x4b>
  801cd4:	48 8b 45 f0          	mov    -0x10(%rbp),%rax
  801cd8:	48 8b 00             	mov    (%rax),%rax
  801cdb:	48 8d 48 01          	lea    0x1(%rax),%rcx
  801cdf:	48 8b 55 f0          	mov    -0x10(%rbp),%rdx
  801ce3:	48 89 0a             	mov    %rcx,(%rdx)
  801ce6:	8b 55 fc             	mov    -0x4(%rbp),%edx
  801ce9:	88 10                	mov    %dl,(%rax)
  801ceb:	c9                   	leaveq 
  801cec:	c3                   	retq   

0000000000801ced <vsnprintf>:
  801ced:	55                   	push   %rbp
  801cee:	48 89 e5             	mov    %rsp,%rbp
  801cf1:	48 83 ec 50          	sub    $0x50,%rsp
  801cf5:	48 89 7d c8          	mov    %rdi,-0x38(%rbp)
  801cf9:	89 75 c4             	mov    %esi,-0x3c(%rbp)
  801cfc:	48 89 55 b8          	mov    %rdx,-0x48(%rbp)
  801d00:	48 89 4d b0          	mov    %rcx,-0x50(%rbp)
  801d04:	48 8d 45 e8          	lea    -0x18(%rbp),%rax
  801d08:	48 8b 55 b0          	mov    -0x50(%rbp),%rdx
  801d0c:	48 8b 0a             	mov    (%rdx),%rcx
  801d0f:	48 89 08             	mov    %rcx,(%rax)
  801d12:	48 8b 4a 08          	mov    0x8(%rdx),%rcx
  801d16:	48 89 48 08          	mov    %rcx,0x8(%rax)
  801d1a:	48 8b 52 10          	mov    0x10(%rdx),%rdx
  801d1e:	48 89 50 10          	mov    %rdx,0x10(%rax)
  801d22:	48 8b 45 c8          	mov    -0x38(%rbp),%rax
  801d26:	48 89 45 d0          	mov    %rax,-0x30(%rbp)
  801d2a:	8b 45 c4             	mov    -0x3c(%rbp),%eax
  801d2d:	48 98                	cltq   
  801d2f:	48 8d 50 ff          	lea    -0x1(%rax),%rdx
  801d33:	48 8b 45 c8          	mov    -0x38(%rbp),%rax
  801d37:	48 01 d0             	add    %rdx,%rax
  801d3a:	48 89 45 d8          	mov    %rax,-0x28(%rbp)
  801d3e:	c7 45 e0 00 00 00 00 	movl   $0x0,-0x20(%rbp)
  801d45:	48 83 7d c8 00       	cmpq   $0x0,-0x38(%rbp)
  801d4a:	74 06                	je     801d52 <vsnprintf+0x65>
  801d4c:	83 7d c4 00          	cmpl   $0x0,-0x3c(%rbp)
  801d50:	7f 07                	jg     801d59 <vsnprintf+0x6c>
  801d52:	b8 fd ff ff ff       	mov    $0xfffffffd,%eax
  801d57:	eb 2f                	jmp    801d88 <vsnprintf+0x9b>
  801d59:	48 8d 4d e8          	lea    -0x18(%rbp),%rcx
  801d5d:	48 8b 55 b8          	mov    -0x48(%rbp),%rdx
  801d61:	48 8d 45 d0          	lea    -0x30(%rbp),%rax
  801d65:	48 89 c6             	mov    %rax,%rsi
  801d68:	48 bf a0 1c 80 00 00 	movabs $0x801ca0,%rdi
  801d6f:	00 00 00 
  801d72:	48 b8 d5 16 80 00 00 	movabs $0x8016d5,%rax
  801d79:	00 00 00 
  801d7c:	ff d0                	callq  *%rax
  801d7e:	48 8b 45 d0          	mov    -0x30(%rbp),%rax
  801d82:	c6 00 00             	movb   $0x0,(%rax)
  801d85:	8b 45 e0             	mov    -0x20(%rbp),%eax
  801d88:	c9                   	leaveq 
  801d89:	c3                   	retq   

0000000000801d8a <snprintf>:
  801d8a:	55                   	push   %rbp
  801d8b:	48 89 e5             	mov    %rsp,%rbp
  801d8e:	48 81 ec 10 01 00 00 	sub    $0x110,%rsp
  801d95:	48 89 bd 08 ff ff ff 	mov    %rdi,-0xf8(%rbp)
  801d9c:	89 b5 04 ff ff ff    	mov    %esi,-0xfc(%rbp)
  801da2:	48 89 8d 68 ff ff ff 	mov    %rcx,-0x98(%rbp)
  801da9:	4c 89 85 70 ff ff ff 	mov    %r8,-0x90(%rbp)
  801db0:	4c 89 8d 78 ff ff ff 	mov    %r9,-0x88(%rbp)
  801db7:	84 c0                	test   %al,%al
  801db9:	74 20                	je     801ddb <snprintf+0x51>
  801dbb:	0f 29 45 80          	movaps %xmm0,-0x80(%rbp)
  801dbf:	0f 29 4d 90          	movaps %xmm1,-0x70(%rbp)
  801dc3:	0f 29 55 a0          	movaps %xmm2,-0x60(%rbp)
  801dc7:	0f 29 5d b0          	movaps %xmm3,-0x50(%rbp)
  801dcb:	0f 29 65 c0          	movaps %xmm4,-0x40(%rbp)
  801dcf:	0f 29 6d d0          	movaps %xmm5,-0x30(%rbp)
  801dd3:	0f 29 75 e0          	movaps %xmm6,-0x20(%rbp)
  801dd7:	0f 29 7d f0          	movaps %xmm7,-0x10(%rbp)
  801ddb:	48 89 95 f8 fe ff ff 	mov    %rdx,-0x108(%rbp)
  801de2:	c7 85 30 ff ff ff 18 	movl   $0x18,-0xd0(%rbp)
  801de9:	00 00 00 
  801dec:	c7 85 34 ff ff ff 30 	movl   $0x30,-0xcc(%rbp)
  801df3:	00 00 00 
  801df6:	48 8d 45 10          	lea    0x10(%rbp),%rax
  801dfa:	48 89 85 38 ff ff ff 	mov    %rax,-0xc8(%rbp)
  801e01:	48 8d 85 50 ff ff ff 	lea    -0xb0(%rbp),%rax
  801e08:	48 89 85 40 ff ff ff 	mov    %rax,-0xc0(%rbp)
  801e0f:	48 8d 85 18 ff ff ff 	lea    -0xe8(%rbp),%rax
  801e16:	48 8d 95 30 ff ff ff 	lea    -0xd0(%rbp),%rdx
  801e1d:	48 8b 0a             	mov    (%rdx),%rcx
  801e20:	48 89 08             	mov    %rcx,(%rax)
  801e23:	48 8b 4a 08          	mov    0x8(%rdx),%rcx
  801e27:	48 89 48 08          	mov    %rcx,0x8(%rax)
  801e2b:	48 8b 52 10          	mov    0x10(%rdx),%rdx
  801e2f:	48 89 50 10          	mov    %rdx,0x10(%rax)
  801e33:	48 8d 8d 18 ff ff ff 	lea    -0xe8(%rbp),%rcx
  801e3a:	48 8b 95 f8 fe ff ff 	mov    -0x108(%rbp),%rdx
  801e41:	8b b5 04 ff ff ff    	mov    -0xfc(%rbp),%esi
  801e47:	48 8b 85 08 ff ff ff 	mov    -0xf8(%rbp),%rax
  801e4e:	48 89 c7             	mov    %rax,%rdi
  801e51:	48 b8 ed 1c 80 00 00 	movabs $0x801ced,%rax
  801e58:	00 00 00 
  801e5b:	ff d0                	callq  *%rax
  801e5d:	89 85 4c ff ff ff    	mov    %eax,-0xb4(%rbp)
  801e63:	8b 85 4c ff ff ff    	mov    -0xb4(%rbp),%eax
  801e69:	c9                   	leaveq 
  801e6a:	c3                   	retq   

0000000000801e6b <strlen>:
  801e6b:	55                   	push   %rbp
  801e6c:	48 89 e5             	mov    %rsp,%rbp
  801e6f:	48 83 ec 18          	sub    $0x18,%rsp
  801e73:	48 89 7d e8          	mov    %rdi,-0x18(%rbp)
  801e77:	c7 45 fc 00 00 00 00 	movl   $0x0,-0x4(%rbp)
  801e7e:	eb 09                	jmp    801e89 <strlen+0x1e>
  801e80:	83 45 fc 01          	addl   $0x1,-0x4(%rbp)
  801e84:	48 83 45 e8 01       	addq   $0x1,-0x18(%rbp)
  801e89:	48 8b 45 e8          	mov    -0x18(%rbp),%rax
  801e8d:	0f b6 00             	movzbl (%rax),%eax
  801e90:	84 c0                	test   %al,%al
  801e92:	75 ec                	jne    801e80 <strlen+0x15>
  801e94:	8b 45 fc             	mov    -0x4(%rbp),%eax
  801e97:	c9                   	leaveq 
  801e98:	c3                   	retq   

0000000000801e99 <strnlen>:
  801e99:	55                   	push   %rbp
  801e9a:	48 89 e5             	mov    %rsp,%rbp
  801e9d:	48 83 ec 20          	sub    $0x20,%rsp
  801ea1:	48 89 7d e8          	mov    %rdi,-0x18(%rbp)
  801ea5:	48 89 75 e0          	mov    %rsi,-0x20(%rbp)
  801ea9:	c7 45 fc 00 00 00 00 	movl   $0x0,-0x4(%rbp)
  801eb0:	eb 0e                	jmp    801ec0 <strnlen+0x27>
  801eb2:	83 45 fc 01          	addl   $0x1,-0x4(%rbp)
  801eb6:	48 83 45 e8 01       	addq   $0x1,-0x18(%rbp)
  801ebb:	48 83 6d e0 01       	subq   $0x1,-0x20(%rbp)
  801ec0:	48 83 7d e0 00       	cmpq   $0x0,-0x20(%rbp)
  801ec5:	74 0b                	je     801ed2 <strnlen+0x39>
  801ec7:	48 8b 45 e8          	mov    -0x18(%rbp),%rax
  801ecb:	0f b6 00             	movzbl (%rax),%eax
  801ece:	84 c0                	test   %al,%al
  801ed0:	75 e0                	jne    801eb2 <strnlen+0x19>
  801ed2:	8b 45 fc             	mov    -0x4(%rbp),%eax
  801ed5:	c9                   	leaveq 
  801ed6:	c3                   	retq   

0000000000801ed7 <strcpy>:
  801ed7:	55                   	push   %rbp
  801ed8:	48 89 e5             	mov    %rsp,%rbp
  801edb:	48 83 ec 20          	sub    $0x20,%rsp
  801edf:	48 89 7d e8          	mov    %rdi,-0x18(%rbp)
  801ee3:	48 89 75 e0          	mov    %rsi,-0x20(%rbp)
  801ee7:	48 8b 45 e8          	mov    -0x18(%rbp),%rax
  801eeb:	48 89 45 f8          	mov    %rax,-0x8(%rbp)
  801eef:	90                   	nop
  801ef0:	48 8b 45 e8          	mov    -0x18(%rbp),%rax
  801ef4:	48 8d 50 01          	lea    0x1(%rax),%rdx
  801ef8:	48 89 55 e8          	mov    %rdx,-0x18(%rbp)
  801efc:	48 8b 55 e0          	mov    -0x20(%rbp),%rdx
  801f00:	48 8d 4a 01          	lea    0x1(%rdx),%rcx
  801f04:	48 89 4d e0          	mov    %rcx,-0x20(%rbp)
  801f08:	0f b6 12             	movzbl (%rdx),%edx
  801f0b:	88 10                	mov    %dl,(%rax)
  801f0d:	0f b6 00             	movzbl (%rax),%eax
  801f10:	84 c0                	test   %al,%al
  801f12:	75 dc                	jne    801ef0 <strcpy+0x19>
  801f14:	48 8b 45 f8          	mov    -0x8(%rbp),%rax
  801f18:	c9                   	leaveq 
  801f19:	c3                   	retq   

0000000000801f1a <strcat>:
  801f1a:	55                   	push   %rbp
  801f1b:	48 89 e5             	mov    %rsp,%rbp
  801f1e:	48 83 ec 20          	sub    $0x20,%rsp
  801f22:	48 89 7d e8          	mov    %rdi,-0x18(%rbp)
  801f26:	48 89 75 e0          	mov    %rsi,-0x20(%rbp)
  801f2a:	48 8b 45 e8          	mov    -0x18(%rbp),%rax
  801f2e:	48 89 c7             	mov    %rax,%rdi
  801f31:	48 b8 6b 1e 80 00 00 	movabs $0x801e6b,%rax
  801f38:	00 00 00 
  801f3b:	ff d0                	callq  *%rax
  801f3d:	89 45 fc             	mov    %eax,-0x4(%rbp)
  801f40:	8b 45 fc             	mov    -0x4(%rbp),%eax
  801f43:	48 63 d0             	movslq %eax,%rdx
  801f46:	48 8b 45 e8          	mov    -0x18(%rbp),%rax
  801f4a:	48 01 c2             	add    %rax,%rdx
  801f4d:	48 8b 45 e0          	mov    -0x20(%rbp),%rax
  801f51:	48 89 c6             	mov    %rax,%rsi
  801f54:	48 89 d7             	mov    %rdx,%rdi
  801f57:	48 b8 d7 1e 80 00 00 	movabs $0x801ed7,%rax
  801f5e:	00 00 00 
  801f61:	ff d0                	callq  *%rax
  801f63:	48 8b 45 e8          	mov    -0x18(%rbp),%rax
  801f67:	c9                   	leaveq 
  801f68:	c3                   	retq   

0000000000801f69 <strncpy>:
  801f69:	55                   	push   %rbp
  801f6a:	48 89 e5             	mov    %rsp,%rbp
  801f6d:	48 83 ec 28          	sub    $0x28,%rsp
  801f71:	48 89 7d e8          	mov    %rdi,-0x18(%rbp)
  801f75:	48 89 75 e0          	mov    %rsi,-0x20(%rbp)
  801f79:	48 89 55 d8          	mov    %rdx,-0x28(%rbp)
  801f7d:	48 8b 45 e8          	mov    -0x18(%rbp),%rax
  801f81:	48 89 45 f0          	mov    %rax,-0x10(%rbp)
  801f85:	48 c7 45 f8 00 00 00 	movq   $0x0,-0x8(%rbp)
  801f8c:	00 
  801f8d:	eb 2a                	jmp    801fb9 <strncpy+0x50>
  801f8f:	48 8b 45 e8          	mov    -0x18(%rbp),%rax
  801f93:	48 8d 50 01          	lea    0x1(%rax),%rdx
  801f97:	48 89 55 e8          	mov    %rdx,-0x18(%rbp)
  801f9b:	48 8b 55 e0          	mov    -0x20(%rbp),%rdx
  801f9f:	0f b6 12             	movzbl (%rdx),%edx
  801fa2:	88 10                	mov    %dl,(%rax)
  801fa4:	48 8b 45 e0          	mov    -0x20(%rbp),%rax
  801fa8:	0f b6 00             	movzbl (%rax),%eax
  801fab:	84 c0                	test   %al,%al
  801fad:	74 05                	je     801fb4 <strncpy+0x4b>
  801faf:	48 83 45 e0 01       	addq   $0x1,-0x20(%rbp)
  801fb4:	48 83 45 f8 01       	addq   $0x1,-0x8(%rbp)
  801fb9:	48 8b 45 f8          	mov    -0x8(%rbp),%rax
  801fbd:	48 3b 45 d8          	cmp    -0x28(%rbp),%rax
  801fc1:	72 cc                	jb     801f8f <strncpy+0x26>
  801fc3:	48 8b 45 f0          	mov    -0x10(%rbp),%rax
  801fc7:	c9                   	leaveq 
  801fc8:	c3                   	retq   

0000000000801fc9 <strlcpy>:
  801fc9:	55                   	push   %rbp
  801fca:	48 89 e5             	mov    %rsp,%rbp
  801fcd:	48 83 ec 28          	sub    $0x28,%rsp
  801fd1:	48 89 7d e8          	mov    %rdi,-0x18(%rbp)
  801fd5:	48 89 75 e0          	mov    %rsi,-0x20(%rbp)
  801fd9:	48 89 55 d8          	mov    %rdx,-0x28(%rbp)
  801fdd:	48 8b 45 e8          	mov    -0x18(%rbp),%rax
  801fe1:	48 89 45 f8          	mov    %rax,-0x8(%rbp)
  801fe5:	48 83 7d d8 00       	cmpq   $0x0,-0x28(%rbp)
  801fea:	74 3d                	je     802029 <strlcpy+0x60>
  801fec:	eb 1d                	jmp    80200b <strlcpy+0x42>
  801fee:	48 8b 45 e8          	mov    -0x18(%rbp),%rax
  801ff2:	48 8d 50 01          	lea    0x1(%rax),%rdx
  801ff6:	48 89 55 e8          	mov    %rdx,-0x18(%rbp)
  801ffa:	48 8b 55 e0          	mov    -0x20(%rbp),%rdx
  801ffe:	48 8d 4a 01          	lea    0x1(%rdx),%rcx
  802002:	48 89 4d e0          	mov    %rcx,-0x20(%rbp)
  802006:	0f b6 12             	movzbl (%rdx),%edx
  802009:	88 10                	mov    %dl,(%rax)
  80200b:	48 83 6d d8 01       	subq   $0x1,-0x28(%rbp)
  802010:	48 83 7d d8 00       	cmpq   $0x0,-0x28(%rbp)
  802015:	74 0b                	je     802022 <strlcpy+0x59>
  802017:	48 8b 45 e0          	mov    -0x20(%rbp),%rax
  80201b:	0f b6 00             	movzbl (%rax),%eax
  80201e:	84 c0                	test   %al,%al
  802020:	75 cc                	jne    801fee <strlcpy+0x25>
  802022:	48 8b 45 e8          	mov    -0x18(%rbp),%rax
  802026:	c6 00 00             	movb   $0x0,(%rax)
  802029:	48 8b 55 e8          	mov    -0x18(%rbp),%rdx
  80202d:	48 8b 45 f8          	mov    -0x8(%rbp),%rax
  802031:	48 29 c2             	sub    %rax,%rdx
  802034:	48 89 d0             	mov    %rdx,%rax
  802037:	c9                   	leaveq 
  802038:	c3                   	retq   

0000000000802039 <strcmp>:
  802039:	55                   	push   %rbp
  80203a:	48 89 e5             	mov    %rsp,%rbp
  80203d:	48 83 ec 10          	sub    $0x10,%rsp
  802041:	48 89 7d f8          	mov    %rdi,-0x8(%rbp)
  802045:	48 89 75 f0          	mov    %rsi,-0x10(%rbp)
  802049:	eb 0a                	jmp    802055 <strcmp+0x1c>
  80204b:	48 83 45 f8 01       	addq   $0x1,-0x8(%rbp)
  802050:	48 83 45 f0 01       	addq   $0x1,-0x10(%rbp)
  802055:	48 8b 45 f8          	mov    -0x8(%rbp),%rax
  802059:	0f b6 00             	movzbl (%rax),%eax
  80205c:	84 c0                	test   %al,%al
  80205e:	74 12                	je     802072 <strcmp+0x39>
  802060:	48 8b 45 f8          	mov    -0x8(%rbp),%rax
  802064:	0f b6 10             	movzbl (%rax),%edx
  802067:	48 8b 45 f0          	mov    -0x10(%rbp),%rax
  80206b:	0f b6 00             	movzbl (%rax),%eax
  80206e:	38 c2                	cmp    %al,%dl
  802070:	74 d9                	je     80204b <strcmp+0x12>
  802072:	48 8b 45 f8          	mov    -0x8(%rbp),%rax
  802076:	0f b6 00             	movzbl (%rax),%eax
  802079:	0f b6 d0             	movzbl %al,%edx
  80207c:	48 8b 45 f0          	mov    -0x10(%rbp),%rax
  802080:	0f b6 00             	movzbl (%rax),%eax
  802083:	0f b6 c0             	movzbl %al,%eax
  802086:	29 c2                	sub    %eax,%edx
  802088:	89 d0                	mov    %edx,%eax
  80208a:	c9                   	leaveq 
  80208b:	c3                   	retq   

000000000080208c <strncmp>:
  80208c:	55                   	push   %rbp
  80208d:	48 89 e5             	mov    %rsp,%rbp
  802090:	48 83 ec 18          	sub    $0x18,%rsp
  802094:	48 89 7d f8          	mov    %rdi,-0x8(%rbp)
  802098:	48 89 75 f0          	mov    %rsi,-0x10(%rbp)
  80209c:	48 89 55 e8          	mov    %rdx,-0x18(%rbp)
  8020a0:	eb 0f                	jmp    8020b1 <strncmp+0x25>
  8020a2:	48 83 6d e8 01       	subq   $0x1,-0x18(%rbp)
  8020a7:	48 83 45 f8 01       	addq   $0x1,-0x8(%rbp)
  8020ac:	48 83 45 f0 01       	addq   $0x1,-0x10(%rbp)
  8020b1:	48 83 7d e8 00       	cmpq   $0x0,-0x18(%rbp)
  8020b6:	74 1d                	je     8020d5 <strncmp+0x49>
  8020b8:	48 8b 45 f8          	mov    -0x8(%rbp),%rax
  8020bc:	0f b6 00             	movzbl (%rax),%eax
  8020bf:	84 c0                	test   %al,%al
  8020c1:	74 12                	je     8020d5 <strncmp+0x49>
  8020c3:	48 8b 45 f8          	mov    -0x8(%rbp),%rax
  8020c7:	0f b6 10             	movzbl (%rax),%edx
  8020ca:	48 8b 45 f0          	mov    -0x10(%rbp),%rax
  8020ce:	0f b6 00             	movzbl (%rax),%eax
  8020d1:	38 c2                	cmp    %al,%dl
  8020d3:	74 cd                	je     8020a2 <strncmp+0x16>
  8020d5:	48 83 7d e8 00       	cmpq   $0x0,-0x18(%rbp)
  8020da:	75 07                	jne    8020e3 <strncmp+0x57>
  8020dc:	b8 00 00 00 00       	mov    $0x0,%eax
  8020e1:	eb 18                	jmp    8020fb <strncmp+0x6f>
  8020e3:	48 8b 45 f8          	mov    -0x8(%rbp),%rax
  8020e7:	0f b6 00             	movzbl (%rax),%eax
  8020ea:	0f b6 d0             	movzbl %al,%edx
  8020ed:	48 8b 45 f0          	mov    -0x10(%rbp),%rax
  8020f1:	0f b6 00             	movzbl (%rax),%eax
  8020f4:	0f b6 c0             	movzbl %al,%eax
  8020f7:	29 c2                	sub    %eax,%edx
  8020f9:	89 d0                	mov    %edx,%eax
  8020fb:	c9                   	leaveq 
  8020fc:	c3                   	retq   

00000000008020fd <strchr>:
  8020fd:	55                   	push   %rbp
  8020fe:	48 89 e5             	mov    %rsp,%rbp
  802101:	48 83 ec 0c          	sub    $0xc,%rsp
  802105:	48 89 7d f8          	mov    %rdi,-0x8(%rbp)
  802109:	89 f0                	mov    %esi,%eax
  80210b:	88 45 f4             	mov    %al,-0xc(%rbp)
  80210e:	eb 17                	jmp    802127 <strchr+0x2a>
  802110:	48 8b 45 f8          	mov    -0x8(%rbp),%rax
  802114:	0f b6 00             	movzbl (%rax),%eax
  802117:	3a 45 f4             	cmp    -0xc(%rbp),%al
  80211a:	75 06                	jne    802122 <strchr+0x25>
  80211c:	48 8b 45 f8          	mov    -0x8(%rbp),%rax
  802120:	eb 15                	jmp    802137 <strchr+0x3a>
  802122:	48 83 45 f8 01       	addq   $0x1,-0x8(%rbp)
  802127:	48 8b 45 f8          	mov    -0x8(%rbp),%rax
  80212b:	0f b6 00             	movzbl (%rax),%eax
  80212e:	84 c0                	test   %al,%al
  802130:	75 de                	jne    802110 <strchr+0x13>
  802132:	b8 00 00 00 00       	mov    $0x0,%eax
  802137:	c9                   	leaveq 
  802138:	c3                   	retq   

0000000000802139 <strfind>:
  802139:	55                   	push   %rbp
  80213a:	48 89 e5             	mov    %rsp,%rbp
  80213d:	48 83 ec 0c          	sub    $0xc,%rsp
  802141:	48 89 7d f8          	mov    %rdi,-0x8(%rbp)
  802145:	89 f0                	mov    %esi,%eax
  802147:	88 45 f4             	mov    %al,-0xc(%rbp)
  80214a:	eb 13                	jmp    80215f <strfind+0x26>
  80214c:	48 8b 45 f8          	mov    -0x8(%rbp),%rax
  802150:	0f b6 00             	movzbl (%rax),%eax
  802153:	3a 45 f4             	cmp    -0xc(%rbp),%al
  802156:	75 02                	jne    80215a <strfind+0x21>
  802158:	eb 10                	jmp    80216a <strfind+0x31>
  80215a:	48 83 45 f8 01       	addq   $0x1,-0x8(%rbp)
  80215f:	48 8b 45 f8          	mov    -0x8(%rbp),%rax
  802163:	0f b6 00             	movzbl (%rax),%eax
  802166:	84 c0                	test   %al,%al
  802168:	75 e2                	jne    80214c <strfind+0x13>
  80216a:	48 8b 45 f8          	mov    -0x8(%rbp),%rax
  80216e:	c9                   	leaveq 
  80216f:	c3                   	retq   

0000000000802170 <memset>:
  802170:	55                   	push   %rbp
  802171:	48 89 e5             	mov    %rsp,%rbp
  802174:	48 83 ec 18          	sub    $0x18,%rsp
  802178:	48 89 7d f8          	mov    %rdi,-0x8(%rbp)
  80217c:	89 75 f4             	mov    %esi,-0xc(%rbp)
  80217f:	48 89 55 e8          	mov    %rdx,-0x18(%rbp)
  802183:	48 83 7d e8 00       	cmpq   $0x0,-0x18(%rbp)
  802188:	75 06                	jne    802190 <memset+0x20>
  80218a:	48 8b 45 f8          	mov    -0x8(%rbp),%rax
  80218e:	eb 69                	jmp    8021f9 <memset+0x89>
  802190:	48 8b 45 f8          	mov    -0x8(%rbp),%rax
  802194:	83 e0 03             	and    $0x3,%eax
  802197:	48 85 c0             	test   %rax,%rax
  80219a:	75 48                	jne    8021e4 <memset+0x74>
  80219c:	48 8b 45 e8          	mov    -0x18(%rbp),%rax
  8021a0:	83 e0 03             	and    $0x3,%eax
  8021a3:	48 85 c0             	test   %rax,%rax
  8021a6:	75 3c                	jne    8021e4 <memset+0x74>
  8021a8:	81 65 f4 ff 00 00 00 	andl   $0xff,-0xc(%rbp)
  8021af:	8b 45 f4             	mov    -0xc(%rbp),%eax
  8021b2:	c1 e0 18             	shl    $0x18,%eax
  8021b5:	89 c2                	mov    %eax,%edx
  8021b7:	8b 45 f4             	mov    -0xc(%rbp),%eax
  8021ba:	c1 e0 10             	shl    $0x10,%eax
  8021bd:	09 c2                	or     %eax,%edx
  8021bf:	8b 45 f4             	mov    -0xc(%rbp),%eax
  8021c2:	c1 e0 08             	shl    $0x8,%eax
  8021c5:	09 d0                	or     %edx,%eax
  8021c7:	09 45 f4             	or     %eax,-0xc(%rbp)
  8021ca:	48 8b 45 e8          	mov    -0x18(%rbp),%rax
  8021ce:	48 c1 e8 02          	shr    $0x2,%rax
  8021d2:	48 89 c1             	mov    %rax,%rcx
  8021d5:	48 8b 55 f8          	mov    -0x8(%rbp),%rdx
  8021d9:	8b 45 f4             	mov    -0xc(%rbp),%eax
  8021dc:	48 89 d7             	mov    %rdx,%rdi
  8021df:	fc                   	cld    
  8021e0:	f3 ab                	rep stos %eax,%es:(%rdi)
  8021e2:	eb 11                	jmp    8021f5 <memset+0x85>
  8021e4:	48 8b 55 f8          	mov    -0x8(%rbp),%rdx
  8021e8:	8b 45 f4             	mov    -0xc(%rbp),%eax
  8021eb:	48 8b 4d e8          	mov    -0x18(%rbp),%rcx
  8021ef:	48 89 d7             	mov    %rdx,%rdi
  8021f2:	fc                   	cld    
  8021f3:	f3 aa                	rep stos %al,%es:(%rdi)
  8021f5:	48 8b 45 f8          	mov    -0x8(%rbp),%rax
  8021f9:	c9                   	leaveq 
  8021fa:	c3                   	retq   

00000000008021fb <memmove>:
  8021fb:	55                   	push   %rbp
  8021fc:	48 89 e5             	mov    %rsp,%rbp
  8021ff:	48 83 ec 28          	sub    $0x28,%rsp
  802203:	48 89 7d e8          	mov    %rdi,-0x18(%rbp)
  802207:	48 89 75 e0          	mov    %rsi,-0x20(%rbp)
  80220b:	48 89 55 d8          	mov    %rdx,-0x28(%rbp)
  80220f:	48 8b 45 e0          	mov    -0x20(%rbp),%rax
  802213:	48 89 45 f8          	mov    %rax,-0x8(%rbp)
  802217:	48 8b 45 e8          	mov    -0x18(%rbp),%rax
  80221b:	48 89 45 f0          	mov    %rax,-0x10(%rbp)
  80221f:	48 8b 45 f8          	mov    -0x8(%rbp),%rax
  802223:	48 3b 45 f0          	cmp    -0x10(%rbp),%rax
  802227:	0f 83 88 00 00 00    	jae    8022b5 <memmove+0xba>
  80222d:	48 8b 45 d8          	mov    -0x28(%rbp),%rax
  802231:	48 8b 55 f8          	mov    -0x8(%rbp),%rdx
  802235:	48 01 d0             	add    %rdx,%rax
  802238:	48 3b 45 f0          	cmp    -0x10(%rbp),%rax
  80223c:	76 77                	jbe    8022b5 <memmove+0xba>
  80223e:	48 8b 45 d8          	mov    -0x28(%rbp),%rax
  802242:	48 01 45 f8          	add    %rax,-0x8(%rbp)
  802246:	48 8b 45 d8          	mov    -0x28(%rbp),%rax
  80224a:	48 01 45 f0          	add    %rax,-0x10(%rbp)
  80224e:	48 8b 45 f8          	mov    -0x8(%rbp),%rax
  802252:	83 e0 03             	and    $0x3,%eax
  802255:	48 85 c0             	test   %rax,%rax
  802258:	75 3b                	jne    802295 <memmove+0x9a>
  80225a:	48 8b 45 f0          	mov    -0x10(%rbp),%rax
  80225e:	83 e0 03             	and    $0x3,%eax
  802261:	48 85 c0             	test   %rax,%rax
  802264:	75 2f                	jne    802295 <memmove+0x9a>
  802266:	48 8b 45 d8          	mov    -0x28(%rbp),%rax
  80226a:	83 e0 03             	and    $0x3,%eax
  80226d:	48 85 c0             	test   %rax,%rax
  802270:	75 23                	jne    802295 <memmove+0x9a>
  802272:	48 8b 45 f0          	mov    -0x10(%rbp),%rax
  802276:	48 83 e8 04          	sub    $0x4,%rax
  80227a:	48 8b 55 f8          	mov    -0x8(%rbp),%rdx
  80227e:	48 83 ea 04          	sub    $0x4,%rdx
  802282:	48 8b 4d d8          	mov    -0x28(%rbp),%rcx
  802286:	48 c1 e9 02          	shr    $0x2,%rcx
  80228a:	48 89 c7             	mov    %rax,%rdi
  80228d:	48 89 d6             	mov    %rdx,%rsi
  802290:	fd                   	std    
  802291:	f3 a5                	rep movsl %ds:(%rsi),%es:(%rdi)
  802293:	eb 1d                	jmp    8022b2 <memmove+0xb7>
  802295:	48 8b 45 f0          	mov    -0x10(%rbp),%rax
  802299:	48 8d 50 ff          	lea    -0x1(%rax),%rdx
  80229d:	48 8b 45 f8          	mov    -0x8(%rbp),%rax
  8022a1:	48 8d 70 ff          	lea    -0x1(%rax),%rsi
  8022a5:	48 8b 45 d8          	mov    -0x28(%rbp),%rax
  8022a9:	48 89 d7             	mov    %rdx,%rdi
  8022ac:	48 89 c1             	mov    %rax,%rcx
  8022af:	fd                   	std    
  8022b0:	f3 a4                	rep movsb %ds:(%rsi),%es:(%rdi)
  8022b2:	fc                   	cld    
  8022b3:	eb 57                	jmp    80230c <memmove+0x111>
  8022b5:	48 8b 45 f8          	mov    -0x8(%rbp),%rax
  8022b9:	83 e0 03             	and    $0x3,%eax
  8022bc:	48 85 c0             	test   %rax,%rax
  8022bf:	75 36                	jne    8022f7 <memmove+0xfc>
  8022c1:	48 8b 45 f0          	mov    -0x10(%rbp),%rax
  8022c5:	83 e0 03             	and    $0x3,%eax
  8022c8:	48 85 c0             	test   %rax,%rax
  8022cb:	75 2a                	jne    8022f7 <memmove+0xfc>
  8022cd:	48 8b 45 d8          	mov    -0x28(%rbp),%rax
  8022d1:	83 e0 03             	and    $0x3,%eax
  8022d4:	48 85 c0             	test   %rax,%rax
  8022d7:	75 1e                	jne    8022f7 <memmove+0xfc>
  8022d9:	48 8b 45 d8          	mov    -0x28(%rbp),%rax
  8022dd:	48 c1 e8 02          	shr    $0x2,%rax
  8022e1:	48 89 c1             	mov    %rax,%rcx
  8022e4:	48 8b 45 f0          	mov    -0x10(%rbp),%rax
  8022e8:	48 8b 55 f8          	mov    -0x8(%rbp),%rdx
  8022ec:	48 89 c7             	mov    %rax,%rdi
  8022ef:	48 89 d6             	mov    %rdx,%rsi
  8022f2:	fc                   	cld    
  8022f3:	f3 a5                	rep movsl %ds:(%rsi),%es:(%rdi)
  8022f5:	eb 15                	jmp    80230c <memmove+0x111>
  8022f7:	48 8b 45 f0          	mov    -0x10(%rbp),%rax
  8022fb:	48 8b 55 f8          	mov    -0x8(%rbp),%rdx
  8022ff:	48 8b 4d d8          	mov    -0x28(%rbp),%rcx
  802303:	48 89 c7             	mov    %rax,%rdi
  802306:	48 89 d6             	mov    %rdx,%rsi
  802309:	fc                   	cld    
  80230a:	f3 a4                	rep movsb %ds:(%rsi),%es:(%rdi)
  80230c:	48 8b 45 e8          	mov    -0x18(%rbp),%rax
  802310:	c9                   	leaveq 
  802311:	c3                   	retq   

0000000000802312 <memcpy>:
  802312:	55                   	push   %rbp
  802313:	48 89 e5             	mov    %rsp,%rbp
  802316:	48 83 ec 18          	sub    $0x18,%rsp
  80231a:	48 89 7d f8          	mov    %rdi,-0x8(%rbp)
  80231e:	48 89 75 f0          	mov    %rsi,-0x10(%rbp)
  802322:	48 89 55 e8          	mov    %rdx,-0x18(%rbp)
  802326:	48 8b 55 e8          	mov    -0x18(%rbp),%rdx
  80232a:	48 8b 4d f0          	mov    -0x10(%rbp),%rcx
  80232e:	48 8b 45 f8          	mov    -0x8(%rbp),%rax
  802332:	48 89 ce             	mov    %rcx,%rsi
  802335:	48 89 c7             	mov    %rax,%rdi
  802338:	48 b8 fb 21 80 00 00 	movabs $0x8021fb,%rax
  80233f:	00 00 00 
  802342:	ff d0                	callq  *%rax
  802344:	c9                   	leaveq 
  802345:	c3                   	retq   

0000000000802346 <memcmp>:
  802346:	55                   	push   %rbp
  802347:	48 89 e5             	mov    %rsp,%rbp
  80234a:	48 83 ec 28          	sub    $0x28,%rsp
  80234e:	48 89 7d e8          	mov    %rdi,-0x18(%rbp)
  802352:	48 89 75 e0          	mov    %rsi,-0x20(%rbp)
  802356:	48 89 55 d8          	mov    %rdx,-0x28(%rbp)
  80235a:	48 8b 45 e8          	mov    -0x18(%rbp),%rax
  80235e:	48 89 45 f8          	mov    %rax,-0x8(%rbp)
  802362:	48 8b 45 e0          	mov    -0x20(%rbp),%rax
  802366:	48 89 45 f0          	mov    %rax,-0x10(%rbp)
  80236a:	eb 36                	jmp    8023a2 <memcmp+0x5c>
  80236c:	48 8b 45 f8          	mov    -0x8(%rbp),%rax
  802370:	0f b6 10             	movzbl (%rax),%edx
  802373:	48 8b 45 f0          	mov    -0x10(%rbp),%rax
  802377:	0f b6 00             	movzbl (%rax),%eax
  80237a:	38 c2                	cmp    %al,%dl
  80237c:	74 1a                	je     802398 <memcmp+0x52>
  80237e:	48 8b 45 f8          	mov    -0x8(%rbp),%rax
  802382:	0f b6 00             	movzbl (%rax),%eax
  802385:	0f b6 d0             	movzbl %al,%edx
  802388:	48 8b 45 f0          	mov    -0x10(%rbp),%rax
  80238c:	0f b6 00             	movzbl (%rax),%eax
  80238f:	0f b6 c0             	movzbl %al,%eax
  802392:	29 c2                	sub    %eax,%edx
  802394:	89 d0                	mov    %edx,%eax
  802396:	eb 20                	jmp    8023b8 <memcmp+0x72>
  802398:	48 83 45 f8 01       	addq   $0x1,-0x8(%rbp)
  80239d:	48 83 45 f0 01       	addq   $0x1,-0x10(%rbp)
  8023a2:	48 8b 45 d8          	mov    -0x28(%rbp),%rax
  8023a6:	48 8d 50 ff          	lea    -0x1(%rax),%rdx
  8023aa:	48 89 55 d8          	mov    %rdx,-0x28(%rbp)
  8023ae:	48 85 c0             	test   %rax,%rax
  8023b1:	75 b9                	jne    80236c <memcmp+0x26>
  8023b3:	b8 00 00 00 00       	mov    $0x0,%eax
  8023b8:	c9                   	leaveq 
  8023b9:	c3                   	retq   

00000000008023ba <memfind>:
  8023ba:	55                   	push   %rbp
  8023bb:	48 89 e5             	mov    %rsp,%rbp
  8023be:	48 83 ec 28          	sub    $0x28,%rsp
  8023c2:	48 89 7d e8          	mov    %rdi,-0x18(%rbp)
  8023c6:	89 75 e4             	mov    %esi,-0x1c(%rbp)
  8023c9:	48 89 55 d8          	mov    %rdx,-0x28(%rbp)
  8023cd:	48 8b 45 d8          	mov    -0x28(%rbp),%rax
  8023d1:	48 8b 55 e8          	mov    -0x18(%rbp),%rdx
  8023d5:	48 01 d0             	add    %rdx,%rax
  8023d8:	48 89 45 f8          	mov    %rax,-0x8(%rbp)
  8023dc:	eb 15                	jmp    8023f3 <memfind+0x39>
  8023de:	48 8b 45 e8          	mov    -0x18(%rbp),%rax
  8023e2:	0f b6 10             	movzbl (%rax),%edx
  8023e5:	8b 45 e4             	mov    -0x1c(%rbp),%eax
  8023e8:	38 c2                	cmp    %al,%dl
  8023ea:	75 02                	jne    8023ee <memfind+0x34>
  8023ec:	eb 0f                	jmp    8023fd <memfind+0x43>
  8023ee:	48 83 45 e8 01       	addq   $0x1,-0x18(%rbp)
  8023f3:	48 8b 45 e8          	mov    -0x18(%rbp),%rax
  8023f7:	48 3b 45 f8          	cmp    -0x8(%rbp),%rax
  8023fb:	72 e1                	jb     8023de <memfind+0x24>
  8023fd:	48 8b 45 e8          	mov    -0x18(%rbp),%rax
  802401:	c9                   	leaveq 
  802402:	c3                   	retq   

0000000000802403 <strtol>:
  802403:	55                   	push   %rbp
  802404:	48 89 e5             	mov    %rsp,%rbp
  802407:	48 83 ec 34          	sub    $0x34,%rsp
  80240b:	48 89 7d d8          	mov    %rdi,-0x28(%rbp)
  80240f:	48 89 75 d0          	mov    %rsi,-0x30(%rbp)
  802413:	89 55 cc             	mov    %edx,-0x34(%rbp)
  802416:	c7 45 fc 00 00 00 00 	movl   $0x0,-0x4(%rbp)
  80241d:	48 c7 45 f0 00 00 00 	movq   $0x0,-0x10(%rbp)
  802424:	00 
  802425:	eb 05                	jmp    80242c <strtol+0x29>
  802427:	48 83 45 d8 01       	addq   $0x1,-0x28(%rbp)
  80242c:	48 8b 45 d8          	mov    -0x28(%rbp),%rax
  802430:	0f b6 00             	movzbl (%rax),%eax
  802433:	3c 20                	cmp    $0x20,%al
  802435:	74 f0                	je     802427 <strtol+0x24>
  802437:	48 8b 45 d8          	mov    -0x28(%rbp),%rax
  80243b:	0f b6 00             	movzbl (%rax),%eax
  80243e:	3c 09                	cmp    $0x9,%al
  802440:	74 e5                	je     802427 <strtol+0x24>
  802442:	48 8b 45 d8          	mov    -0x28(%rbp),%rax
  802446:	0f b6 00             	movzbl (%rax),%eax
  802449:	3c 2b                	cmp    $0x2b,%al
  80244b:	75 07                	jne    802454 <strtol+0x51>
  80244d:	48 83 45 d8 01       	addq   $0x1,-0x28(%rbp)
  802452:	eb 17                	jmp    80246b <strtol+0x68>
  802454:	48 8b 45 d8          	mov    -0x28(%rbp),%rax
  802458:	0f b6 00             	movzbl (%rax),%eax
  80245b:	3c 2d                	cmp    $0x2d,%al
  80245d:	75 0c                	jne    80246b <strtol+0x68>
  80245f:	48 83 45 d8 01       	addq   $0x1,-0x28(%rbp)
  802464:	c7 45 fc 01 00 00 00 	movl   $0x1,-0x4(%rbp)
  80246b:	83 7d cc 00          	cmpl   $0x0,-0x34(%rbp)
  80246f:	74 06                	je     802477 <strtol+0x74>
  802471:	83 7d cc 10          	cmpl   $0x10,-0x34(%rbp)
  802475:	75 28                	jne    80249f <strtol+0x9c>
  802477:	48 8b 45 d8          	mov    -0x28(%rbp),%rax
  80247b:	0f b6 00             	movzbl (%rax),%eax
  80247e:	3c 30                	cmp    $0x30,%al
  802480:	75 1d                	jne    80249f <strtol+0x9c>
  802482:	48 8b 45 d8          	mov    -0x28(%rbp),%rax
  802486:	48 83 c0 01          	add    $0x1,%rax
  80248a:	0f b6 00             	movzbl (%rax),%eax
  80248d:	3c 78                	cmp    $0x78,%al
  80248f:	75 0e                	jne    80249f <strtol+0x9c>
  802491:	48 83 45 d8 02       	addq   $0x2,-0x28(%rbp)
  802496:	c7 45 cc 10 00 00 00 	movl   $0x10,-0x34(%rbp)
  80249d:	eb 2c                	jmp    8024cb <strtol+0xc8>
  80249f:	83 7d cc 00          	cmpl   $0x0,-0x34(%rbp)
  8024a3:	75 19                	jne    8024be <strtol+0xbb>
  8024a5:	48 8b 45 d8          	mov    -0x28(%rbp),%rax
  8024a9:	0f b6 00             	movzbl (%rax),%eax
  8024ac:	3c 30                	cmp    $0x30,%al
  8024ae:	75 0e                	jne    8024be <strtol+0xbb>
  8024b0:	48 83 45 d8 01       	addq   $0x1,-0x28(%rbp)
  8024b5:	c7 45 cc 08 00 00 00 	movl   $0x8,-0x34(%rbp)
  8024bc:	eb 0d                	jmp    8024cb <strtol+0xc8>
  8024be:	83 7d cc 00          	cmpl   $0x0,-0x34(%rbp)
  8024c2:	75 07                	jne    8024cb <strtol+0xc8>
  8024c4:	c7 45 cc 0a 00 00 00 	movl   $0xa,-0x34(%rbp)
  8024cb:	48 8b 45 d8          	mov    -0x28(%rbp),%rax
  8024cf:	0f b6 00             	movzbl (%rax),%eax
  8024d2:	3c 2f                	cmp    $0x2f,%al
  8024d4:	7e 1d                	jle    8024f3 <strtol+0xf0>
  8024d6:	48 8b 45 d8          	mov    -0x28(%rbp),%rax
  8024da:	0f b6 00             	movzbl (%rax),%eax
  8024dd:	3c 39                	cmp    $0x39,%al
  8024df:	7f 12                	jg     8024f3 <strtol+0xf0>
  8024e1:	48 8b 45 d8          	mov    -0x28(%rbp),%rax
  8024e5:	0f b6 00             	movzbl (%rax),%eax
  8024e8:	0f be c0             	movsbl %al,%eax
  8024eb:	83 e8 30             	sub    $0x30,%eax
  8024ee:	89 45 ec             	mov    %eax,-0x14(%rbp)
  8024f1:	eb 4e                	jmp    802541 <strtol+0x13e>
  8024f3:	48 8b 45 d8          	mov    -0x28(%rbp),%rax
  8024f7:	0f b6 00             	movzbl (%rax),%eax
  8024fa:	3c 60                	cmp    $0x60,%al
  8024fc:	7e 1d                	jle    80251b <strtol+0x118>
  8024fe:	48 8b 45 d8          	mov    -0x28(%rbp),%rax
  802502:	0f b6 00             	movzbl (%rax),%eax
  802505:	3c 7a                	cmp    $0x7a,%al
  802507:	7f 12                	jg     80251b <strtol+0x118>
  802509:	48 8b 45 d8          	mov    -0x28(%rbp),%rax
  80250d:	0f b6 00             	movzbl (%rax),%eax
  802510:	0f be c0             	movsbl %al,%eax
  802513:	83 e8 57             	sub    $0x57,%eax
  802516:	89 45 ec             	mov    %eax,-0x14(%rbp)
  802519:	eb 26                	jmp    802541 <strtol+0x13e>
  80251b:	48 8b 45 d8          	mov    -0x28(%rbp),%rax
  80251f:	0f b6 00             	movzbl (%rax),%eax
  802522:	3c 40                	cmp    $0x40,%al
  802524:	7e 48                	jle    80256e <strtol+0x16b>
  802526:	48 8b 45 d8          	mov    -0x28(%rbp),%rax
  80252a:	0f b6 00             	movzbl (%rax),%eax
  80252d:	3c 5a                	cmp    $0x5a,%al
  80252f:	7f 3d                	jg     80256e <strtol+0x16b>
  802531:	48 8b 45 d8          	mov    -0x28(%rbp),%rax
  802535:	0f b6 00             	movzbl (%rax),%eax
  802538:	0f be c0             	movsbl %al,%eax
  80253b:	83 e8 37             	sub    $0x37,%eax
  80253e:	89 45 ec             	mov    %eax,-0x14(%rbp)
  802541:	8b 45 ec             	mov    -0x14(%rbp),%eax
  802544:	3b 45 cc             	cmp    -0x34(%rbp),%eax
  802547:	7c 02                	jl     80254b <strtol+0x148>
  802549:	eb 23                	jmp    80256e <strtol+0x16b>
  80254b:	48 83 45 d8 01       	addq   $0x1,-0x28(%rbp)
  802550:	8b 45 cc             	mov    -0x34(%rbp),%eax
  802553:	48 98                	cltq   
  802555:	48 0f af 45 f0       	imul   -0x10(%rbp),%rax
  80255a:	48 89 c2             	mov    %rax,%rdx
  80255d:	8b 45 ec             	mov    -0x14(%rbp),%eax
  802560:	48 98                	cltq   
  802562:	48 01 d0             	add    %rdx,%rax
  802565:	48 89 45 f0          	mov    %rax,-0x10(%rbp)
  802569:	e9 5d ff ff ff       	jmpq   8024cb <strtol+0xc8>
  80256e:	48 83 7d d0 00       	cmpq   $0x0,-0x30(%rbp)
  802573:	74 0b                	je     802580 <strtol+0x17d>
  802575:	48 8b 45 d0          	mov    -0x30(%rbp),%rax
  802579:	48 8b 55 d8          	mov    -0x28(%rbp),%rdx
  80257d:	48 89 10             	mov    %rdx,(%rax)
  802580:	83 7d fc 00          	cmpl   $0x0,-0x4(%rbp)
  802584:	74 09                	je     80258f <strtol+0x18c>
  802586:	48 8b 45 f0          	mov    -0x10(%rbp),%rax
  80258a:	48 f7 d8             	neg    %rax
  80258d:	eb 04                	jmp    802593 <strtol+0x190>
  80258f:	48 8b 45 f0          	mov    -0x10(%rbp),%rax
  802593:	c9                   	leaveq 
  802594:	c3                   	retq   

0000000000802595 <strstr>:
  802595:	55                   	push   %rbp
  802596:	48 89 e5             	mov    %rsp,%rbp
  802599:	48 83 ec 30          	sub    $0x30,%rsp
  80259d:	48 89 7d d8          	mov    %rdi,-0x28(%rbp)
  8025a1:	48 89 75 d0          	mov    %rsi,-0x30(%rbp)
  8025a5:	48 8b 45 d0          	mov    -0x30(%rbp),%rax
  8025a9:	48 8d 50 01          	lea    0x1(%rax),%rdx
  8025ad:	48 89 55 d0          	mov    %rdx,-0x30(%rbp)
  8025b1:	0f b6 00             	movzbl (%rax),%eax
  8025b4:	88 45 ff             	mov    %al,-0x1(%rbp)
  8025b7:	80 7d ff 00          	cmpb   $0x0,-0x1(%rbp)
  8025bb:	75 06                	jne    8025c3 <strstr+0x2e>
  8025bd:	48 8b 45 d8          	mov    -0x28(%rbp),%rax
  8025c1:	eb 6b                	jmp    80262e <strstr+0x99>
  8025c3:	48 8b 45 d0          	mov    -0x30(%rbp),%rax
  8025c7:	48 89 c7             	mov    %rax,%rdi
  8025ca:	48 b8 6b 1e 80 00 00 	movabs $0x801e6b,%rax
  8025d1:	00 00 00 
  8025d4:	ff d0                	callq  *%rax
  8025d6:	48 98                	cltq   
  8025d8:	48 89 45 f0          	mov    %rax,-0x10(%rbp)
  8025dc:	48 8b 45 d8          	mov    -0x28(%rbp),%rax
  8025e0:	48 8d 50 01          	lea    0x1(%rax),%rdx
  8025e4:	48 89 55 d8          	mov    %rdx,-0x28(%rbp)
  8025e8:	0f b6 00             	movzbl (%rax),%eax
  8025eb:	88 45 ef             	mov    %al,-0x11(%rbp)
  8025ee:	80 7d ef 00          	cmpb   $0x0,-0x11(%rbp)
  8025f2:	75 07                	jne    8025fb <strstr+0x66>
  8025f4:	b8 00 00 00 00       	mov    $0x0,%eax
  8025f9:	eb 33                	jmp    80262e <strstr+0x99>
  8025fb:	0f b6 45 ef          	movzbl -0x11(%rbp),%eax
  8025ff:	3a 45 ff             	cmp    -0x1(%rbp),%al
  802602:	75 d8                	jne    8025dc <strstr+0x47>
  802604:	48 8b 55 f0          	mov    -0x10(%rbp),%rdx
  802608:	48 8b 4d d0          	mov    -0x30(%rbp),%rcx
  80260c:	48 8b 45 d8          	mov    -0x28(%rbp),%rax
  802610:	48 89 ce             	mov    %rcx,%rsi
  802613:	48 89 c7             	mov    %rax,%rdi
  802616:	48 b8 8c 20 80 00 00 	movabs $0x80208c,%rax
  80261d:	00 00 00 
  802620:	ff d0                	callq  *%rax
  802622:	85 c0                	test   %eax,%eax
  802624:	75 b6                	jne    8025dc <strstr+0x47>
  802626:	48 8b 45 d8          	mov    -0x28(%rbp),%rax
  80262a:	48 83 e8 01          	sub    $0x1,%rax
  80262e:	c9                   	leaveq 
  80262f:	c3                   	retq   

0000000000802630 <syscall>:
  802630:	55                   	push   %rbp
  802631:	48 89 e5             	mov    %rsp,%rbp
  802634:	53                   	push   %rbx
  802635:	48 83 ec 48          	sub    $0x48,%rsp
  802639:	89 7d dc             	mov    %edi,-0x24(%rbp)
  80263c:	89 75 d8             	mov    %esi,-0x28(%rbp)
  80263f:	48 89 55 d0          	mov    %rdx,-0x30(%rbp)
  802643:	48 89 4d c8          	mov    %rcx,-0x38(%rbp)
  802647:	4c 89 45 c0          	mov    %r8,-0x40(%rbp)
  80264b:	4c 89 4d b8          	mov    %r9,-0x48(%rbp)
  80264f:	8b 45 dc             	mov    -0x24(%rbp),%eax
  802652:	48 8b 55 d0          	mov    -0x30(%rbp),%rdx
  802656:	48 8b 4d c8          	mov    -0x38(%rbp),%rcx
  80265a:	4c 8b 45 c0          	mov    -0x40(%rbp),%r8
  80265e:	48 8b 7d b8          	mov    -0x48(%rbp),%rdi
  802662:	48 8b 75 10          	mov    0x10(%rbp),%rsi
  802666:	4c 89 c3             	mov    %r8,%rbx
  802669:	cd 30                	int    $0x30
  80266b:	48 89 45 e8          	mov    %rax,-0x18(%rbp)
  80266f:	83 7d d8 00          	cmpl   $0x0,-0x28(%rbp)
  802673:	74 3e                	je     8026b3 <syscall+0x83>
  802675:	48 83 7d e8 00       	cmpq   $0x0,-0x18(%rbp)
  80267a:	7e 37                	jle    8026b3 <syscall+0x83>
  80267c:	48 8b 55 e8          	mov    -0x18(%rbp),%rdx
  802680:	8b 45 dc             	mov    -0x24(%rbp),%eax
  802683:	49 89 d0             	mov    %rdx,%r8
  802686:	89 c1                	mov    %eax,%ecx
  802688:	48 ba 08 13 82 00 00 	movabs $0x821308,%rdx
  80268f:	00 00 00 
  802692:	be 24 00 00 00       	mov    $0x24,%esi
  802697:	48 bf 25 13 82 00 00 	movabs $0x821325,%rdi
  80269e:	00 00 00 
  8026a1:	b8 00 00 00 00       	mov    $0x0,%eax
  8026a6:	49 b9 e9 10 80 00 00 	movabs $0x8010e9,%r9
  8026ad:	00 00 00 
  8026b0:	41 ff d1             	callq  *%r9
  8026b3:	48 8b 45 e8          	mov    -0x18(%rbp),%rax
  8026b7:	48 83 c4 48          	add    $0x48,%rsp
  8026bb:	5b                   	pop    %rbx
  8026bc:	5d                   	pop    %rbp
  8026bd:	c3                   	retq   

00000000008026be <sys_cputs>:
  8026be:	55                   	push   %rbp
  8026bf:	48 89 e5             	mov    %rsp,%rbp
  8026c2:	48 83 ec 20          	sub    $0x20,%rsp
  8026c6:	48 89 7d f8          	mov    %rdi,-0x8(%rbp)
  8026ca:	48 89 75 f0          	mov    %rsi,-0x10(%rbp)
  8026ce:	48 8b 45 f8          	mov    -0x8(%rbp),%rax
  8026d2:	48 8b 55 f0          	mov    -0x10(%rbp),%rdx
  8026d6:	48 c7 04 24 00 00 00 	movq   $0x0,(%rsp)
  8026dd:	00 
  8026de:	41 b9 00 00 00 00    	mov    $0x0,%r9d
  8026e4:	41 b8 00 00 00 00    	mov    $0x0,%r8d
  8026ea:	48 89 d1             	mov    %rdx,%rcx
  8026ed:	48 89 c2             	mov    %rax,%rdx
  8026f0:	be 00 00 00 00       	mov    $0x0,%esi
  8026f5:	bf 00 00 00 00       	mov    $0x0,%edi
  8026fa:	48 b8 30 26 80 00 00 	movabs $0x802630,%rax
  802701:	00 00 00 
  802704:	ff d0                	callq  *%rax
  802706:	c9                   	leaveq 
  802707:	c3                   	retq   

0000000000802708 <sys_cgetc>:
  802708:	55                   	push   %rbp
  802709:	48 89 e5             	mov    %rsp,%rbp
  80270c:	48 83 ec 10          	sub    $0x10,%rsp
  802710:	48 c7 04 24 00 00 00 	movq   $0x0,(%rsp)
  802717:	00 
  802718:	41 b9 00 00 00 00    	mov    $0x0,%r9d
  80271e:	41 b8 00 00 00 00    	mov    $0x0,%r8d
  802724:	b9 00 00 00 00       	mov    $0x0,%ecx
  802729:	ba 00 00 00 00       	mov    $0x0,%edx
  80272e:	be 00 00 00 00       	mov    $0x0,%esi
  802733:	bf 01 00 00 00       	mov    $0x1,%edi
  802738:	48 b8 30 26 80 00 00 	movabs $0x802630,%rax
  80273f:	00 00 00 
  802742:	ff d0                	callq  *%rax
  802744:	c9                   	leaveq 
  802745:	c3                   	retq   

0000000000802746 <sys_env_destroy>:
  802746:	55                   	push   %rbp
  802747:	48 89 e5             	mov    %rsp,%rbp
  80274a:	48 83 ec 10          	sub    $0x10,%rsp
  80274e:	89 7d fc             	mov    %edi,-0x4(%rbp)
  802751:	8b 45 fc             	mov    -0x4(%rbp),%eax
  802754:	48 98                	cltq   
  802756:	48 c7 04 24 00 00 00 	movq   $0x0,(%rsp)
  80275d:	00 
  80275e:	41 b9 00 00 00 00    	mov    $0x0,%r9d
  802764:	41 b8 00 00 00 00    	mov    $0x0,%r8d
  80276a:	b9 00 00 00 00       	mov    $0x0,%ecx
  80276f:	48 89 c2             	mov    %rax,%rdx
  802772:	be 01 00 00 00       	mov    $0x1,%esi
  802777:	bf 03 00 00 00       	mov    $0x3,%edi
  80277c:	48 b8 30 26 80 00 00 	movabs $0x802630,%rax
  802783:	00 00 00 
  802786:	ff d0                	callq  *%rax
  802788:	c9                   	leaveq 
  802789:	c3                   	retq   

000000000080278a <sys_getenvid>:
  80278a:	55                   	push   %rbp
  80278b:	48 89 e5             	mov    %rsp,%rbp
  80278e:	48 83 ec 10          	sub    $0x10,%rsp
  802792:	48 c7 04 24 00 00 00 	movq   $0x0,(%rsp)
  802799:	00 
  80279a:	41 b9 00 00 00 00    	mov    $0x0,%r9d
  8027a0:	41 b8 00 00 00 00    	mov    $0x0,%r8d
  8027a6:	b9 00 00 00 00       	mov    $0x0,%ecx
  8027ab:	ba 00 00 00 00       	mov    $0x0,%edx
  8027b0:	be 00 00 00 00       	mov    $0x0,%esi
  8027b5:	bf 02 00 00 00       	mov    $0x2,%edi
  8027ba:	48 b8 30 26 80 00 00 	movabs $0x802630,%rax
  8027c1:	00 00 00 
  8027c4:	ff d0                	callq  *%rax
  8027c6:	c9                   	leaveq 
  8027c7:	c3                   	retq   

00000000008027c8 <sys_yield>:
  8027c8:	55                   	push   %rbp
  8027c9:	48 89 e5             	mov    %rsp,%rbp
  8027cc:	48 83 ec 10          	sub    $0x10,%rsp
  8027d0:	48 c7 04 24 00 00 00 	movq   $0x0,(%rsp)
  8027d7:	00 
  8027d8:	41 b9 00 00 00 00    	mov    $0x0,%r9d
  8027de:	41 b8 00 00 00 00    	mov    $0x0,%r8d
  8027e4:	b9 00 00 00 00       	mov    $0x0,%ecx
  8027e9:	ba 00 00 00 00       	mov    $0x0,%edx
  8027ee:	be 00 00 00 00       	mov    $0x0,%esi
  8027f3:	bf 0b 00 00 00       	mov    $0xb,%edi
  8027f8:	48 b8 30 26 80 00 00 	movabs $0x802630,%rax
  8027ff:	00 00 00 
  802802:	ff d0                	callq  *%rax
  802804:	c9                   	leaveq 
  802805:	c3                   	retq   

0000000000802806 <sys_page_alloc>:
  802806:	55                   	push   %rbp
  802807:	48 89 e5             	mov    %rsp,%rbp
  80280a:	48 83 ec 20          	sub    $0x20,%rsp
  80280e:	89 7d fc             	mov    %edi,-0x4(%rbp)
  802811:	48 89 75 f0          	mov    %rsi,-0x10(%rbp)
  802815:	89 55 f8             	mov    %edx,-0x8(%rbp)
  802818:	8b 45 f8             	mov    -0x8(%rbp),%eax
  80281b:	48 63 c8             	movslq %eax,%rcx
  80281e:	48 8b 55 f0          	mov    -0x10(%rbp),%rdx
  802822:	8b 45 fc             	mov    -0x4(%rbp),%eax
  802825:	48 98                	cltq   
  802827:	48 c7 04 24 00 00 00 	movq   $0x0,(%rsp)
  80282e:	00 
  80282f:	41 b9 00 00 00 00    	mov    $0x0,%r9d
  802835:	49 89 c8             	mov    %rcx,%r8
  802838:	48 89 d1             	mov    %rdx,%rcx
  80283b:	48 89 c2             	mov    %rax,%rdx
  80283e:	be 01 00 00 00       	mov    $0x1,%esi
  802843:	bf 04 00 00 00       	mov    $0x4,%edi
  802848:	48 b8 30 26 80 00 00 	movabs $0x802630,%rax
  80284f:	00 00 00 
  802852:	ff d0                	callq  *%rax
  802854:	c9                   	leaveq 
  802855:	c3                   	retq   

0000000000802856 <sys_page_map>:
  802856:	55                   	push   %rbp
  802857:	48 89 e5             	mov    %rsp,%rbp
  80285a:	48 83 ec 30          	sub    $0x30,%rsp
  80285e:	89 7d fc             	mov    %edi,-0x4(%rbp)
  802861:	48 89 75 f0          	mov    %rsi,-0x10(%rbp)
  802865:	89 55 f8             	mov    %edx,-0x8(%rbp)
  802868:	48 89 4d e8          	mov    %rcx,-0x18(%rbp)
  80286c:	44 89 45 e4          	mov    %r8d,-0x1c(%rbp)
  802870:	8b 45 e4             	mov    -0x1c(%rbp),%eax
  802873:	48 63 c8             	movslq %eax,%rcx
  802876:	48 8b 7d e8          	mov    -0x18(%rbp),%rdi
  80287a:	8b 45 f8             	mov    -0x8(%rbp),%eax
  80287d:	48 63 f0             	movslq %eax,%rsi
  802880:	48 8b 55 f0          	mov    -0x10(%rbp),%rdx
  802884:	8b 45 fc             	mov    -0x4(%rbp),%eax
  802887:	48 98                	cltq   
  802889:	48 89 0c 24          	mov    %rcx,(%rsp)
  80288d:	49 89 f9             	mov    %rdi,%r9
  802890:	49 89 f0             	mov    %rsi,%r8
  802893:	48 89 d1             	mov    %rdx,%rcx
  802896:	48 89 c2             	mov    %rax,%rdx
  802899:	be 01 00 00 00       	mov    $0x1,%esi
  80289e:	bf 05 00 00 00       	mov    $0x5,%edi
  8028a3:	48 b8 30 26 80 00 00 	movabs $0x802630,%rax
  8028aa:	00 00 00 
  8028ad:	ff d0                	callq  *%rax
  8028af:	c9                   	leaveq 
  8028b0:	c3                   	retq   

00000000008028b1 <sys_page_unmap>:
  8028b1:	55                   	push   %rbp
  8028b2:	48 89 e5             	mov    %rsp,%rbp
  8028b5:	48 83 ec 20          	sub    $0x20,%rsp
  8028b9:	89 7d fc             	mov    %edi,-0x4(%rbp)
  8028bc:	48 89 75 f0          	mov    %rsi,-0x10(%rbp)
  8028c0:	48 8b 55 f0          	mov    -0x10(%rbp),%rdx
  8028c4:	8b 45 fc             	mov    -0x4(%rbp),%eax
  8028c7:	48 98                	cltq   
  8028c9:	48 c7 04 24 00 00 00 	movq   $0x0,(%rsp)
  8028d0:	00 
  8028d1:	41 b9 00 00 00 00    	mov    $0x0,%r9d
  8028d7:	41 b8 00 00 00 00    	mov    $0x0,%r8d
  8028dd:	48 89 d1             	mov    %rdx,%rcx
  8028e0:	48 89 c2             	mov    %rax,%rdx
  8028e3:	be 01 00 00 00       	mov    $0x1,%esi
  8028e8:	bf 06 00 00 00       	mov    $0x6,%edi
  8028ed:	48 b8 30 26 80 00 00 	movabs $0x802630,%rax
  8028f4:	00 00 00 
  8028f7:	ff d0                	callq  *%rax
  8028f9:	c9                   	leaveq 
  8028fa:	c3                   	retq   

00000000008028fb <sys_env_set_status>:
  8028fb:	55                   	push   %rbp
  8028fc:	48 89 e5             	mov    %rsp,%rbp
  8028ff:	48 83 ec 10          	sub    $0x10,%rsp
  802903:	89 7d fc             	mov    %edi,-0x4(%rbp)
  802906:	89 75 f8             	mov    %esi,-0x8(%rbp)
  802909:	8b 45 f8             	mov    -0x8(%rbp),%eax
  80290c:	48 63 d0             	movslq %eax,%rdx
  80290f:	8b 45 fc             	mov    -0x4(%rbp),%eax
  802912:	48 98                	cltq   
  802914:	48 c7 04 24 00 00 00 	movq   $0x0,(%rsp)
  80291b:	00 
  80291c:	41 b9 00 00 00 00    	mov    $0x0,%r9d
  802922:	41 b8 00 00 00 00    	mov    $0x0,%r8d
  802928:	48 89 d1             	mov    %rdx,%rcx
  80292b:	48 89 c2             	mov    %rax,%rdx
  80292e:	be 01 00 00 00       	mov    $0x1,%esi
  802933:	bf 08 00 00 00       	mov    $0x8,%edi
  802938:	48 b8 30 26 80 00 00 	movabs $0x802630,%rax
  80293f:	00 00 00 
  802942:	ff d0                	callq  *%rax
  802944:	c9                   	leaveq 
  802945:	c3                   	retq   

0000000000802946 <sys_env_set_trapframe>:
  802946:	55                   	push   %rbp
  802947:	48 89 e5             	mov    %rsp,%rbp
  80294a:	48 83 ec 20          	sub    $0x20,%rsp
  80294e:	89 7d fc             	mov    %edi,-0x4(%rbp)
  802951:	48 89 75 f0          	mov    %rsi,-0x10(%rbp)
  802955:	48 8b 55 f0          	mov    -0x10(%rbp),%rdx
  802959:	8b 45 fc             	mov    -0x4(%rbp),%eax
  80295c:	48 98                	cltq   
  80295e:	48 c7 04 24 00 00 00 	movq   $0x0,(%rsp)
  802965:	00 
  802966:	41 b9 00 00 00 00    	mov    $0x0,%r9d
  80296c:	41 b8 00 00 00 00    	mov    $0x0,%r8d
  802972:	48 89 d1             	mov    %rdx,%rcx
  802975:	48 89 c2             	mov    %rax,%rdx
  802978:	be 01 00 00 00       	mov    $0x1,%esi
  80297d:	bf 09 00 00 00       	mov    $0x9,%edi
  802982:	48 b8 30 26 80 00 00 	movabs $0x802630,%rax
  802989:	00 00 00 
  80298c:	ff d0                	callq  *%rax
  80298e:	c9                   	leaveq 
  80298f:	c3                   	retq   

0000000000802990 <sys_env_set_pgfault_upcall>:
  802990:	55                   	push   %rbp
  802991:	48 89 e5             	mov    %rsp,%rbp
  802994:	48 83 ec 20          	sub    $0x20,%rsp
  802998:	89 7d fc             	mov    %edi,-0x4(%rbp)
  80299b:	48 89 75 f0          	mov    %rsi,-0x10(%rbp)
  80299f:	48 8b 55 f0          	mov    -0x10(%rbp),%rdx
  8029a3:	8b 45 fc             	mov    -0x4(%rbp),%eax
  8029a6:	48 98                	cltq   
  8029a8:	48 c7 04 24 00 00 00 	movq   $0x0,(%rsp)
  8029af:	00 
  8029b0:	41 b9 00 00 00 00    	mov    $0x0,%r9d
  8029b6:	41 b8 00 00 00 00    	mov    $0x0,%r8d
  8029bc:	48 89 d1             	mov    %rdx,%rcx
  8029bf:	48 89 c2             	mov    %rax,%rdx
  8029c2:	be 01 00 00 00       	mov    $0x1,%esi
  8029c7:	bf 0a 00 00 00       	mov    $0xa,%edi
  8029cc:	48 b8 30 26 80 00 00 	movabs $0x802630,%rax
  8029d3:	00 00 00 
  8029d6:	ff d0                	callq  *%rax
  8029d8:	c9                   	leaveq 
  8029d9:	c3                   	retq   

00000000008029da <sys_ipc_try_send>:
  8029da:	55                   	push   %rbp
  8029db:	48 89 e5             	mov    %rsp,%rbp
  8029de:	48 83 ec 20          	sub    $0x20,%rsp
  8029e2:	89 7d fc             	mov    %edi,-0x4(%rbp)
  8029e5:	48 89 75 f0          	mov    %rsi,-0x10(%rbp)
  8029e9:	48 89 55 e8          	mov    %rdx,-0x18(%rbp)
  8029ed:	89 4d f8             	mov    %ecx,-0x8(%rbp)
  8029f0:	8b 45 f8             	mov    -0x8(%rbp),%eax
  8029f3:	48 63 f0             	movslq %eax,%rsi
  8029f6:	48 8b 4d e8          	mov    -0x18(%rbp),%rcx
  8029fa:	8b 45 fc             	mov    -0x4(%rbp),%eax
  8029fd:	48 98                	cltq   
  8029ff:	48 8b 55 f0          	mov    -0x10(%rbp),%rdx
  802a03:	48 c7 04 24 00 00 00 	movq   $0x0,(%rsp)
  802a0a:	00 
  802a0b:	49 89 f1             	mov    %rsi,%r9
  802a0e:	49 89 c8             	mov    %rcx,%r8
  802a11:	48 89 d1             	mov    %rdx,%rcx
  802a14:	48 89 c2             	mov    %rax,%rdx
  802a17:	be 00 00 00 00       	mov    $0x0,%esi
  802a1c:	bf 0c 00 00 00       	mov    $0xc,%edi
  802a21:	48 b8 30 26 80 00 00 	movabs $0x802630,%rax
  802a28:	00 00 00 
  802a2b:	ff d0                	callq  *%rax
  802a2d:	c9                   	leaveq 
  802a2e:	c3                   	retq   

0000000000802a2f <sys_ipc_recv>:
  802a2f:	55                   	push   %rbp
  802a30:	48 89 e5             	mov    %rsp,%rbp
  802a33:	48 83 ec 10          	sub    $0x10,%rsp
  802a37:	48 89 7d f8          	mov    %rdi,-0x8(%rbp)
  802a3b:	48 8b 45 f8          	mov    -0x8(%rbp),%rax
  802a3f:	48 c7 04 24 00 00 00 	movq   $0x0,(%rsp)
  802a46:	00 
  802a47:	41 b9 00 00 00 00    	mov    $0x0,%r9d
  802a4d:	41 b8 00 00 00 00    	mov    $0x0,%r8d
  802a53:	b9 00 00 00 00       	mov    $0x0,%ecx
  802a58:	48 89 c2             	mov    %rax,%rdx
  802a5b:	be 01 00 00 00       	mov    $0x1,%esi
  802a60:	bf 0d 00 00 00       	mov    $0xd,%edi
  802a65:	48 b8 30 26 80 00 00 	movabs $0x802630,%rax
  802a6c:	00 00 00 
  802a6f:	ff d0                	callq  *%rax
  802a71:	c9                   	leaveq 
  802a72:	c3                   	retq   

0000000000802a73 <sys_time_msec>:
  802a73:	55                   	push   %rbp
  802a74:	48 89 e5             	mov    %rsp,%rbp
  802a77:	48 83 ec 10          	sub    $0x10,%rsp
  802a7b:	48 c7 04 24 00 00 00 	movq   $0x0,(%rsp)
  802a82:	00 
  802a83:	41 b9 00 00 00 00    	mov    $0x0,%r9d
  802a89:	41 b8 00 00 00 00    	mov    $0x0,%r8d
  802a8f:	b9 00 00 00 00       	mov    $0x0,%ecx
  802a94:	ba 00 00 00 00       	mov    $0x0,%edx
  802a99:	be 00 00 00 00       	mov    $0x0,%esi
  802a9e:	bf 0e 00 00 00       	mov    $0xe,%edi
  802aa3:	48 b8 30 26 80 00 00 	movabs $0x802630,%rax
  802aaa:	00 00 00 
  802aad:	ff d0                	callq  *%rax
  802aaf:	c9                   	leaveq 
  802ab0:	c3                   	retq   

0000000000802ab1 <sys_net_transmit>:
  802ab1:	55                   	push   %rbp
  802ab2:	48 89 e5             	mov    %rsp,%rbp
  802ab5:	48 83 ec 20          	sub    $0x20,%rsp
  802ab9:	48 89 7d f8          	mov    %rdi,-0x8(%rbp)
  802abd:	89 75 f4             	mov    %esi,-0xc(%rbp)
  802ac0:	8b 55 f4             	mov    -0xc(%rbp),%edx
  802ac3:	48 8b 45 f8          	mov    -0x8(%rbp),%rax
  802ac7:	48 c7 04 24 00 00 00 	movq   $0x0,(%rsp)
  802ace:	00 
  802acf:	41 b9 00 00 00 00    	mov    $0x0,%r9d
  802ad5:	41 b8 00 00 00 00    	mov    $0x0,%r8d
  802adb:	48 89 d1             	mov    %rdx,%rcx
  802ade:	48 89 c2             	mov    %rax,%rdx
  802ae1:	be 00 00 00 00       	mov    $0x0,%esi
  802ae6:	bf 0f 00 00 00       	mov    $0xf,%edi
  802aeb:	48 b8 30 26 80 00 00 	movabs $0x802630,%rax
  802af2:	00 00 00 
  802af5:	ff d0                	callq  *%rax
  802af7:	c9                   	leaveq 
  802af8:	c3                   	retq   

0000000000802af9 <sys_net_receive>:
  802af9:	55                   	push   %rbp
  802afa:	48 89 e5             	mov    %rsp,%rbp
  802afd:	48 83 ec 20          	sub    $0x20,%rsp
  802b01:	48 89 7d f8          	mov    %rdi,-0x8(%rbp)
  802b05:	89 75 f4             	mov    %esi,-0xc(%rbp)
  802b08:	8b 55 f4             	mov    -0xc(%rbp),%edx
  802b0b:	48 8b 45 f8          	mov    -0x8(%rbp),%rax
  802b0f:	48 c7 04 24 00 00 00 	movq   $0x0,(%rsp)
  802b16:	00 
  802b17:	41 b9 00 00 00 00    	mov    $0x0,%r9d
  802b1d:	41 b8 00 00 00 00    	mov    $0x0,%r8d
  802b23:	48 89 d1             	mov    %rdx,%rcx
  802b26:	48 89 c2             	mov    %rax,%rdx
  802b29:	be 00 00 00 00       	mov    $0x0,%esi
  802b2e:	bf 10 00 00 00       	mov    $0x10,%edi
  802b33:	48 b8 30 26 80 00 00 	movabs $0x802630,%rax
  802b3a:	00 00 00 
  802b3d:	ff d0                	callq  *%rax
  802b3f:	c9                   	leaveq 
  802b40:	c3                   	retq   

0000000000802b41 <sys_ept_map>:
  802b41:	55                   	push   %rbp
  802b42:	48 89 e5             	mov    %rsp,%rbp
  802b45:	48 83 ec 30          	sub    $0x30,%rsp
  802b49:	89 7d fc             	mov    %edi,-0x4(%rbp)
  802b4c:	48 89 75 f0          	mov    %rsi,-0x10(%rbp)
  802b50:	89 55 f8             	mov    %edx,-0x8(%rbp)
  802b53:	48 89 4d e8          	mov    %rcx,-0x18(%rbp)
  802b57:	44 89 45 e4          	mov    %r8d,-0x1c(%rbp)
  802b5b:	8b 45 e4             	mov    -0x1c(%rbp),%eax
  802b5e:	48 63 c8             	movslq %eax,%rcx
  802b61:	48 8b 7d e8          	mov    -0x18(%rbp),%rdi
  802b65:	8b 45 f8             	mov    -0x8(%rbp),%eax
  802b68:	48 63 f0             	movslq %eax,%rsi
  802b6b:	48 8b 55 f0          	mov    -0x10(%rbp),%rdx
  802b6f:	8b 45 fc             	mov    -0x4(%rbp),%eax
  802b72:	48 98                	cltq   
  802b74:	48 89 0c 24          	mov    %rcx,(%rsp)
  802b78:	49 89 f9             	mov    %rdi,%r9
  802b7b:	49 89 f0             	mov    %rsi,%r8
  802b7e:	48 89 d1             	mov    %rdx,%rcx
  802b81:	48 89 c2             	mov    %rax,%rdx
  802b84:	be 00 00 00 00       	mov    $0x0,%esi
  802b89:	bf 11 00 00 00       	mov    $0x11,%edi
  802b8e:	48 b8 30 26 80 00 00 	movabs $0x802630,%rax
  802b95:	00 00 00 
  802b98:	ff d0                	callq  *%rax
  802b9a:	c9                   	leaveq 
  802b9b:	c3                   	retq   

0000000000802b9c <sys_env_mkguest>:
  802b9c:	55                   	push   %rbp
  802b9d:	48 89 e5             	mov    %rsp,%rbp
  802ba0:	48 83 ec 20          	sub    $0x20,%rsp
  802ba4:	48 89 7d f8          	mov    %rdi,-0x8(%rbp)
  802ba8:	48 89 75 f0          	mov    %rsi,-0x10(%rbp)
  802bac:	48 8b 55 f0          	mov    -0x10(%rbp),%rdx
  802bb0:	48 8b 45 f8          	mov    -0x8(%rbp),%rax
  802bb4:	48 c7 04 24 00 00 00 	movq   $0x0,(%rsp)
  802bbb:	00 
  802bbc:	41 b9 00 00 00 00    	mov    $0x0,%r9d
  802bc2:	41 b8 00 00 00 00    	mov    $0x0,%r8d
  802bc8:	48 89 d1             	mov    %rdx,%rcx
  802bcb:	48 89 c2             	mov    %rax,%rdx
  802bce:	be 00 00 00 00       	mov    $0x0,%esi
  802bd3:	bf 12 00 00 00       	mov    $0x12,%edi
  802bd8:	48 b8 30 26 80 00 00 	movabs $0x802630,%rax
  802bdf:	00 00 00 
  802be2:	ff d0                	callq  *%rax
  802be4:	c9                   	leaveq 
  802be5:	c3                   	retq   

0000000000802be6 <pgfault>:
  802be6:	55                   	push   %rbp
  802be7:	48 89 e5             	mov    %rsp,%rbp
  802bea:	48 83 ec 30          	sub    $0x30,%rsp
  802bee:	48 89 7d d8          	mov    %rdi,-0x28(%rbp)
  802bf2:	48 8b 45 d8          	mov    -0x28(%rbp),%rax
  802bf6:	48 8b 00             	mov    (%rax),%rax
  802bf9:	48 89 45 e0          	mov    %rax,-0x20(%rbp)
  802bfd:	48 8b 45 d8          	mov    -0x28(%rbp),%rax
  802c01:	48 8b 40 08          	mov    0x8(%rax),%rax
  802c05:	89 45 fc             	mov    %eax,-0x4(%rbp)
  802c08:	8b 45 fc             	mov    -0x4(%rbp),%eax
  802c0b:	83 e0 02             	and    $0x2,%eax
  802c0e:	85 c0                	test   %eax,%eax
  802c10:	75 40                	jne    802c52 <pgfault+0x6c>
  802c12:	48 8b 45 d8          	mov    -0x28(%rbp),%rax
  802c16:	48 8b 90 88 00 00 00 	mov    0x88(%rax),%rdx
  802c1d:	48 8b 45 e0          	mov    -0x20(%rbp),%rax
  802c21:	49 89 d0             	mov    %rdx,%r8
  802c24:	48 89 c1             	mov    %rax,%rcx
  802c27:	48 ba 38 13 82 00 00 	movabs $0x821338,%rdx
  802c2e:	00 00 00 
  802c31:	be 1f 00 00 00       	mov    $0x1f,%esi
  802c36:	48 bf 51 13 82 00 00 	movabs $0x821351,%rdi
  802c3d:	00 00 00 
  802c40:	b8 00 00 00 00       	mov    $0x0,%eax
  802c45:	49 b9 e9 10 80 00 00 	movabs $0x8010e9,%r9
  802c4c:	00 00 00 
  802c4f:	41 ff d1             	callq  *%r9
  802c52:	48 8b 45 e0          	mov    -0x20(%rbp),%rax
  802c56:	48 c1 e8 0c          	shr    $0xc,%rax
  802c5a:	48 89 c2             	mov    %rax,%rdx
  802c5d:	48 b8 00 00 00 00 00 	movabs $0x10000000000,%rax
  802c64:	01 00 00 
  802c67:	48 8b 04 d0          	mov    (%rax,%rdx,8),%rax
  802c6b:	25 07 08 00 00       	and    $0x807,%eax
  802c70:	48 3d 05 08 00 00    	cmp    $0x805,%rax
  802c76:	74 4e                	je     802cc6 <pgfault+0xe0>
  802c78:	48 8b 45 e0          	mov    -0x20(%rbp),%rax
  802c7c:	48 c1 e8 0c          	shr    $0xc,%rax
  802c80:	48 89 c2             	mov    %rax,%rdx
  802c83:	48 b8 00 00 00 00 00 	movabs $0x10000000000,%rax
  802c8a:	01 00 00 
  802c8d:	48 8b 14 d0          	mov    (%rax,%rdx,8),%rdx
  802c91:	48 8b 45 e0          	mov    -0x20(%rbp),%rax
  802c95:	49 89 d0             	mov    %rdx,%r8
  802c98:	48 89 c1             	mov    %rax,%rcx
  802c9b:	48 ba 60 13 82 00 00 	movabs $0x821360,%rdx
  802ca2:	00 00 00 
  802ca5:	be 22 00 00 00       	mov    $0x22,%esi
  802caa:	48 bf 51 13 82 00 00 	movabs $0x821351,%rdi
  802cb1:	00 00 00 
  802cb4:	b8 00 00 00 00       	mov    $0x0,%eax
  802cb9:	49 b9 e9 10 80 00 00 	movabs $0x8010e9,%r9
  802cc0:	00 00 00 
  802cc3:	41 ff d1             	callq  *%r9
  802cc6:	ba 07 00 00 00       	mov    $0x7,%edx
  802ccb:	be 00 f0 5f 00       	mov    $0x5ff000,%esi
  802cd0:	bf 00 00 00 00       	mov    $0x0,%edi
  802cd5:	48 b8 06 28 80 00 00 	movabs $0x802806,%rax
  802cdc:	00 00 00 
  802cdf:	ff d0                	callq  *%rax
  802ce1:	89 45 f8             	mov    %eax,-0x8(%rbp)
  802ce4:	83 7d f8 00          	cmpl   $0x0,-0x8(%rbp)
  802ce8:	79 30                	jns    802d1a <pgfault+0x134>
  802cea:	8b 45 f8             	mov    -0x8(%rbp),%eax
  802ced:	89 c1                	mov    %eax,%ecx
  802cef:	48 ba 8b 13 82 00 00 	movabs $0x82138b,%rdx
  802cf6:	00 00 00 
  802cf9:	be 30 00 00 00       	mov    $0x30,%esi
  802cfe:	48 bf 51 13 82 00 00 	movabs $0x821351,%rdi
  802d05:	00 00 00 
  802d08:	b8 00 00 00 00       	mov    $0x0,%eax
  802d0d:	49 b8 e9 10 80 00 00 	movabs $0x8010e9,%r8
  802d14:	00 00 00 
  802d17:	41 ff d0             	callq  *%r8
  802d1a:	48 8b 45 e0          	mov    -0x20(%rbp),%rax
  802d1e:	48 89 45 f0          	mov    %rax,-0x10(%rbp)
  802d22:	48 8b 45 f0          	mov    -0x10(%rbp),%rax
  802d26:	48 25 00 f0 ff ff    	and    $0xfffffffffffff000,%rax
  802d2c:	ba 00 10 00 00       	mov    $0x1000,%edx
  802d31:	48 89 c6             	mov    %rax,%rsi
  802d34:	bf 00 f0 5f 00       	mov    $0x5ff000,%edi
  802d39:	48 b8 fb 21 80 00 00 	movabs $0x8021fb,%rax
  802d40:	00 00 00 
  802d43:	ff d0                	callq  *%rax
  802d45:	48 8b 45 e0          	mov    -0x20(%rbp),%rax
  802d49:	48 89 45 e8          	mov    %rax,-0x18(%rbp)
  802d4d:	48 8b 45 e8          	mov    -0x18(%rbp),%rax
  802d51:	48 25 00 f0 ff ff    	and    $0xfffffffffffff000,%rax
  802d57:	41 b8 07 00 00 00    	mov    $0x7,%r8d
  802d5d:	48 89 c1             	mov    %rax,%rcx
  802d60:	ba 00 00 00 00       	mov    $0x0,%edx
  802d65:	be 00 f0 5f 00       	mov    $0x5ff000,%esi
  802d6a:	bf 00 00 00 00       	mov    $0x0,%edi
  802d6f:	48 b8 56 28 80 00 00 	movabs $0x802856,%rax
  802d76:	00 00 00 
  802d79:	ff d0                	callq  *%rax
  802d7b:	89 45 f8             	mov    %eax,-0x8(%rbp)
  802d7e:	83 7d f8 00          	cmpl   $0x0,-0x8(%rbp)
  802d82:	79 30                	jns    802db4 <pgfault+0x1ce>
  802d84:	8b 45 f8             	mov    -0x8(%rbp),%eax
  802d87:	89 c1                	mov    %eax,%ecx
  802d89:	48 ba 9e 13 82 00 00 	movabs $0x82139e,%rdx
  802d90:	00 00 00 
  802d93:	be 35 00 00 00       	mov    $0x35,%esi
  802d98:	48 bf 51 13 82 00 00 	movabs $0x821351,%rdi
  802d9f:	00 00 00 
  802da2:	b8 00 00 00 00       	mov    $0x0,%eax
  802da7:	49 b8 e9 10 80 00 00 	movabs $0x8010e9,%r8
  802dae:	00 00 00 
  802db1:	41 ff d0             	callq  *%r8
  802db4:	be 00 f0 5f 00       	mov    $0x5ff000,%esi
  802db9:	bf 00 00 00 00       	mov    $0x0,%edi
  802dbe:	48 b8 b1 28 80 00 00 	movabs $0x8028b1,%rax
  802dc5:	00 00 00 
  802dc8:	ff d0                	callq  *%rax
  802dca:	89 45 f8             	mov    %eax,-0x8(%rbp)
  802dcd:	83 7d f8 00          	cmpl   $0x0,-0x8(%rbp)
  802dd1:	79 30                	jns    802e03 <pgfault+0x21d>
  802dd3:	8b 45 f8             	mov    -0x8(%rbp),%eax
  802dd6:	89 c1                	mov    %eax,%ecx
  802dd8:	48 ba af 13 82 00 00 	movabs $0x8213af,%rdx
  802ddf:	00 00 00 
  802de2:	be 39 00 00 00       	mov    $0x39,%esi
  802de7:	48 bf 51 13 82 00 00 	movabs $0x821351,%rdi
  802dee:	00 00 00 
  802df1:	b8 00 00 00 00       	mov    $0x0,%eax
  802df6:	49 b8 e9 10 80 00 00 	movabs $0x8010e9,%r8
  802dfd:	00 00 00 
  802e00:	41 ff d0             	callq  *%r8
  802e03:	c9                   	leaveq 
  802e04:	c3                   	retq   

0000000000802e05 <duppage>:
  802e05:	55                   	push   %rbp
  802e06:	48 89 e5             	mov    %rsp,%rbp
  802e09:	48 83 ec 30          	sub    $0x30,%rsp
  802e0d:	89 7d dc             	mov    %edi,-0x24(%rbp)
  802e10:	89 75 d8             	mov    %esi,-0x28(%rbp)
  802e13:	8b 45 d8             	mov    -0x28(%rbp),%eax
  802e16:	c1 e0 0c             	shl    $0xc,%eax
  802e19:	89 c0                	mov    %eax,%eax
  802e1b:	48 89 45 f8          	mov    %rax,-0x8(%rbp)
  802e1f:	48 b8 00 00 00 00 00 	movabs $0x10000000000,%rax
  802e26:	01 00 00 
  802e29:	8b 55 d8             	mov    -0x28(%rbp),%edx
  802e2c:	48 8b 04 d0          	mov    (%rax,%rdx,8),%rax
  802e30:	48 89 45 f0          	mov    %rax,-0x10(%rbp)
  802e34:	48 8b 45 f0          	mov    -0x10(%rbp),%rax
  802e38:	25 02 08 00 00       	and    $0x802,%eax
  802e3d:	48 85 c0             	test   %rax,%rax
  802e40:	74 0e                	je     802e50 <duppage+0x4b>
  802e42:	48 8b 45 f0          	mov    -0x10(%rbp),%rax
  802e46:	25 00 04 00 00       	and    $0x400,%eax
  802e4b:	48 85 c0             	test   %rax,%rax
  802e4e:	74 70                	je     802ec0 <duppage+0xbb>
  802e50:	48 8b 45 f0          	mov    -0x10(%rbp),%rax
  802e54:	25 07 0e 00 00       	and    $0xe07,%eax
  802e59:	89 c6                	mov    %eax,%esi
  802e5b:	48 8b 4d f8          	mov    -0x8(%rbp),%rcx
  802e5f:	8b 55 dc             	mov    -0x24(%rbp),%edx
  802e62:	48 8b 45 f8          	mov    -0x8(%rbp),%rax
  802e66:	41 89 f0             	mov    %esi,%r8d
  802e69:	48 89 c6             	mov    %rax,%rsi
  802e6c:	bf 00 00 00 00       	mov    $0x0,%edi
  802e71:	48 b8 56 28 80 00 00 	movabs $0x802856,%rax
  802e78:	00 00 00 
  802e7b:	ff d0                	callq  *%rax
  802e7d:	89 45 ec             	mov    %eax,-0x14(%rbp)
  802e80:	83 7d ec 00          	cmpl   $0x0,-0x14(%rbp)
  802e84:	79 30                	jns    802eb6 <duppage+0xb1>
  802e86:	8b 45 ec             	mov    -0x14(%rbp),%eax
  802e89:	89 c1                	mov    %eax,%ecx
  802e8b:	48 ba 9e 13 82 00 00 	movabs $0x82139e,%rdx
  802e92:	00 00 00 
  802e95:	be 63 00 00 00       	mov    $0x63,%esi
  802e9a:	48 bf 51 13 82 00 00 	movabs $0x821351,%rdi
  802ea1:	00 00 00 
  802ea4:	b8 00 00 00 00       	mov    $0x0,%eax
  802ea9:	49 b8 e9 10 80 00 00 	movabs $0x8010e9,%r8
  802eb0:	00 00 00 
  802eb3:	41 ff d0             	callq  *%r8
  802eb6:	b8 00 00 00 00       	mov    $0x0,%eax
  802ebb:	e9 c4 00 00 00       	jmpq   802f84 <duppage+0x17f>
  802ec0:	48 8b 4d f8          	mov    -0x8(%rbp),%rcx
  802ec4:	8b 55 dc             	mov    -0x24(%rbp),%edx
  802ec7:	48 8b 45 f8          	mov    -0x8(%rbp),%rax
  802ecb:	41 b8 05 08 00 00    	mov    $0x805,%r8d
  802ed1:	48 89 c6             	mov    %rax,%rsi
  802ed4:	bf 00 00 00 00       	mov    $0x0,%edi
  802ed9:	48 b8 56 28 80 00 00 	movabs $0x802856,%rax
  802ee0:	00 00 00 
  802ee3:	ff d0                	callq  *%rax
  802ee5:	89 45 ec             	mov    %eax,-0x14(%rbp)
  802ee8:	83 7d ec 00          	cmpl   $0x0,-0x14(%rbp)
  802eec:	79 30                	jns    802f1e <duppage+0x119>
  802eee:	8b 45 ec             	mov    -0x14(%rbp),%eax
  802ef1:	89 c1                	mov    %eax,%ecx
  802ef3:	48 ba 9e 13 82 00 00 	movabs $0x82139e,%rdx
  802efa:	00 00 00 
  802efd:	be 7e 00 00 00       	mov    $0x7e,%esi
  802f02:	48 bf 51 13 82 00 00 	movabs $0x821351,%rdi
  802f09:	00 00 00 
  802f0c:	b8 00 00 00 00       	mov    $0x0,%eax
  802f11:	49 b8 e9 10 80 00 00 	movabs $0x8010e9,%r8
  802f18:	00 00 00 
  802f1b:	41 ff d0             	callq  *%r8
  802f1e:	48 8b 55 f8          	mov    -0x8(%rbp),%rdx
  802f22:	48 8b 45 f8          	mov    -0x8(%rbp),%rax
  802f26:	41 b8 05 08 00 00    	mov    $0x805,%r8d
  802f2c:	48 89 d1             	mov    %rdx,%rcx
  802f2f:	ba 00 00 00 00       	mov    $0x0,%edx
  802f34:	48 89 c6             	mov    %rax,%rsi
  802f37:	bf 00 00 00 00       	mov    $0x0,%edi
  802f3c:	48 b8 56 28 80 00 00 	movabs $0x802856,%rax
  802f43:	00 00 00 
  802f46:	ff d0                	callq  *%rax
  802f48:	89 45 ec             	mov    %eax,-0x14(%rbp)
  802f4b:	83 7d ec 00          	cmpl   $0x0,-0x14(%rbp)
  802f4f:	79 30                	jns    802f81 <duppage+0x17c>
  802f51:	8b 45 ec             	mov    -0x14(%rbp),%eax
  802f54:	89 c1                	mov    %eax,%ecx
  802f56:	48 ba 9e 13 82 00 00 	movabs $0x82139e,%rdx
  802f5d:	00 00 00 
  802f60:	be 80 00 00 00       	mov    $0x80,%esi
  802f65:	48 bf 51 13 82 00 00 	movabs $0x821351,%rdi
  802f6c:	00 00 00 
  802f6f:	b8 00 00 00 00       	mov    $0x0,%eax
  802f74:	49 b8 e9 10 80 00 00 	movabs $0x8010e9,%r8
  802f7b:	00 00 00 
  802f7e:	41 ff d0             	callq  *%r8
  802f81:	8b 45 ec             	mov    -0x14(%rbp),%eax
  802f84:	c9                   	leaveq 
  802f85:	c3                   	retq   

0000000000802f86 <fork>:
  802f86:	55                   	push   %rbp
  802f87:	48 89 e5             	mov    %rsp,%rbp
  802f8a:	48 83 ec 20          	sub    $0x20,%rsp
  802f8e:	48 bf e6 2b 80 00 00 	movabs $0x802be6,%rdi
  802f95:	00 00 00 
  802f98:	48 b8 9c 5b 80 00 00 	movabs $0x805b9c,%rax
  802f9f:	00 00 00 
  802fa2:	ff d0                	callq  *%rax
  802fa4:	b8 07 00 00 00       	mov    $0x7,%eax
  802fa9:	cd 30                	int    $0x30
  802fab:	89 45 ec             	mov    %eax,-0x14(%rbp)
  802fae:	8b 45 ec             	mov    -0x14(%rbp),%eax
  802fb1:	89 45 f8             	mov    %eax,-0x8(%rbp)
  802fb4:	83 7d f8 00          	cmpl   $0x0,-0x8(%rbp)
  802fb8:	79 08                	jns    802fc2 <fork+0x3c>
  802fba:	8b 45 f8             	mov    -0x8(%rbp),%eax
  802fbd:	e9 09 02 00 00       	jmpq   8031cb <fork+0x245>
  802fc2:	83 7d f8 00          	cmpl   $0x0,-0x8(%rbp)
  802fc6:	75 3e                	jne    803006 <fork+0x80>
  802fc8:	48 b8 8a 27 80 00 00 	movabs $0x80278a,%rax
  802fcf:	00 00 00 
  802fd2:	ff d0                	callq  *%rax
  802fd4:	25 ff 03 00 00       	and    $0x3ff,%eax
  802fd9:	48 98                	cltq   
  802fdb:	48 69 d0 68 01 00 00 	imul   $0x168,%rax,%rdx
  802fe2:	48 b8 00 00 80 00 80 	movabs $0x8000800000,%rax
  802fe9:	00 00 00 
  802fec:	48 01 c2             	add    %rax,%rdx
  802fef:	48 b8 70 75 b5 00 00 	movabs $0xb57570,%rax
  802ff6:	00 00 00 
  802ff9:	48 89 10             	mov    %rdx,(%rax)
  802ffc:	b8 00 00 00 00       	mov    $0x0,%eax
  803001:	e9 c5 01 00 00       	jmpq   8031cb <fork+0x245>
  803006:	c7 45 fc 00 00 00 00 	movl   $0x0,-0x4(%rbp)
  80300d:	e9 a4 00 00 00       	jmpq   8030b6 <fork+0x130>
  803012:	8b 45 fc             	mov    -0x4(%rbp),%eax
  803015:	c1 f8 12             	sar    $0x12,%eax
  803018:	89 c2                	mov    %eax,%edx
  80301a:	48 b8 00 00 40 80 00 	movabs $0x10080400000,%rax
  803021:	01 00 00 
  803024:	48 63 d2             	movslq %edx,%rdx
  803027:	48 8b 04 d0          	mov    (%rax,%rdx,8),%rax
  80302b:	83 e0 01             	and    $0x1,%eax
  80302e:	48 85 c0             	test   %rax,%rax
  803031:	74 21                	je     803054 <fork+0xce>
  803033:	8b 45 fc             	mov    -0x4(%rbp),%eax
  803036:	c1 f8 09             	sar    $0x9,%eax
  803039:	89 c2                	mov    %eax,%edx
  80303b:	48 b8 00 00 00 80 00 	movabs $0x10080000000,%rax
  803042:	01 00 00 
  803045:	48 63 d2             	movslq %edx,%rdx
  803048:	48 8b 04 d0          	mov    (%rax,%rdx,8),%rax
  80304c:	83 e0 01             	and    $0x1,%eax
  80304f:	48 85 c0             	test   %rax,%rax
  803052:	75 09                	jne    80305d <fork+0xd7>
  803054:	81 45 fc 00 02 00 00 	addl   $0x200,-0x4(%rbp)
  80305b:	eb 59                	jmp    8030b6 <fork+0x130>
  80305d:	8b 45 fc             	mov    -0x4(%rbp),%eax
  803060:	05 00 02 00 00       	add    $0x200,%eax
  803065:	89 45 f4             	mov    %eax,-0xc(%rbp)
  803068:	eb 44                	jmp    8030ae <fork+0x128>
  80306a:	48 b8 00 00 00 00 00 	movabs $0x10000000000,%rax
  803071:	01 00 00 
  803074:	8b 55 fc             	mov    -0x4(%rbp),%edx
  803077:	48 63 d2             	movslq %edx,%rdx
  80307a:	48 8b 04 d0          	mov    (%rax,%rdx,8),%rax
  80307e:	83 e0 05             	and    $0x5,%eax
  803081:	48 83 f8 05          	cmp    $0x5,%rax
  803085:	74 02                	je     803089 <fork+0x103>
  803087:	eb 21                	jmp    8030aa <fork+0x124>
  803089:	81 7d fc ff f7 0e 00 	cmpl   $0xef7ff,-0x4(%rbp)
  803090:	75 02                	jne    803094 <fork+0x10e>
  803092:	eb 16                	jmp    8030aa <fork+0x124>
  803094:	8b 55 fc             	mov    -0x4(%rbp),%edx
  803097:	8b 45 f8             	mov    -0x8(%rbp),%eax
  80309a:	89 d6                	mov    %edx,%esi
  80309c:	89 c7                	mov    %eax,%edi
  80309e:	48 b8 05 2e 80 00 00 	movabs $0x802e05,%rax
  8030a5:	00 00 00 
  8030a8:	ff d0                	callq  *%rax
  8030aa:	83 45 fc 01          	addl   $0x1,-0x4(%rbp)
  8030ae:	8b 45 fc             	mov    -0x4(%rbp),%eax
  8030b1:	3b 45 f4             	cmp    -0xc(%rbp),%eax
  8030b4:	7c b4                	jl     80306a <fork+0xe4>
  8030b6:	8b 45 fc             	mov    -0x4(%rbp),%eax
  8030b9:	3d ff 07 00 08       	cmp    $0x80007ff,%eax
  8030be:	0f 86 4e ff ff ff    	jbe    803012 <fork+0x8c>
  8030c4:	8b 45 f8             	mov    -0x8(%rbp),%eax
  8030c7:	ba 07 00 00 00       	mov    $0x7,%edx
  8030cc:	be 00 f0 7f ef       	mov    $0xef7ff000,%esi
  8030d1:	89 c7                	mov    %eax,%edi
  8030d3:	48 b8 06 28 80 00 00 	movabs $0x802806,%rax
  8030da:	00 00 00 
  8030dd:	ff d0                	callq  *%rax
  8030df:	89 45 f0             	mov    %eax,-0x10(%rbp)
  8030e2:	83 7d f0 00          	cmpl   $0x0,-0x10(%rbp)
  8030e6:	79 30                	jns    803118 <fork+0x192>
  8030e8:	8b 45 f0             	mov    -0x10(%rbp),%eax
  8030eb:	89 c1                	mov    %eax,%ecx
  8030ed:	48 ba c8 13 82 00 00 	movabs $0x8213c8,%rdx
  8030f4:	00 00 00 
  8030f7:	be bc 00 00 00       	mov    $0xbc,%esi
  8030fc:	48 bf 51 13 82 00 00 	movabs $0x821351,%rdi
  803103:	00 00 00 
  803106:	b8 00 00 00 00       	mov    $0x0,%eax
  80310b:	49 b8 e9 10 80 00 00 	movabs $0x8010e9,%r8
  803112:	00 00 00 
  803115:	41 ff d0             	callq  *%r8
  803118:	48 b8 70 75 b5 00 00 	movabs $0xb57570,%rax
  80311f:	00 00 00 
  803122:	48 8b 00             	mov    (%rax),%rax
  803125:	48 8b 90 f0 00 00 00 	mov    0xf0(%rax),%rdx
  80312c:	8b 45 f8             	mov    -0x8(%rbp),%eax
  80312f:	48 89 d6             	mov    %rdx,%rsi
  803132:	89 c7                	mov    %eax,%edi
  803134:	48 b8 90 29 80 00 00 	movabs $0x802990,%rax
  80313b:	00 00 00 
  80313e:	ff d0                	callq  *%rax
  803140:	89 45 f0             	mov    %eax,-0x10(%rbp)
  803143:	83 7d f0 00          	cmpl   $0x0,-0x10(%rbp)
  803147:	79 30                	jns    803179 <fork+0x1f3>
  803149:	8b 45 f0             	mov    -0x10(%rbp),%eax
  80314c:	89 c1                	mov    %eax,%ecx
  80314e:	48 ba e8 13 82 00 00 	movabs $0x8213e8,%rdx
  803155:	00 00 00 
  803158:	be c0 00 00 00       	mov    $0xc0,%esi
  80315d:	48 bf 51 13 82 00 00 	movabs $0x821351,%rdi
  803164:	00 00 00 
  803167:	b8 00 00 00 00       	mov    $0x0,%eax
  80316c:	49 b8 e9 10 80 00 00 	movabs $0x8010e9,%r8
  803173:	00 00 00 
  803176:	41 ff d0             	callq  *%r8
  803179:	8b 45 f8             	mov    -0x8(%rbp),%eax
  80317c:	be 02 00 00 00       	mov    $0x2,%esi
  803181:	89 c7                	mov    %eax,%edi
  803183:	48 b8 fb 28 80 00 00 	movabs $0x8028fb,%rax
  80318a:	00 00 00 
  80318d:	ff d0                	callq  *%rax
  80318f:	89 45 f0             	mov    %eax,-0x10(%rbp)
  803192:	83 7d f0 00          	cmpl   $0x0,-0x10(%rbp)
  803196:	79 30                	jns    8031c8 <fork+0x242>
  803198:	8b 45 f0             	mov    -0x10(%rbp),%eax
  80319b:	89 c1                	mov    %eax,%ecx
  80319d:	48 ba 07 14 82 00 00 	movabs $0x821407,%rdx
  8031a4:	00 00 00 
  8031a7:	be c5 00 00 00       	mov    $0xc5,%esi
  8031ac:	48 bf 51 13 82 00 00 	movabs $0x821351,%rdi
  8031b3:	00 00 00 
  8031b6:	b8 00 00 00 00       	mov    $0x0,%eax
  8031bb:	49 b8 e9 10 80 00 00 	movabs $0x8010e9,%r8
  8031c2:	00 00 00 
  8031c5:	41 ff d0             	callq  *%r8
  8031c8:	8b 45 f8             	mov    -0x8(%rbp),%eax
  8031cb:	c9                   	leaveq 
  8031cc:	c3                   	retq   

00000000008031cd <sfork>:
  8031cd:	55                   	push   %rbp
  8031ce:	48 89 e5             	mov    %rsp,%rbp
  8031d1:	48 ba 1e 14 82 00 00 	movabs $0x82141e,%rdx
  8031d8:	00 00 00 
  8031db:	be d2 00 00 00       	mov    $0xd2,%esi
  8031e0:	48 bf 51 13 82 00 00 	movabs $0x821351,%rdi
  8031e7:	00 00 00 
  8031ea:	b8 00 00 00 00       	mov    $0x0,%eax
  8031ef:	48 b9 e9 10 80 00 00 	movabs $0x8010e9,%rcx
  8031f6:	00 00 00 
  8031f9:	ff d1                	callq  *%rcx

00000000008031fb <ipc_recv>:
  8031fb:	55                   	push   %rbp
  8031fc:	48 89 e5             	mov    %rsp,%rbp
  8031ff:	48 83 ec 30          	sub    $0x30,%rsp
  803203:	48 89 7d e8          	mov    %rdi,-0x18(%rbp)
  803207:	48 89 75 e0          	mov    %rsi,-0x20(%rbp)
  80320b:	48 89 55 d8          	mov    %rdx,-0x28(%rbp)
  80320f:	48 83 7d e0 00       	cmpq   $0x0,-0x20(%rbp)
  803214:	75 0e                	jne    803224 <ipc_recv+0x29>
  803216:	48 b8 00 00 80 00 80 	movabs $0x8000800000,%rax
  80321d:	00 00 00 
  803220:	48 89 45 e0          	mov    %rax,-0x20(%rbp)
  803224:	48 8b 45 e0          	mov    -0x20(%rbp),%rax
  803228:	48 89 c7             	mov    %rax,%rdi
  80322b:	48 b8 2f 2a 80 00 00 	movabs $0x802a2f,%rax
  803232:	00 00 00 
  803235:	ff d0                	callq  *%rax
  803237:	89 45 fc             	mov    %eax,-0x4(%rbp)
  80323a:	83 7d fc 00          	cmpl   $0x0,-0x4(%rbp)
  80323e:	79 27                	jns    803267 <ipc_recv+0x6c>
  803240:	48 83 7d e8 00       	cmpq   $0x0,-0x18(%rbp)
  803245:	74 0a                	je     803251 <ipc_recv+0x56>
  803247:	48 8b 45 e8          	mov    -0x18(%rbp),%rax
  80324b:	c7 00 00 00 00 00    	movl   $0x0,(%rax)
  803251:	48 83 7d d8 00       	cmpq   $0x0,-0x28(%rbp)
  803256:	74 0a                	je     803262 <ipc_recv+0x67>
  803258:	48 8b 45 d8          	mov    -0x28(%rbp),%rax
  80325c:	c7 00 00 00 00 00    	movl   $0x0,(%rax)
  803262:	8b 45 fc             	mov    -0x4(%rbp),%eax
  803265:	eb 53                	jmp    8032ba <ipc_recv+0xbf>
  803267:	48 83 7d e8 00       	cmpq   $0x0,-0x18(%rbp)
  80326c:	74 19                	je     803287 <ipc_recv+0x8c>
  80326e:	48 b8 70 75 b5 00 00 	movabs $0xb57570,%rax
  803275:	00 00 00 
  803278:	48 8b 00             	mov    (%rax),%rax
  80327b:	8b 90 0c 01 00 00    	mov    0x10c(%rax),%edx
  803281:	48 8b 45 e8          	mov    -0x18(%rbp),%rax
  803285:	89 10                	mov    %edx,(%rax)
  803287:	48 83 7d d8 00       	cmpq   $0x0,-0x28(%rbp)
  80328c:	74 19                	je     8032a7 <ipc_recv+0xac>
  80328e:	48 b8 70 75 b5 00 00 	movabs $0xb57570,%rax
  803295:	00 00 00 
  803298:	48 8b 00             	mov    (%rax),%rax
  80329b:	8b 90 10 01 00 00    	mov    0x110(%rax),%edx
  8032a1:	48 8b 45 d8          	mov    -0x28(%rbp),%rax
  8032a5:	89 10                	mov    %edx,(%rax)
  8032a7:	48 b8 70 75 b5 00 00 	movabs $0xb57570,%rax
  8032ae:	00 00 00 
  8032b1:	48 8b 00             	mov    (%rax),%rax
  8032b4:	8b 80 08 01 00 00    	mov    0x108(%rax),%eax
  8032ba:	c9                   	leaveq 
  8032bb:	c3                   	retq   

00000000008032bc <ipc_send>:
  8032bc:	55                   	push   %rbp
  8032bd:	48 89 e5             	mov    %rsp,%rbp
  8032c0:	48 83 ec 30          	sub    $0x30,%rsp
  8032c4:	89 7d ec             	mov    %edi,-0x14(%rbp)
  8032c7:	89 75 e8             	mov    %esi,-0x18(%rbp)
  8032ca:	48 89 55 e0          	mov    %rdx,-0x20(%rbp)
  8032ce:	89 4d dc             	mov    %ecx,-0x24(%rbp)
  8032d1:	48 83 7d e0 00       	cmpq   $0x0,-0x20(%rbp)
  8032d6:	75 10                	jne    8032e8 <ipc_send+0x2c>
  8032d8:	48 b8 00 00 80 00 80 	movabs $0x8000800000,%rax
  8032df:	00 00 00 
  8032e2:	48 89 45 e0          	mov    %rax,-0x20(%rbp)
  8032e6:	eb 0e                	jmp    8032f6 <ipc_send+0x3a>
  8032e8:	eb 0c                	jmp    8032f6 <ipc_send+0x3a>
  8032ea:	48 b8 c8 27 80 00 00 	movabs $0x8027c8,%rax
  8032f1:	00 00 00 
  8032f4:	ff d0                	callq  *%rax
  8032f6:	8b 75 e8             	mov    -0x18(%rbp),%esi
  8032f9:	8b 4d dc             	mov    -0x24(%rbp),%ecx
  8032fc:	48 8b 55 e0          	mov    -0x20(%rbp),%rdx
  803300:	8b 45 ec             	mov    -0x14(%rbp),%eax
  803303:	89 c7                	mov    %eax,%edi
  803305:	48 b8 da 29 80 00 00 	movabs $0x8029da,%rax
  80330c:	00 00 00 
  80330f:	ff d0                	callq  *%rax
  803311:	89 45 fc             	mov    %eax,-0x4(%rbp)
  803314:	83 7d fc f8          	cmpl   $0xfffffff8,-0x4(%rbp)
  803318:	74 d0                	je     8032ea <ipc_send+0x2e>
  80331a:	83 7d fc 00          	cmpl   $0x0,-0x4(%rbp)
  80331e:	79 30                	jns    803350 <ipc_send+0x94>
  803320:	8b 45 fc             	mov    -0x4(%rbp),%eax
  803323:	89 c1                	mov    %eax,%ecx
  803325:	48 ba 34 14 82 00 00 	movabs $0x821434,%rdx
  80332c:	00 00 00 
  80332f:	be 44 00 00 00       	mov    $0x44,%esi
  803334:	48 bf 4a 14 82 00 00 	movabs $0x82144a,%rdi
  80333b:	00 00 00 
  80333e:	b8 00 00 00 00       	mov    $0x0,%eax
  803343:	49 b8 e9 10 80 00 00 	movabs $0x8010e9,%r8
  80334a:	00 00 00 
  80334d:	41 ff d0             	callq  *%r8
  803350:	c9                   	leaveq 
  803351:	c3                   	retq   

0000000000803352 <ipc_host_recv>:
  803352:	55                   	push   %rbp
  803353:	48 89 e5             	mov    %rsp,%rbp
  803356:	53                   	push   %rbx
  803357:	48 83 ec 28          	sub    $0x28,%rsp
  80335b:	48 89 7d d8          	mov    %rdi,-0x28(%rbp)
  80335f:	c7 45 ec 00 00 00 00 	movl   $0x0,-0x14(%rbp)
  803366:	c7 45 e8 00 00 00 00 	movl   $0x0,-0x18(%rbp)
  80336d:	48 83 7d d8 00       	cmpq   $0x0,-0x28(%rbp)
  803372:	75 0e                	jne    803382 <ipc_host_recv+0x30>
  803374:	48 b8 00 00 80 00 80 	movabs $0x8000800000,%rax
  80337b:	00 00 00 
  80337e:	48 89 45 d8          	mov    %rax,-0x28(%rbp)
  803382:	48 8b 45 d8          	mov    -0x28(%rbp),%rax
  803386:	ba 07 00 00 00       	mov    $0x7,%edx
  80338b:	48 89 c6             	mov    %rax,%rsi
  80338e:	bf 00 00 00 00       	mov    $0x0,%edi
  803393:	48 b8 06 28 80 00 00 	movabs $0x802806,%rax
  80339a:	00 00 00 
  80339d:	ff d0                	callq  *%rax
  80339f:	48 8b 45 d8          	mov    -0x28(%rbp),%rax
  8033a3:	48 c1 e8 0c          	shr    $0xc,%rax
  8033a7:	48 89 c2             	mov    %rax,%rdx
  8033aa:	48 b8 00 00 00 00 00 	movabs $0x10000000000,%rax
  8033b1:	01 00 00 
  8033b4:	48 8b 04 d0          	mov    (%rax,%rdx,8),%rax
  8033b8:	48 25 00 f0 ff ff    	and    $0xfffffffffffff000,%rax
  8033be:	48 89 45 e0          	mov    %rax,-0x20(%rbp)
  8033c2:	b8 03 00 00 00       	mov    $0x3,%eax
  8033c7:	48 8b 55 e0          	mov    -0x20(%rbp),%rdx
  8033cb:	48 89 d3             	mov    %rdx,%rbx
  8033ce:	0f 01 c1             	vmcall 
  8033d1:	89 f2                	mov    %esi,%edx
  8033d3:	89 45 ec             	mov    %eax,-0x14(%rbp)
  8033d6:	89 55 e8             	mov    %edx,-0x18(%rbp)
  8033d9:	83 7d ec 00          	cmpl   $0x0,-0x14(%rbp)
  8033dd:	79 05                	jns    8033e4 <ipc_host_recv+0x92>
  8033df:	8b 45 ec             	mov    -0x14(%rbp),%eax
  8033e2:	eb 03                	jmp    8033e7 <ipc_host_recv+0x95>
  8033e4:	8b 45 e8             	mov    -0x18(%rbp),%eax
  8033e7:	48 83 c4 28          	add    $0x28,%rsp
  8033eb:	5b                   	pop    %rbx
  8033ec:	5d                   	pop    %rbp
  8033ed:	c3                   	retq   

00000000008033ee <ipc_host_send>:
  8033ee:	55                   	push   %rbp
  8033ef:	48 89 e5             	mov    %rsp,%rbp
  8033f2:	53                   	push   %rbx
  8033f3:	48 83 ec 38          	sub    $0x38,%rsp
  8033f7:	89 7d dc             	mov    %edi,-0x24(%rbp)
  8033fa:	89 75 d8             	mov    %esi,-0x28(%rbp)
  8033fd:	48 89 55 d0          	mov    %rdx,-0x30(%rbp)
  803401:	89 4d cc             	mov    %ecx,-0x34(%rbp)
  803404:	c7 45 ec 00 00 00 00 	movl   $0x0,-0x14(%rbp)
  80340b:	48 83 7d d0 00       	cmpq   $0x0,-0x30(%rbp)
  803410:	75 0e                	jne    803420 <ipc_host_send+0x32>
  803412:	48 b8 00 00 80 00 80 	movabs $0x8000800000,%rax
  803419:	00 00 00 
  80341c:	48 89 45 d0          	mov    %rax,-0x30(%rbp)
  803420:	48 8b 45 d0          	mov    -0x30(%rbp),%rax
  803424:	48 c1 e8 0c          	shr    $0xc,%rax
  803428:	48 89 c2             	mov    %rax,%rdx
  80342b:	48 b8 00 00 00 00 00 	movabs $0x10000000000,%rax
  803432:	01 00 00 
  803435:	48 8b 04 d0          	mov    (%rax,%rdx,8),%rax
  803439:	48 25 00 f0 ff ff    	and    $0xfffffffffffff000,%rax
  80343f:	48 89 45 e0          	mov    %rax,-0x20(%rbp)
  803443:	b8 02 00 00 00       	mov    $0x2,%eax
  803448:	8b 7d dc             	mov    -0x24(%rbp),%edi
  80344b:	8b 4d d8             	mov    -0x28(%rbp),%ecx
  80344e:	48 8b 55 e0          	mov    -0x20(%rbp),%rdx
  803452:	8b 75 cc             	mov    -0x34(%rbp),%esi
  803455:	89 fb                	mov    %edi,%ebx
  803457:	0f 01 c1             	vmcall 
  80345a:	89 45 ec             	mov    %eax,-0x14(%rbp)
  80345d:	eb 26                	jmp    803485 <ipc_host_send+0x97>
  80345f:	48 b8 c8 27 80 00 00 	movabs $0x8027c8,%rax
  803466:	00 00 00 
  803469:	ff d0                	callq  *%rax
  80346b:	b8 02 00 00 00       	mov    $0x2,%eax
  803470:	8b 7d dc             	mov    -0x24(%rbp),%edi
  803473:	8b 4d d8             	mov    -0x28(%rbp),%ecx
  803476:	48 8b 55 e0          	mov    -0x20(%rbp),%rdx
  80347a:	8b 75 cc             	mov    -0x34(%rbp),%esi
  80347d:	89 fb                	mov    %edi,%ebx
  80347f:	0f 01 c1             	vmcall 
  803482:	89 45 ec             	mov    %eax,-0x14(%rbp)
  803485:	83 7d ec f8          	cmpl   $0xfffffff8,-0x14(%rbp)
  803489:	74 d4                	je     80345f <ipc_host_send+0x71>
  80348b:	83 7d ec 00          	cmpl   $0x0,-0x14(%rbp)
  80348f:	79 55                	jns    8034e6 <ipc_host_send+0xf8>
  803491:	8b 45 ec             	mov    -0x14(%rbp),%eax
  803494:	89 c2                	mov    %eax,%edx
  803496:	be 81 00 00 00       	mov    $0x81,%esi
  80349b:	48 bf 57 14 82 00 00 	movabs $0x821457,%rdi
  8034a2:	00 00 00 
  8034a5:	b8 00 00 00 00       	mov    $0x0,%eax
  8034aa:	48 b9 22 13 80 00 00 	movabs $0x801322,%rcx
  8034b1:	00 00 00 
  8034b4:	ff d1                	callq  *%rcx
  8034b6:	8b 45 ec             	mov    -0x14(%rbp),%eax
  8034b9:	89 c1                	mov    %eax,%ecx
  8034bb:	48 ba 34 14 82 00 00 	movabs $0x821434,%rdx
  8034c2:	00 00 00 
  8034c5:	be 82 00 00 00       	mov    $0x82,%esi
  8034ca:	48 bf 4a 14 82 00 00 	movabs $0x82144a,%rdi
  8034d1:	00 00 00 
  8034d4:	b8 00 00 00 00       	mov    $0x0,%eax
  8034d9:	49 b8 e9 10 80 00 00 	movabs $0x8010e9,%r8
  8034e0:	00 00 00 
  8034e3:	41 ff d0             	callq  *%r8
  8034e6:	48 83 c4 38          	add    $0x38,%rsp
  8034ea:	5b                   	pop    %rbx
  8034eb:	5d                   	pop    %rbp
  8034ec:	c3                   	retq   

00000000008034ed <ipc_find_env>:
  8034ed:	55                   	push   %rbp
  8034ee:	48 89 e5             	mov    %rsp,%rbp
  8034f1:	48 83 ec 14          	sub    $0x14,%rsp
  8034f5:	89 7d ec             	mov    %edi,-0x14(%rbp)
  8034f8:	c7 45 fc 00 00 00 00 	movl   $0x0,-0x4(%rbp)
  8034ff:	eb 4e                	jmp    80354f <ipc_find_env+0x62>
  803501:	48 ba 00 00 80 00 80 	movabs $0x8000800000,%rdx
  803508:	00 00 00 
  80350b:	8b 45 fc             	mov    -0x4(%rbp),%eax
  80350e:	48 98                	cltq   
  803510:	48 69 c0 68 01 00 00 	imul   $0x168,%rax,%rax
  803517:	48 01 d0             	add    %rdx,%rax
  80351a:	48 05 d0 00 00 00    	add    $0xd0,%rax
  803520:	8b 00                	mov    (%rax),%eax
  803522:	3b 45 ec             	cmp    -0x14(%rbp),%eax
  803525:	75 24                	jne    80354b <ipc_find_env+0x5e>
  803527:	48 ba 00 00 80 00 80 	movabs $0x8000800000,%rdx
  80352e:	00 00 00 
  803531:	8b 45 fc             	mov    -0x4(%rbp),%eax
  803534:	48 98                	cltq   
  803536:	48 69 c0 68 01 00 00 	imul   $0x168,%rax,%rax
  80353d:	48 01 d0             	add    %rdx,%rax
  803540:	48 05 c0 00 00 00    	add    $0xc0,%rax
  803546:	8b 40 08             	mov    0x8(%rax),%eax
  803549:	eb 12                	jmp    80355d <ipc_find_env+0x70>
  80354b:	83 45 fc 01          	addl   $0x1,-0x4(%rbp)
  80354f:	81 7d fc ff 03 00 00 	cmpl   $0x3ff,-0x4(%rbp)
  803556:	7e a9                	jle    803501 <ipc_find_env+0x14>
  803558:	b8 00 00 00 00       	mov    $0x0,%eax
  80355d:	c9                   	leaveq 
  80355e:	c3                   	retq   

000000000080355f <fd2num>:
  80355f:	55                   	push   %rbp
  803560:	48 89 e5             	mov    %rsp,%rbp
  803563:	48 83 ec 08          	sub    $0x8,%rsp
  803567:	48 89 7d f8          	mov    %rdi,-0x8(%rbp)
  80356b:	48 8b 55 f8          	mov    -0x8(%rbp),%rdx
  80356f:	48 b8 00 00 00 30 ff 	movabs $0xffffffff30000000,%rax
  803576:	ff ff ff 
  803579:	48 01 d0             	add    %rdx,%rax
  80357c:	48 c1 e8 0c          	shr    $0xc,%rax
  803580:	c9                   	leaveq 
  803581:	c3                   	retq   

0000000000803582 <fd2data>:
  803582:	55                   	push   %rbp
  803583:	48 89 e5             	mov    %rsp,%rbp
  803586:	48 83 ec 08          	sub    $0x8,%rsp
  80358a:	48 89 7d f8          	mov    %rdi,-0x8(%rbp)
  80358e:	48 8b 45 f8          	mov    -0x8(%rbp),%rax
  803592:	48 89 c7             	mov    %rax,%rdi
  803595:	48 b8 5f 35 80 00 00 	movabs $0x80355f,%rax
  80359c:	00 00 00 
  80359f:	ff d0                	callq  *%rax
  8035a1:	48 05 20 00 0d 00    	add    $0xd0020,%rax
  8035a7:	48 c1 e0 0c          	shl    $0xc,%rax
  8035ab:	c9                   	leaveq 
  8035ac:	c3                   	retq   

00000000008035ad <fd_alloc>:
  8035ad:	55                   	push   %rbp
  8035ae:	48 89 e5             	mov    %rsp,%rbp
  8035b1:	48 83 ec 18          	sub    $0x18,%rsp
  8035b5:	48 89 7d e8          	mov    %rdi,-0x18(%rbp)
  8035b9:	c7 45 fc 00 00 00 00 	movl   $0x0,-0x4(%rbp)
  8035c0:	eb 6b                	jmp    80362d <fd_alloc+0x80>
  8035c2:	8b 45 fc             	mov    -0x4(%rbp),%eax
  8035c5:	48 98                	cltq   
  8035c7:	48 05 00 00 0d 00    	add    $0xd0000,%rax
  8035cd:	48 c1 e0 0c          	shl    $0xc,%rax
  8035d1:	48 89 45 f0          	mov    %rax,-0x10(%rbp)
  8035d5:	48 8b 45 f0          	mov    -0x10(%rbp),%rax
  8035d9:	48 c1 e8 15          	shr    $0x15,%rax
  8035dd:	48 89 c2             	mov    %rax,%rdx
  8035e0:	48 b8 00 00 00 80 00 	movabs $0x10080000000,%rax
  8035e7:	01 00 00 
  8035ea:	48 8b 04 d0          	mov    (%rax,%rdx,8),%rax
  8035ee:	83 e0 01             	and    $0x1,%eax
  8035f1:	48 85 c0             	test   %rax,%rax
  8035f4:	74 21                	je     803617 <fd_alloc+0x6a>
  8035f6:	48 8b 45 f0          	mov    -0x10(%rbp),%rax
  8035fa:	48 c1 e8 0c          	shr    $0xc,%rax
  8035fe:	48 89 c2             	mov    %rax,%rdx
  803601:	48 b8 00 00 00 00 00 	movabs $0x10000000000,%rax
  803608:	01 00 00 
  80360b:	48 8b 04 d0          	mov    (%rax,%rdx,8),%rax
  80360f:	83 e0 01             	and    $0x1,%eax
  803612:	48 85 c0             	test   %rax,%rax
  803615:	75 12                	jne    803629 <fd_alloc+0x7c>
  803617:	48 8b 45 e8          	mov    -0x18(%rbp),%rax
  80361b:	48 8b 55 f0          	mov    -0x10(%rbp),%rdx
  80361f:	48 89 10             	mov    %rdx,(%rax)
  803622:	b8 00 00 00 00       	mov    $0x0,%eax
  803627:	eb 1a                	jmp    803643 <fd_alloc+0x96>
  803629:	83 45 fc 01          	addl   $0x1,-0x4(%rbp)
  80362d:	83 7d fc 1f          	cmpl   $0x1f,-0x4(%rbp)
  803631:	7e 8f                	jle    8035c2 <fd_alloc+0x15>
  803633:	48 8b 45 e8          	mov    -0x18(%rbp),%rax
  803637:	48 c7 00 00 00 00 00 	movq   $0x0,(%rax)
  80363e:	b8 f5 ff ff ff       	mov    $0xfffffff5,%eax
  803643:	c9                   	leaveq 
  803644:	c3                   	retq   

0000000000803645 <fd_lookup>:
  803645:	55                   	push   %rbp
  803646:	48 89 e5             	mov    %rsp,%rbp
  803649:	48 83 ec 20          	sub    $0x20,%rsp
  80364d:	89 7d ec             	mov    %edi,-0x14(%rbp)
  803650:	48 89 75 e0          	mov    %rsi,-0x20(%rbp)
  803654:	83 7d ec 00          	cmpl   $0x0,-0x14(%rbp)
  803658:	78 06                	js     803660 <fd_lookup+0x1b>
  80365a:	83 7d ec 1f          	cmpl   $0x1f,-0x14(%rbp)
  80365e:	7e 07                	jle    803667 <fd_lookup+0x22>
  803660:	b8 fd ff ff ff       	mov    $0xfffffffd,%eax
  803665:	eb 6c                	jmp    8036d3 <fd_lookup+0x8e>
  803667:	8b 45 ec             	mov    -0x14(%rbp),%eax
  80366a:	48 98                	cltq   
  80366c:	48 05 00 00 0d 00    	add    $0xd0000,%rax
  803672:	48 c1 e0 0c          	shl    $0xc,%rax
  803676:	48 89 45 f8          	mov    %rax,-0x8(%rbp)
  80367a:	48 8b 45 f8          	mov    -0x8(%rbp),%rax
  80367e:	48 c1 e8 15          	shr    $0x15,%rax
  803682:	48 89 c2             	mov    %rax,%rdx
  803685:	48 b8 00 00 00 80 00 	movabs $0x10080000000,%rax
  80368c:	01 00 00 
  80368f:	48 8b 04 d0          	mov    (%rax,%rdx,8),%rax
  803693:	83 e0 01             	and    $0x1,%eax
  803696:	48 85 c0             	test   %rax,%rax
  803699:	74 21                	je     8036bc <fd_lookup+0x77>
  80369b:	48 8b 45 f8          	mov    -0x8(%rbp),%rax
  80369f:	48 c1 e8 0c          	shr    $0xc,%rax
  8036a3:	48 89 c2             	mov    %rax,%rdx
  8036a6:	48 b8 00 00 00 00 00 	movabs $0x10000000000,%rax
  8036ad:	01 00 00 
  8036b0:	48 8b 04 d0          	mov    (%rax,%rdx,8),%rax
  8036b4:	83 e0 01             	and    $0x1,%eax
  8036b7:	48 85 c0             	test   %rax,%rax
  8036ba:	75 07                	jne    8036c3 <fd_lookup+0x7e>
  8036bc:	b8 fd ff ff ff       	mov    $0xfffffffd,%eax
  8036c1:	eb 10                	jmp    8036d3 <fd_lookup+0x8e>
  8036c3:	48 8b 45 e0          	mov    -0x20(%rbp),%rax
  8036c7:	48 8b 55 f8          	mov    -0x8(%rbp),%rdx
  8036cb:	48 89 10             	mov    %rdx,(%rax)
  8036ce:	b8 00 00 00 00       	mov    $0x0,%eax
  8036d3:	c9                   	leaveq 
  8036d4:	c3                   	retq   

00000000008036d5 <fd_close>:
  8036d5:	55                   	push   %rbp
  8036d6:	48 89 e5             	mov    %rsp,%rbp
  8036d9:	48 83 ec 30          	sub    $0x30,%rsp
  8036dd:	48 89 7d d8          	mov    %rdi,-0x28(%rbp)
  8036e1:	89 f0                	mov    %esi,%eax
  8036e3:	88 45 d4             	mov    %al,-0x2c(%rbp)
  8036e6:	48 8b 45 d8          	mov    -0x28(%rbp),%rax
  8036ea:	48 89 c7             	mov    %rax,%rdi
  8036ed:	48 b8 5f 35 80 00 00 	movabs $0x80355f,%rax
  8036f4:	00 00 00 
  8036f7:	ff d0                	callq  *%rax
  8036f9:	48 8d 55 f0          	lea    -0x10(%rbp),%rdx
  8036fd:	48 89 d6             	mov    %rdx,%rsi
  803700:	89 c7                	mov    %eax,%edi
  803702:	48 b8 45 36 80 00 00 	movabs $0x803645,%rax
  803709:	00 00 00 
  80370c:	ff d0                	callq  *%rax
  80370e:	89 45 fc             	mov    %eax,-0x4(%rbp)
  803711:	83 7d fc 00          	cmpl   $0x0,-0x4(%rbp)
  803715:	78 0a                	js     803721 <fd_close+0x4c>
  803717:	48 8b 45 f0          	mov    -0x10(%rbp),%rax
  80371b:	48 39 45 d8          	cmp    %rax,-0x28(%rbp)
  80371f:	74 12                	je     803733 <fd_close+0x5e>
  803721:	80 7d d4 00          	cmpb   $0x0,-0x2c(%rbp)
  803725:	74 05                	je     80372c <fd_close+0x57>
  803727:	8b 45 fc             	mov    -0x4(%rbp),%eax
  80372a:	eb 05                	jmp    803731 <fd_close+0x5c>
  80372c:	b8 00 00 00 00       	mov    $0x0,%eax
  803731:	eb 69                	jmp    80379c <fd_close+0xc7>
  803733:	48 8b 45 d8          	mov    -0x28(%rbp),%rax
  803737:	8b 00                	mov    (%rax),%eax
  803739:	48 8d 55 e8          	lea    -0x18(%rbp),%rdx
  80373d:	48 89 d6             	mov    %rdx,%rsi
  803740:	89 c7                	mov    %eax,%edi
  803742:	48 b8 9e 37 80 00 00 	movabs $0x80379e,%rax
  803749:	00 00 00 
  80374c:	ff d0                	callq  *%rax
  80374e:	89 45 fc             	mov    %eax,-0x4(%rbp)
  803751:	83 7d fc 00          	cmpl   $0x0,-0x4(%rbp)
  803755:	78 2a                	js     803781 <fd_close+0xac>
  803757:	48 8b 45 e8          	mov    -0x18(%rbp),%rax
  80375b:	48 8b 40 20          	mov    0x20(%rax),%rax
  80375f:	48 85 c0             	test   %rax,%rax
  803762:	74 16                	je     80377a <fd_close+0xa5>
  803764:	48 8b 45 e8          	mov    -0x18(%rbp),%rax
  803768:	48 8b 40 20          	mov    0x20(%rax),%rax
  80376c:	48 8b 55 d8          	mov    -0x28(%rbp),%rdx
  803770:	48 89 d7             	mov    %rdx,%rdi
  803773:	ff d0                	callq  *%rax
  803775:	89 45 fc             	mov    %eax,-0x4(%rbp)
  803778:	eb 07                	jmp    803781 <fd_close+0xac>
  80377a:	c7 45 fc 00 00 00 00 	movl   $0x0,-0x4(%rbp)
  803781:	48 8b 45 d8          	mov    -0x28(%rbp),%rax
  803785:	48 89 c6             	mov    %rax,%rsi
  803788:	bf 00 00 00 00       	mov    $0x0,%edi
  80378d:	48 b8 b1 28 80 00 00 	movabs $0x8028b1,%rax
  803794:	00 00 00 
  803797:	ff d0                	callq  *%rax
  803799:	8b 45 fc             	mov    -0x4(%rbp),%eax
  80379c:	c9                   	leaveq 
  80379d:	c3                   	retq   

000000000080379e <dev_lookup>:
  80379e:	55                   	push   %rbp
  80379f:	48 89 e5             	mov    %rsp,%rbp
  8037a2:	48 83 ec 20          	sub    $0x20,%rsp
  8037a6:	89 7d ec             	mov    %edi,-0x14(%rbp)
  8037a9:	48 89 75 e0          	mov    %rsi,-0x20(%rbp)
  8037ad:	c7 45 fc 00 00 00 00 	movl   $0x0,-0x4(%rbp)
  8037b4:	eb 41                	jmp    8037f7 <dev_lookup+0x59>
  8037b6:	48 b8 20 80 82 00 00 	movabs $0x828020,%rax
  8037bd:	00 00 00 
  8037c0:	8b 55 fc             	mov    -0x4(%rbp),%edx
  8037c3:	48 63 d2             	movslq %edx,%rdx
  8037c6:	48 8b 04 d0          	mov    (%rax,%rdx,8),%rax
  8037ca:	8b 00                	mov    (%rax),%eax
  8037cc:	3b 45 ec             	cmp    -0x14(%rbp),%eax
  8037cf:	75 22                	jne    8037f3 <dev_lookup+0x55>
  8037d1:	48 b8 20 80 82 00 00 	movabs $0x828020,%rax
  8037d8:	00 00 00 
  8037db:	8b 55 fc             	mov    -0x4(%rbp),%edx
  8037de:	48 63 d2             	movslq %edx,%rdx
  8037e1:	48 8b 14 d0          	mov    (%rax,%rdx,8),%rdx
  8037e5:	48 8b 45 e0          	mov    -0x20(%rbp),%rax
  8037e9:	48 89 10             	mov    %rdx,(%rax)
  8037ec:	b8 00 00 00 00       	mov    $0x0,%eax
  8037f1:	eb 60                	jmp    803853 <dev_lookup+0xb5>
  8037f3:	83 45 fc 01          	addl   $0x1,-0x4(%rbp)
  8037f7:	48 b8 20 80 82 00 00 	movabs $0x828020,%rax
  8037fe:	00 00 00 
  803801:	8b 55 fc             	mov    -0x4(%rbp),%edx
  803804:	48 63 d2             	movslq %edx,%rdx
  803807:	48 8b 04 d0          	mov    (%rax,%rdx,8),%rax
  80380b:	48 85 c0             	test   %rax,%rax
  80380e:	75 a6                	jne    8037b6 <dev_lookup+0x18>
  803810:	48 b8 70 75 b5 00 00 	movabs $0xb57570,%rax
  803817:	00 00 00 
  80381a:	48 8b 00             	mov    (%rax),%rax
  80381d:	8b 80 c8 00 00 00    	mov    0xc8(%rax),%eax
  803823:	8b 55 ec             	mov    -0x14(%rbp),%edx
  803826:	89 c6                	mov    %eax,%esi
  803828:	48 bf 78 14 82 00 00 	movabs $0x821478,%rdi
  80382f:	00 00 00 
  803832:	b8 00 00 00 00       	mov    $0x0,%eax
  803837:	48 b9 22 13 80 00 00 	movabs $0x801322,%rcx
  80383e:	00 00 00 
  803841:	ff d1                	callq  *%rcx
  803843:	48 8b 45 e0          	mov    -0x20(%rbp),%rax
  803847:	48 c7 00 00 00 00 00 	movq   $0x0,(%rax)
  80384e:	b8 fd ff ff ff       	mov    $0xfffffffd,%eax
  803853:	c9                   	leaveq 
  803854:	c3                   	retq   

0000000000803855 <close>:
  803855:	55                   	push   %rbp
  803856:	48 89 e5             	mov    %rsp,%rbp
  803859:	48 83 ec 20          	sub    $0x20,%rsp
  80385d:	89 7d ec             	mov    %edi,-0x14(%rbp)
  803860:	48 8d 55 f0          	lea    -0x10(%rbp),%rdx
  803864:	8b 45 ec             	mov    -0x14(%rbp),%eax
  803867:	48 89 d6             	mov    %rdx,%rsi
  80386a:	89 c7                	mov    %eax,%edi
  80386c:	48 b8 45 36 80 00 00 	movabs $0x803645,%rax
  803873:	00 00 00 
  803876:	ff d0                	callq  *%rax
  803878:	89 45 fc             	mov    %eax,-0x4(%rbp)
  80387b:	83 7d fc 00          	cmpl   $0x0,-0x4(%rbp)
  80387f:	79 05                	jns    803886 <close+0x31>
  803881:	8b 45 fc             	mov    -0x4(%rbp),%eax
  803884:	eb 18                	jmp    80389e <close+0x49>
  803886:	48 8b 45 f0          	mov    -0x10(%rbp),%rax
  80388a:	be 01 00 00 00       	mov    $0x1,%esi
  80388f:	48 89 c7             	mov    %rax,%rdi
  803892:	48 b8 d5 36 80 00 00 	movabs $0x8036d5,%rax
  803899:	00 00 00 
  80389c:	ff d0                	callq  *%rax
  80389e:	c9                   	leaveq 
  80389f:	c3                   	retq   

00000000008038a0 <close_all>:
  8038a0:	55                   	push   %rbp
  8038a1:	48 89 e5             	mov    %rsp,%rbp
  8038a4:	48 83 ec 10          	sub    $0x10,%rsp
  8038a8:	c7 45 fc 00 00 00 00 	movl   $0x0,-0x4(%rbp)
  8038af:	eb 15                	jmp    8038c6 <close_all+0x26>
  8038b1:	8b 45 fc             	mov    -0x4(%rbp),%eax
  8038b4:	89 c7                	mov    %eax,%edi
  8038b6:	48 b8 55 38 80 00 00 	movabs $0x803855,%rax
  8038bd:	00 00 00 
  8038c0:	ff d0                	callq  *%rax
  8038c2:	83 45 fc 01          	addl   $0x1,-0x4(%rbp)
  8038c6:	83 7d fc 1f          	cmpl   $0x1f,-0x4(%rbp)
  8038ca:	7e e5                	jle    8038b1 <close_all+0x11>
  8038cc:	c9                   	leaveq 
  8038cd:	c3                   	retq   

00000000008038ce <dup>:
  8038ce:	55                   	push   %rbp
  8038cf:	48 89 e5             	mov    %rsp,%rbp
  8038d2:	48 83 ec 40          	sub    $0x40,%rsp
  8038d6:	89 7d cc             	mov    %edi,-0x34(%rbp)
  8038d9:	89 75 c8             	mov    %esi,-0x38(%rbp)
  8038dc:	48 8d 55 d8          	lea    -0x28(%rbp),%rdx
  8038e0:	8b 45 cc             	mov    -0x34(%rbp),%eax
  8038e3:	48 89 d6             	mov    %rdx,%rsi
  8038e6:	89 c7                	mov    %eax,%edi
  8038e8:	48 b8 45 36 80 00 00 	movabs $0x803645,%rax
  8038ef:	00 00 00 
  8038f2:	ff d0                	callq  *%rax
  8038f4:	89 45 fc             	mov    %eax,-0x4(%rbp)
  8038f7:	83 7d fc 00          	cmpl   $0x0,-0x4(%rbp)
  8038fb:	79 08                	jns    803905 <dup+0x37>
  8038fd:	8b 45 fc             	mov    -0x4(%rbp),%eax
  803900:	e9 70 01 00 00       	jmpq   803a75 <dup+0x1a7>
  803905:	8b 45 c8             	mov    -0x38(%rbp),%eax
  803908:	89 c7                	mov    %eax,%edi
  80390a:	48 b8 55 38 80 00 00 	movabs $0x803855,%rax
  803911:	00 00 00 
  803914:	ff d0                	callq  *%rax
  803916:	8b 45 c8             	mov    -0x38(%rbp),%eax
  803919:	48 98                	cltq   
  80391b:	48 05 00 00 0d 00    	add    $0xd0000,%rax
  803921:	48 c1 e0 0c          	shl    $0xc,%rax
  803925:	48 89 45 f0          	mov    %rax,-0x10(%rbp)
  803929:	48 8b 45 d8          	mov    -0x28(%rbp),%rax
  80392d:	48 89 c7             	mov    %rax,%rdi
  803930:	48 b8 82 35 80 00 00 	movabs $0x803582,%rax
  803937:	00 00 00 
  80393a:	ff d0                	callq  *%rax
  80393c:	48 89 45 e8          	mov    %rax,-0x18(%rbp)
  803940:	48 8b 45 f0          	mov    -0x10(%rbp),%rax
  803944:	48 89 c7             	mov    %rax,%rdi
  803947:	48 b8 82 35 80 00 00 	movabs $0x803582,%rax
  80394e:	00 00 00 
  803951:	ff d0                	callq  *%rax
  803953:	48 89 45 e0          	mov    %rax,-0x20(%rbp)
  803957:	48 8b 45 e8          	mov    -0x18(%rbp),%rax
  80395b:	48 c1 e8 15          	shr    $0x15,%rax
  80395f:	48 89 c2             	mov    %rax,%rdx
  803962:	48 b8 00 00 00 80 00 	movabs $0x10080000000,%rax
  803969:	01 00 00 
  80396c:	48 8b 04 d0          	mov    (%rax,%rdx,8),%rax
  803970:	83 e0 01             	and    $0x1,%eax
  803973:	48 85 c0             	test   %rax,%rax
  803976:	74 73                	je     8039eb <dup+0x11d>
  803978:	48 8b 45 e8          	mov    -0x18(%rbp),%rax
  80397c:	48 c1 e8 0c          	shr    $0xc,%rax
  803980:	48 89 c2             	mov    %rax,%rdx
  803983:	48 b8 00 00 00 00 00 	movabs $0x10000000000,%rax
  80398a:	01 00 00 
  80398d:	48 8b 04 d0          	mov    (%rax,%rdx,8),%rax
  803991:	83 e0 01             	and    $0x1,%eax
  803994:	48 85 c0             	test   %rax,%rax
  803997:	74 52                	je     8039eb <dup+0x11d>
  803999:	48 8b 45 e8          	mov    -0x18(%rbp),%rax
  80399d:	48 c1 e8 0c          	shr    $0xc,%rax
  8039a1:	48 89 c2             	mov    %rax,%rdx
  8039a4:	48 b8 00 00 00 00 00 	movabs $0x10000000000,%rax
  8039ab:	01 00 00 
  8039ae:	48 8b 04 d0          	mov    (%rax,%rdx,8),%rax
  8039b2:	25 07 0e 00 00       	and    $0xe07,%eax
  8039b7:	89 c1                	mov    %eax,%ecx
  8039b9:	48 8b 55 e0          	mov    -0x20(%rbp),%rdx
  8039bd:	48 8b 45 e8          	mov    -0x18(%rbp),%rax
  8039c1:	41 89 c8             	mov    %ecx,%r8d
  8039c4:	48 89 d1             	mov    %rdx,%rcx
  8039c7:	ba 00 00 00 00       	mov    $0x0,%edx
  8039cc:	48 89 c6             	mov    %rax,%rsi
  8039cf:	bf 00 00 00 00       	mov    $0x0,%edi
  8039d4:	48 b8 56 28 80 00 00 	movabs $0x802856,%rax
  8039db:	00 00 00 
  8039de:	ff d0                	callq  *%rax
  8039e0:	89 45 fc             	mov    %eax,-0x4(%rbp)
  8039e3:	83 7d fc 00          	cmpl   $0x0,-0x4(%rbp)
  8039e7:	79 02                	jns    8039eb <dup+0x11d>
  8039e9:	eb 57                	jmp    803a42 <dup+0x174>
  8039eb:	48 8b 45 d8          	mov    -0x28(%rbp),%rax
  8039ef:	48 c1 e8 0c          	shr    $0xc,%rax
  8039f3:	48 89 c2             	mov    %rax,%rdx
  8039f6:	48 b8 00 00 00 00 00 	movabs $0x10000000000,%rax
  8039fd:	01 00 00 
  803a00:	48 8b 04 d0          	mov    (%rax,%rdx,8),%rax
  803a04:	25 07 0e 00 00       	and    $0xe07,%eax
  803a09:	89 c1                	mov    %eax,%ecx
  803a0b:	48 8b 45 d8          	mov    -0x28(%rbp),%rax
  803a0f:	48 8b 55 f0          	mov    -0x10(%rbp),%rdx
  803a13:	41 89 c8             	mov    %ecx,%r8d
  803a16:	48 89 d1             	mov    %rdx,%rcx
  803a19:	ba 00 00 00 00       	mov    $0x0,%edx
  803a1e:	48 89 c6             	mov    %rax,%rsi
  803a21:	bf 00 00 00 00       	mov    $0x0,%edi
  803a26:	48 b8 56 28 80 00 00 	movabs $0x802856,%rax
  803a2d:	00 00 00 
  803a30:	ff d0                	callq  *%rax
  803a32:	89 45 fc             	mov    %eax,-0x4(%rbp)
  803a35:	83 7d fc 00          	cmpl   $0x0,-0x4(%rbp)
  803a39:	79 02                	jns    803a3d <dup+0x16f>
  803a3b:	eb 05                	jmp    803a42 <dup+0x174>
  803a3d:	8b 45 c8             	mov    -0x38(%rbp),%eax
  803a40:	eb 33                	jmp    803a75 <dup+0x1a7>
  803a42:	48 8b 45 f0          	mov    -0x10(%rbp),%rax
  803a46:	48 89 c6             	mov    %rax,%rsi
  803a49:	bf 00 00 00 00       	mov    $0x0,%edi
  803a4e:	48 b8 b1 28 80 00 00 	movabs $0x8028b1,%rax
  803a55:	00 00 00 
  803a58:	ff d0                	callq  *%rax
  803a5a:	48 8b 45 e0          	mov    -0x20(%rbp),%rax
  803a5e:	48 89 c6             	mov    %rax,%rsi
  803a61:	bf 00 00 00 00       	mov    $0x0,%edi
  803a66:	48 b8 b1 28 80 00 00 	movabs $0x8028b1,%rax
  803a6d:	00 00 00 
  803a70:	ff d0                	callq  *%rax
  803a72:	8b 45 fc             	mov    -0x4(%rbp),%eax
  803a75:	c9                   	leaveq 
  803a76:	c3                   	retq   

0000000000803a77 <read>:
  803a77:	55                   	push   %rbp
  803a78:	48 89 e5             	mov    %rsp,%rbp
  803a7b:	48 83 ec 40          	sub    $0x40,%rsp
  803a7f:	89 7d dc             	mov    %edi,-0x24(%rbp)
  803a82:	48 89 75 d0          	mov    %rsi,-0x30(%rbp)
  803a86:	48 89 55 c8          	mov    %rdx,-0x38(%rbp)
  803a8a:	48 8d 55 e8          	lea    -0x18(%rbp),%rdx
  803a8e:	8b 45 dc             	mov    -0x24(%rbp),%eax
  803a91:	48 89 d6             	mov    %rdx,%rsi
  803a94:	89 c7                	mov    %eax,%edi
  803a96:	48 b8 45 36 80 00 00 	movabs $0x803645,%rax
  803a9d:	00 00 00 
  803aa0:	ff d0                	callq  *%rax
  803aa2:	89 45 fc             	mov    %eax,-0x4(%rbp)
  803aa5:	83 7d fc 00          	cmpl   $0x0,-0x4(%rbp)
  803aa9:	78 24                	js     803acf <read+0x58>
  803aab:	48 8b 45 e8          	mov    -0x18(%rbp),%rax
  803aaf:	8b 00                	mov    (%rax),%eax
  803ab1:	48 8d 55 f0          	lea    -0x10(%rbp),%rdx
  803ab5:	48 89 d6             	mov    %rdx,%rsi
  803ab8:	89 c7                	mov    %eax,%edi
  803aba:	48 b8 9e 37 80 00 00 	movabs $0x80379e,%rax
  803ac1:	00 00 00 
  803ac4:	ff d0                	callq  *%rax
  803ac6:	89 45 fc             	mov    %eax,-0x4(%rbp)
  803ac9:	83 7d fc 00          	cmpl   $0x0,-0x4(%rbp)
  803acd:	79 05                	jns    803ad4 <read+0x5d>
  803acf:	8b 45 fc             	mov    -0x4(%rbp),%eax
  803ad2:	eb 76                	jmp    803b4a <read+0xd3>
  803ad4:	48 8b 45 e8          	mov    -0x18(%rbp),%rax
  803ad8:	8b 40 08             	mov    0x8(%rax),%eax
  803adb:	83 e0 03             	and    $0x3,%eax
  803ade:	83 f8 01             	cmp    $0x1,%eax
  803ae1:	75 3a                	jne    803b1d <read+0xa6>
  803ae3:	48 b8 70 75 b5 00 00 	movabs $0xb57570,%rax
  803aea:	00 00 00 
  803aed:	48 8b 00             	mov    (%rax),%rax
  803af0:	8b 80 c8 00 00 00    	mov    0xc8(%rax),%eax
  803af6:	8b 55 dc             	mov    -0x24(%rbp),%edx
  803af9:	89 c6                	mov    %eax,%esi
  803afb:	48 bf 97 14 82 00 00 	movabs $0x821497,%rdi
  803b02:	00 00 00 
  803b05:	b8 00 00 00 00       	mov    $0x0,%eax
  803b0a:	48 b9 22 13 80 00 00 	movabs $0x801322,%rcx
  803b11:	00 00 00 
  803b14:	ff d1                	callq  *%rcx
  803b16:	b8 fd ff ff ff       	mov    $0xfffffffd,%eax
  803b1b:	eb 2d                	jmp    803b4a <read+0xd3>
  803b1d:	48 8b 45 f0          	mov    -0x10(%rbp),%rax
  803b21:	48 8b 40 10          	mov    0x10(%rax),%rax
  803b25:	48 85 c0             	test   %rax,%rax
  803b28:	75 07                	jne    803b31 <read+0xba>
  803b2a:	b8 f0 ff ff ff       	mov    $0xfffffff0,%eax
  803b2f:	eb 19                	jmp    803b4a <read+0xd3>
  803b31:	48 8b 45 f0          	mov    -0x10(%rbp),%rax
  803b35:	48 8b 40 10          	mov    0x10(%rax),%rax
  803b39:	48 8b 4d e8          	mov    -0x18(%rbp),%rcx
  803b3d:	48 8b 55 c8          	mov    -0x38(%rbp),%rdx
  803b41:	48 8b 75 d0          	mov    -0x30(%rbp),%rsi
  803b45:	48 89 cf             	mov    %rcx,%rdi
  803b48:	ff d0                	callq  *%rax
  803b4a:	c9                   	leaveq 
  803b4b:	c3                   	retq   

0000000000803b4c <readn>:
  803b4c:	55                   	push   %rbp
  803b4d:	48 89 e5             	mov    %rsp,%rbp
  803b50:	48 83 ec 30          	sub    $0x30,%rsp
  803b54:	89 7d ec             	mov    %edi,-0x14(%rbp)
  803b57:	48 89 75 e0          	mov    %rsi,-0x20(%rbp)
  803b5b:	48 89 55 d8          	mov    %rdx,-0x28(%rbp)
  803b5f:	c7 45 fc 00 00 00 00 	movl   $0x0,-0x4(%rbp)
  803b66:	eb 49                	jmp    803bb1 <readn+0x65>
  803b68:	8b 45 fc             	mov    -0x4(%rbp),%eax
  803b6b:	48 98                	cltq   
  803b6d:	48 8b 55 d8          	mov    -0x28(%rbp),%rdx
  803b71:	48 29 c2             	sub    %rax,%rdx
  803b74:	8b 45 fc             	mov    -0x4(%rbp),%eax
  803b77:	48 63 c8             	movslq %eax,%rcx
  803b7a:	48 8b 45 e0          	mov    -0x20(%rbp),%rax
  803b7e:	48 01 c1             	add    %rax,%rcx
  803b81:	8b 45 ec             	mov    -0x14(%rbp),%eax
  803b84:	48 89 ce             	mov    %rcx,%rsi
  803b87:	89 c7                	mov    %eax,%edi
  803b89:	48 b8 77 3a 80 00 00 	movabs $0x803a77,%rax
  803b90:	00 00 00 
  803b93:	ff d0                	callq  *%rax
  803b95:	89 45 f8             	mov    %eax,-0x8(%rbp)
  803b98:	83 7d f8 00          	cmpl   $0x0,-0x8(%rbp)
  803b9c:	79 05                	jns    803ba3 <readn+0x57>
  803b9e:	8b 45 f8             	mov    -0x8(%rbp),%eax
  803ba1:	eb 1c                	jmp    803bbf <readn+0x73>
  803ba3:	83 7d f8 00          	cmpl   $0x0,-0x8(%rbp)
  803ba7:	75 02                	jne    803bab <readn+0x5f>
  803ba9:	eb 11                	jmp    803bbc <readn+0x70>
  803bab:	8b 45 f8             	mov    -0x8(%rbp),%eax
  803bae:	01 45 fc             	add    %eax,-0x4(%rbp)
  803bb1:	8b 45 fc             	mov    -0x4(%rbp),%eax
  803bb4:	48 98                	cltq   
  803bb6:	48 3b 45 d8          	cmp    -0x28(%rbp),%rax
  803bba:	72 ac                	jb     803b68 <readn+0x1c>
  803bbc:	8b 45 fc             	mov    -0x4(%rbp),%eax
  803bbf:	c9                   	leaveq 
  803bc0:	c3                   	retq   

0000000000803bc1 <write>:
  803bc1:	55                   	push   %rbp
  803bc2:	48 89 e5             	mov    %rsp,%rbp
  803bc5:	48 83 ec 40          	sub    $0x40,%rsp
  803bc9:	89 7d dc             	mov    %edi,-0x24(%rbp)
  803bcc:	48 89 75 d0          	mov    %rsi,-0x30(%rbp)
  803bd0:	48 89 55 c8          	mov    %rdx,-0x38(%rbp)
  803bd4:	48 8d 55 e8          	lea    -0x18(%rbp),%rdx
  803bd8:	8b 45 dc             	mov    -0x24(%rbp),%eax
  803bdb:	48 89 d6             	mov    %rdx,%rsi
  803bde:	89 c7                	mov    %eax,%edi
  803be0:	48 b8 45 36 80 00 00 	movabs $0x803645,%rax
  803be7:	00 00 00 
  803bea:	ff d0                	callq  *%rax
  803bec:	89 45 fc             	mov    %eax,-0x4(%rbp)
  803bef:	83 7d fc 00          	cmpl   $0x0,-0x4(%rbp)
  803bf3:	78 24                	js     803c19 <write+0x58>
  803bf5:	48 8b 45 e8          	mov    -0x18(%rbp),%rax
  803bf9:	8b 00                	mov    (%rax),%eax
  803bfb:	48 8d 55 f0          	lea    -0x10(%rbp),%rdx
  803bff:	48 89 d6             	mov    %rdx,%rsi
  803c02:	89 c7                	mov    %eax,%edi
  803c04:	48 b8 9e 37 80 00 00 	movabs $0x80379e,%rax
  803c0b:	00 00 00 
  803c0e:	ff d0                	callq  *%rax
  803c10:	89 45 fc             	mov    %eax,-0x4(%rbp)
  803c13:	83 7d fc 00          	cmpl   $0x0,-0x4(%rbp)
  803c17:	79 05                	jns    803c1e <write+0x5d>
  803c19:	8b 45 fc             	mov    -0x4(%rbp),%eax
  803c1c:	eb 75                	jmp    803c93 <write+0xd2>
  803c1e:	48 8b 45 e8          	mov    -0x18(%rbp),%rax
  803c22:	8b 40 08             	mov    0x8(%rax),%eax
  803c25:	83 e0 03             	and    $0x3,%eax
  803c28:	85 c0                	test   %eax,%eax
  803c2a:	75 3a                	jne    803c66 <write+0xa5>
  803c2c:	48 b8 70 75 b5 00 00 	movabs $0xb57570,%rax
  803c33:	00 00 00 
  803c36:	48 8b 00             	mov    (%rax),%rax
  803c39:	8b 80 c8 00 00 00    	mov    0xc8(%rax),%eax
  803c3f:	8b 55 dc             	mov    -0x24(%rbp),%edx
  803c42:	89 c6                	mov    %eax,%esi
  803c44:	48 bf b3 14 82 00 00 	movabs $0x8214b3,%rdi
  803c4b:	00 00 00 
  803c4e:	b8 00 00 00 00       	mov    $0x0,%eax
  803c53:	48 b9 22 13 80 00 00 	movabs $0x801322,%rcx
  803c5a:	00 00 00 
  803c5d:	ff d1                	callq  *%rcx
  803c5f:	b8 fd ff ff ff       	mov    $0xfffffffd,%eax
  803c64:	eb 2d                	jmp    803c93 <write+0xd2>
  803c66:	48 8b 45 f0          	mov    -0x10(%rbp),%rax
  803c6a:	48 8b 40 18          	mov    0x18(%rax),%rax
  803c6e:	48 85 c0             	test   %rax,%rax
  803c71:	75 07                	jne    803c7a <write+0xb9>
  803c73:	b8 f0 ff ff ff       	mov    $0xfffffff0,%eax
  803c78:	eb 19                	jmp    803c93 <write+0xd2>
  803c7a:	48 8b 45 f0          	mov    -0x10(%rbp),%rax
  803c7e:	48 8b 40 18          	mov    0x18(%rax),%rax
  803c82:	48 8b 4d e8          	mov    -0x18(%rbp),%rcx
  803c86:	48 8b 55 c8          	mov    -0x38(%rbp),%rdx
  803c8a:	48 8b 75 d0          	mov    -0x30(%rbp),%rsi
  803c8e:	48 89 cf             	mov    %rcx,%rdi
  803c91:	ff d0                	callq  *%rax
  803c93:	c9                   	leaveq 
  803c94:	c3                   	retq   

0000000000803c95 <seek>:
  803c95:	55                   	push   %rbp
  803c96:	48 89 e5             	mov    %rsp,%rbp
  803c99:	48 83 ec 18          	sub    $0x18,%rsp
  803c9d:	89 7d ec             	mov    %edi,-0x14(%rbp)
  803ca0:	89 75 e8             	mov    %esi,-0x18(%rbp)
  803ca3:	48 8d 55 f0          	lea    -0x10(%rbp),%rdx
  803ca7:	8b 45 ec             	mov    -0x14(%rbp),%eax
  803caa:	48 89 d6             	mov    %rdx,%rsi
  803cad:	89 c7                	mov    %eax,%edi
  803caf:	48 b8 45 36 80 00 00 	movabs $0x803645,%rax
  803cb6:	00 00 00 
  803cb9:	ff d0                	callq  *%rax
  803cbb:	89 45 fc             	mov    %eax,-0x4(%rbp)
  803cbe:	83 7d fc 00          	cmpl   $0x0,-0x4(%rbp)
  803cc2:	79 05                	jns    803cc9 <seek+0x34>
  803cc4:	8b 45 fc             	mov    -0x4(%rbp),%eax
  803cc7:	eb 0f                	jmp    803cd8 <seek+0x43>
  803cc9:	48 8b 45 f0          	mov    -0x10(%rbp),%rax
  803ccd:	8b 55 e8             	mov    -0x18(%rbp),%edx
  803cd0:	89 50 04             	mov    %edx,0x4(%rax)
  803cd3:	b8 00 00 00 00       	mov    $0x0,%eax
  803cd8:	c9                   	leaveq 
  803cd9:	c3                   	retq   

0000000000803cda <ftruncate>:
  803cda:	55                   	push   %rbp
  803cdb:	48 89 e5             	mov    %rsp,%rbp
  803cde:	48 83 ec 30          	sub    $0x30,%rsp
  803ce2:	89 7d dc             	mov    %edi,-0x24(%rbp)
  803ce5:	89 75 d8             	mov    %esi,-0x28(%rbp)
  803ce8:	48 8d 55 e8          	lea    -0x18(%rbp),%rdx
  803cec:	8b 45 dc             	mov    -0x24(%rbp),%eax
  803cef:	48 89 d6             	mov    %rdx,%rsi
  803cf2:	89 c7                	mov    %eax,%edi
  803cf4:	48 b8 45 36 80 00 00 	movabs $0x803645,%rax
  803cfb:	00 00 00 
  803cfe:	ff d0                	callq  *%rax
  803d00:	89 45 fc             	mov    %eax,-0x4(%rbp)
  803d03:	83 7d fc 00          	cmpl   $0x0,-0x4(%rbp)
  803d07:	78 24                	js     803d2d <ftruncate+0x53>
  803d09:	48 8b 45 e8          	mov    -0x18(%rbp),%rax
  803d0d:	8b 00                	mov    (%rax),%eax
  803d0f:	48 8d 55 f0          	lea    -0x10(%rbp),%rdx
  803d13:	48 89 d6             	mov    %rdx,%rsi
  803d16:	89 c7                	mov    %eax,%edi
  803d18:	48 b8 9e 37 80 00 00 	movabs $0x80379e,%rax
  803d1f:	00 00 00 
  803d22:	ff d0                	callq  *%rax
  803d24:	89 45 fc             	mov    %eax,-0x4(%rbp)
  803d27:	83 7d fc 00          	cmpl   $0x0,-0x4(%rbp)
  803d2b:	79 05                	jns    803d32 <ftruncate+0x58>
  803d2d:	8b 45 fc             	mov    -0x4(%rbp),%eax
  803d30:	eb 72                	jmp    803da4 <ftruncate+0xca>
  803d32:	48 8b 45 e8          	mov    -0x18(%rbp),%rax
  803d36:	8b 40 08             	mov    0x8(%rax),%eax
  803d39:	83 e0 03             	and    $0x3,%eax
  803d3c:	85 c0                	test   %eax,%eax
  803d3e:	75 3a                	jne    803d7a <ftruncate+0xa0>
  803d40:	48 b8 70 75 b5 00 00 	movabs $0xb57570,%rax
  803d47:	00 00 00 
  803d4a:	48 8b 00             	mov    (%rax),%rax
  803d4d:	8b 80 c8 00 00 00    	mov    0xc8(%rax),%eax
  803d53:	8b 55 dc             	mov    -0x24(%rbp),%edx
  803d56:	89 c6                	mov    %eax,%esi
  803d58:	48 bf d0 14 82 00 00 	movabs $0x8214d0,%rdi
  803d5f:	00 00 00 
  803d62:	b8 00 00 00 00       	mov    $0x0,%eax
  803d67:	48 b9 22 13 80 00 00 	movabs $0x801322,%rcx
  803d6e:	00 00 00 
  803d71:	ff d1                	callq  *%rcx
  803d73:	b8 fd ff ff ff       	mov    $0xfffffffd,%eax
  803d78:	eb 2a                	jmp    803da4 <ftruncate+0xca>
  803d7a:	48 8b 45 f0          	mov    -0x10(%rbp),%rax
  803d7e:	48 8b 40 30          	mov    0x30(%rax),%rax
  803d82:	48 85 c0             	test   %rax,%rax
  803d85:	75 07                	jne    803d8e <ftruncate+0xb4>
  803d87:	b8 f0 ff ff ff       	mov    $0xfffffff0,%eax
  803d8c:	eb 16                	jmp    803da4 <ftruncate+0xca>
  803d8e:	48 8b 45 f0          	mov    -0x10(%rbp),%rax
  803d92:	48 8b 40 30          	mov    0x30(%rax),%rax
  803d96:	48 8b 55 e8          	mov    -0x18(%rbp),%rdx
  803d9a:	8b 4d d8             	mov    -0x28(%rbp),%ecx
  803d9d:	89 ce                	mov    %ecx,%esi
  803d9f:	48 89 d7             	mov    %rdx,%rdi
  803da2:	ff d0                	callq  *%rax
  803da4:	c9                   	leaveq 
  803da5:	c3                   	retq   

0000000000803da6 <fstat>:
  803da6:	55                   	push   %rbp
  803da7:	48 89 e5             	mov    %rsp,%rbp
  803daa:	48 83 ec 30          	sub    $0x30,%rsp
  803dae:	89 7d dc             	mov    %edi,-0x24(%rbp)
  803db1:	48 89 75 d0          	mov    %rsi,-0x30(%rbp)
  803db5:	48 8d 55 e8          	lea    -0x18(%rbp),%rdx
  803db9:	8b 45 dc             	mov    -0x24(%rbp),%eax
  803dbc:	48 89 d6             	mov    %rdx,%rsi
  803dbf:	89 c7                	mov    %eax,%edi
  803dc1:	48 b8 45 36 80 00 00 	movabs $0x803645,%rax
  803dc8:	00 00 00 
  803dcb:	ff d0                	callq  *%rax
  803dcd:	89 45 fc             	mov    %eax,-0x4(%rbp)
  803dd0:	83 7d fc 00          	cmpl   $0x0,-0x4(%rbp)
  803dd4:	78 24                	js     803dfa <fstat+0x54>
  803dd6:	48 8b 45 e8          	mov    -0x18(%rbp),%rax
  803dda:	8b 00                	mov    (%rax),%eax
  803ddc:	48 8d 55 f0          	lea    -0x10(%rbp),%rdx
  803de0:	48 89 d6             	mov    %rdx,%rsi
  803de3:	89 c7                	mov    %eax,%edi
  803de5:	48 b8 9e 37 80 00 00 	movabs $0x80379e,%rax
  803dec:	00 00 00 
  803def:	ff d0                	callq  *%rax
  803df1:	89 45 fc             	mov    %eax,-0x4(%rbp)
  803df4:	83 7d fc 00          	cmpl   $0x0,-0x4(%rbp)
  803df8:	79 05                	jns    803dff <fstat+0x59>
  803dfa:	8b 45 fc             	mov    -0x4(%rbp),%eax
  803dfd:	eb 5e                	jmp    803e5d <fstat+0xb7>
  803dff:	48 8b 45 f0          	mov    -0x10(%rbp),%rax
  803e03:	48 8b 40 28          	mov    0x28(%rax),%rax
  803e07:	48 85 c0             	test   %rax,%rax
  803e0a:	75 07                	jne    803e13 <fstat+0x6d>
  803e0c:	b8 f0 ff ff ff       	mov    $0xfffffff0,%eax
  803e11:	eb 4a                	jmp    803e5d <fstat+0xb7>
  803e13:	48 8b 45 d0          	mov    -0x30(%rbp),%rax
  803e17:	c6 00 00             	movb   $0x0,(%rax)
  803e1a:	48 8b 45 d0          	mov    -0x30(%rbp),%rax
  803e1e:	c7 80 80 00 00 00 00 	movl   $0x0,0x80(%rax)
  803e25:	00 00 00 
  803e28:	48 8b 45 d0          	mov    -0x30(%rbp),%rax
  803e2c:	c7 80 84 00 00 00 00 	movl   $0x0,0x84(%rax)
  803e33:	00 00 00 
  803e36:	48 8b 55 f0          	mov    -0x10(%rbp),%rdx
  803e3a:	48 8b 45 d0          	mov    -0x30(%rbp),%rax
  803e3e:	48 89 90 88 00 00 00 	mov    %rdx,0x88(%rax)
  803e45:	48 8b 45 f0          	mov    -0x10(%rbp),%rax
  803e49:	48 8b 40 28          	mov    0x28(%rax),%rax
  803e4d:	48 8b 55 e8          	mov    -0x18(%rbp),%rdx
  803e51:	48 8b 4d d0          	mov    -0x30(%rbp),%rcx
  803e55:	48 89 ce             	mov    %rcx,%rsi
  803e58:	48 89 d7             	mov    %rdx,%rdi
  803e5b:	ff d0                	callq  *%rax
  803e5d:	c9                   	leaveq 
  803e5e:	c3                   	retq   

0000000000803e5f <stat>:
  803e5f:	55                   	push   %rbp
  803e60:	48 89 e5             	mov    %rsp,%rbp
  803e63:	48 83 ec 20          	sub    $0x20,%rsp
  803e67:	48 89 7d e8          	mov    %rdi,-0x18(%rbp)
  803e6b:	48 89 75 e0          	mov    %rsi,-0x20(%rbp)
  803e6f:	48 8b 45 e8          	mov    -0x18(%rbp),%rax
  803e73:	be 00 00 00 00       	mov    $0x0,%esi
  803e78:	48 89 c7             	mov    %rax,%rdi
  803e7b:	48 b8 4d 3f 80 00 00 	movabs $0x803f4d,%rax
  803e82:	00 00 00 
  803e85:	ff d0                	callq  *%rax
  803e87:	89 45 fc             	mov    %eax,-0x4(%rbp)
  803e8a:	83 7d fc 00          	cmpl   $0x0,-0x4(%rbp)
  803e8e:	79 05                	jns    803e95 <stat+0x36>
  803e90:	8b 45 fc             	mov    -0x4(%rbp),%eax
  803e93:	eb 2f                	jmp    803ec4 <stat+0x65>
  803e95:	48 8b 55 e0          	mov    -0x20(%rbp),%rdx
  803e99:	8b 45 fc             	mov    -0x4(%rbp),%eax
  803e9c:	48 89 d6             	mov    %rdx,%rsi
  803e9f:	89 c7                	mov    %eax,%edi
  803ea1:	48 b8 a6 3d 80 00 00 	movabs $0x803da6,%rax
  803ea8:	00 00 00 
  803eab:	ff d0                	callq  *%rax
  803ead:	89 45 f8             	mov    %eax,-0x8(%rbp)
  803eb0:	8b 45 fc             	mov    -0x4(%rbp),%eax
  803eb3:	89 c7                	mov    %eax,%edi
  803eb5:	48 b8 55 38 80 00 00 	movabs $0x803855,%rax
  803ebc:	00 00 00 
  803ebf:	ff d0                	callq  *%rax
  803ec1:	8b 45 f8             	mov    -0x8(%rbp),%eax
  803ec4:	c9                   	leaveq 
  803ec5:	c3                   	retq   

0000000000803ec6 <fsipc>:
  803ec6:	55                   	push   %rbp
  803ec7:	48 89 e5             	mov    %rsp,%rbp
  803eca:	48 83 ec 10          	sub    $0x10,%rsp
  803ece:	89 7d fc             	mov    %edi,-0x4(%rbp)
  803ed1:	48 89 75 f0          	mov    %rsi,-0x10(%rbp)
  803ed5:	48 b8 84 90 82 00 00 	movabs $0x829084,%rax
  803edc:	00 00 00 
  803edf:	8b 00                	mov    (%rax),%eax
  803ee1:	85 c0                	test   %eax,%eax
  803ee3:	75 1d                	jne    803f02 <fsipc+0x3c>
  803ee5:	bf 01 00 00 00       	mov    $0x1,%edi
  803eea:	48 b8 ed 34 80 00 00 	movabs $0x8034ed,%rax
  803ef1:	00 00 00 
  803ef4:	ff d0                	callq  *%rax
  803ef6:	48 ba 84 90 82 00 00 	movabs $0x829084,%rdx
  803efd:	00 00 00 
  803f00:	89 02                	mov    %eax,(%rdx)
  803f02:	48 b8 84 90 82 00 00 	movabs $0x829084,%rax
  803f09:	00 00 00 
  803f0c:	8b 00                	mov    (%rax),%eax
  803f0e:	8b 75 fc             	mov    -0x4(%rbp),%esi
  803f11:	b9 07 00 00 00       	mov    $0x7,%ecx
  803f16:	48 ba 00 80 b5 00 00 	movabs $0xb58000,%rdx
  803f1d:	00 00 00 
  803f20:	89 c7                	mov    %eax,%edi
  803f22:	48 b8 bc 32 80 00 00 	movabs $0x8032bc,%rax
  803f29:	00 00 00 
  803f2c:	ff d0                	callq  *%rax
  803f2e:	48 8b 45 f0          	mov    -0x10(%rbp),%rax
  803f32:	ba 00 00 00 00       	mov    $0x0,%edx
  803f37:	48 89 c6             	mov    %rax,%rsi
  803f3a:	bf 00 00 00 00       	mov    $0x0,%edi
  803f3f:	48 b8 fb 31 80 00 00 	movabs $0x8031fb,%rax
  803f46:	00 00 00 
  803f49:	ff d0                	callq  *%rax
  803f4b:	c9                   	leaveq 
  803f4c:	c3                   	retq   

0000000000803f4d <open>:
  803f4d:	55                   	push   %rbp
  803f4e:	48 89 e5             	mov    %rsp,%rbp
  803f51:	48 83 ec 20          	sub    $0x20,%rsp
  803f55:	48 89 7d e8          	mov    %rdi,-0x18(%rbp)
  803f59:	89 75 e4             	mov    %esi,-0x1c(%rbp)
  803f5c:	48 8b 45 e8          	mov    -0x18(%rbp),%rax
  803f60:	48 89 c7             	mov    %rax,%rdi
  803f63:	48 b8 6b 1e 80 00 00 	movabs $0x801e6b,%rax
  803f6a:	00 00 00 
  803f6d:	ff d0                	callq  *%rax
  803f6f:	3d ff 03 00 00       	cmp    $0x3ff,%eax
  803f74:	7e 0a                	jle    803f80 <open+0x33>
  803f76:	b8 f3 ff ff ff       	mov    $0xfffffff3,%eax
  803f7b:	e9 a5 00 00 00       	jmpq   804025 <open+0xd8>
  803f80:	48 8d 45 f0          	lea    -0x10(%rbp),%rax
  803f84:	48 89 c7             	mov    %rax,%rdi
  803f87:	48 b8 ad 35 80 00 00 	movabs $0x8035ad,%rax
  803f8e:	00 00 00 
  803f91:	ff d0                	callq  *%rax
  803f93:	89 45 fc             	mov    %eax,-0x4(%rbp)
  803f96:	83 7d fc 00          	cmpl   $0x0,-0x4(%rbp)
  803f9a:	79 08                	jns    803fa4 <open+0x57>
  803f9c:	8b 45 fc             	mov    -0x4(%rbp),%eax
  803f9f:	e9 81 00 00 00       	jmpq   804025 <open+0xd8>
  803fa4:	48 8b 45 e8          	mov    -0x18(%rbp),%rax
  803fa8:	48 89 c6             	mov    %rax,%rsi
  803fab:	48 bf 00 80 b5 00 00 	movabs $0xb58000,%rdi
  803fb2:	00 00 00 
  803fb5:	48 b8 d7 1e 80 00 00 	movabs $0x801ed7,%rax
  803fbc:	00 00 00 
  803fbf:	ff d0                	callq  *%rax
  803fc1:	48 b8 00 80 b5 00 00 	movabs $0xb58000,%rax
  803fc8:	00 00 00 
  803fcb:	8b 55 e4             	mov    -0x1c(%rbp),%edx
  803fce:	89 90 00 04 00 00    	mov    %edx,0x400(%rax)
  803fd4:	48 8b 45 f0          	mov    -0x10(%rbp),%rax
  803fd8:	48 89 c6             	mov    %rax,%rsi
  803fdb:	bf 01 00 00 00       	mov    $0x1,%edi
  803fe0:	48 b8 c6 3e 80 00 00 	movabs $0x803ec6,%rax
  803fe7:	00 00 00 
  803fea:	ff d0                	callq  *%rax
  803fec:	89 45 fc             	mov    %eax,-0x4(%rbp)
  803fef:	83 7d fc 00          	cmpl   $0x0,-0x4(%rbp)
  803ff3:	79 1d                	jns    804012 <open+0xc5>
  803ff5:	48 8b 45 f0          	mov    -0x10(%rbp),%rax
  803ff9:	be 00 00 00 00       	mov    $0x0,%esi
  803ffe:	48 89 c7             	mov    %rax,%rdi
  804001:	48 b8 d5 36 80 00 00 	movabs $0x8036d5,%rax
  804008:	00 00 00 
  80400b:	ff d0                	callq  *%rax
  80400d:	8b 45 fc             	mov    -0x4(%rbp),%eax
  804010:	eb 13                	jmp    804025 <open+0xd8>
  804012:	48 8b 45 f0          	mov    -0x10(%rbp),%rax
  804016:	48 89 c7             	mov    %rax,%rdi
  804019:	48 b8 5f 35 80 00 00 	movabs $0x80355f,%rax
  804020:	00 00 00 
  804023:	ff d0                	callq  *%rax
  804025:	c9                   	leaveq 
  804026:	c3                   	retq   

0000000000804027 <devfile_flush>:
  804027:	55                   	push   %rbp
  804028:	48 89 e5             	mov    %rsp,%rbp
  80402b:	48 83 ec 10          	sub    $0x10,%rsp
  80402f:	48 89 7d f8          	mov    %rdi,-0x8(%rbp)
  804033:	48 8b 45 f8          	mov    -0x8(%rbp),%rax
  804037:	8b 50 0c             	mov    0xc(%rax),%edx
  80403a:	48 b8 00 80 b5 00 00 	movabs $0xb58000,%rax
  804041:	00 00 00 
  804044:	89 10                	mov    %edx,(%rax)
  804046:	be 00 00 00 00       	mov    $0x0,%esi
  80404b:	bf 06 00 00 00       	mov    $0x6,%edi
  804050:	48 b8 c6 3e 80 00 00 	movabs $0x803ec6,%rax
  804057:	00 00 00 
  80405a:	ff d0                	callq  *%rax
  80405c:	c9                   	leaveq 
  80405d:	c3                   	retq   

000000000080405e <devfile_read>:
  80405e:	55                   	push   %rbp
  80405f:	48 89 e5             	mov    %rsp,%rbp
  804062:	48 83 ec 30          	sub    $0x30,%rsp
  804066:	48 89 7d e8          	mov    %rdi,-0x18(%rbp)
  80406a:	48 89 75 e0          	mov    %rsi,-0x20(%rbp)
  80406e:	48 89 55 d8          	mov    %rdx,-0x28(%rbp)
  804072:	48 8b 45 e8          	mov    -0x18(%rbp),%rax
  804076:	8b 50 0c             	mov    0xc(%rax),%edx
  804079:	48 b8 00 80 b5 00 00 	movabs $0xb58000,%rax
  804080:	00 00 00 
  804083:	89 10                	mov    %edx,(%rax)
  804085:	48 b8 00 80 b5 00 00 	movabs $0xb58000,%rax
  80408c:	00 00 00 
  80408f:	48 8b 55 d8          	mov    -0x28(%rbp),%rdx
  804093:	48 89 50 08          	mov    %rdx,0x8(%rax)
  804097:	be 00 00 00 00       	mov    $0x0,%esi
  80409c:	bf 03 00 00 00       	mov    $0x3,%edi
  8040a1:	48 b8 c6 3e 80 00 00 	movabs $0x803ec6,%rax
  8040a8:	00 00 00 
  8040ab:	ff d0                	callq  *%rax
  8040ad:	89 45 fc             	mov    %eax,-0x4(%rbp)
  8040b0:	83 7d fc 00          	cmpl   $0x0,-0x4(%rbp)
  8040b4:	79 08                	jns    8040be <devfile_read+0x60>
  8040b6:	8b 45 fc             	mov    -0x4(%rbp),%eax
  8040b9:	e9 a4 00 00 00       	jmpq   804162 <devfile_read+0x104>
  8040be:	8b 45 fc             	mov    -0x4(%rbp),%eax
  8040c1:	48 98                	cltq   
  8040c3:	48 3b 45 d8          	cmp    -0x28(%rbp),%rax
  8040c7:	76 35                	jbe    8040fe <devfile_read+0xa0>
  8040c9:	48 b9 f6 14 82 00 00 	movabs $0x8214f6,%rcx
  8040d0:	00 00 00 
  8040d3:	48 ba fd 14 82 00 00 	movabs $0x8214fd,%rdx
  8040da:	00 00 00 
  8040dd:	be 89 00 00 00       	mov    $0x89,%esi
  8040e2:	48 bf 12 15 82 00 00 	movabs $0x821512,%rdi
  8040e9:	00 00 00 
  8040ec:	b8 00 00 00 00       	mov    $0x0,%eax
  8040f1:	49 b8 e9 10 80 00 00 	movabs $0x8010e9,%r8
  8040f8:	00 00 00 
  8040fb:	41 ff d0             	callq  *%r8
  8040fe:	81 7d fc 00 10 00 00 	cmpl   $0x1000,-0x4(%rbp)
  804105:	7e 35                	jle    80413c <devfile_read+0xde>
  804107:	48 b9 20 15 82 00 00 	movabs $0x821520,%rcx
  80410e:	00 00 00 
  804111:	48 ba fd 14 82 00 00 	movabs $0x8214fd,%rdx
  804118:	00 00 00 
  80411b:	be 8a 00 00 00       	mov    $0x8a,%esi
  804120:	48 bf 12 15 82 00 00 	movabs $0x821512,%rdi
  804127:	00 00 00 
  80412a:	b8 00 00 00 00       	mov    $0x0,%eax
  80412f:	49 b8 e9 10 80 00 00 	movabs $0x8010e9,%r8
  804136:	00 00 00 
  804139:	41 ff d0             	callq  *%r8
  80413c:	8b 45 fc             	mov    -0x4(%rbp),%eax
  80413f:	48 63 d0             	movslq %eax,%rdx
  804142:	48 8b 45 e0          	mov    -0x20(%rbp),%rax
  804146:	48 be 00 80 b5 00 00 	movabs $0xb58000,%rsi
  80414d:	00 00 00 
  804150:	48 89 c7             	mov    %rax,%rdi
  804153:	48 b8 fb 21 80 00 00 	movabs $0x8021fb,%rax
  80415a:	00 00 00 
  80415d:	ff d0                	callq  *%rax
  80415f:	8b 45 fc             	mov    -0x4(%rbp),%eax
  804162:	c9                   	leaveq 
  804163:	c3                   	retq   

0000000000804164 <devfile_write>:
  804164:	55                   	push   %rbp
  804165:	48 89 e5             	mov    %rsp,%rbp
  804168:	48 83 ec 40          	sub    $0x40,%rsp
  80416c:	48 89 7d d8          	mov    %rdi,-0x28(%rbp)
  804170:	48 89 75 d0          	mov    %rsi,-0x30(%rbp)
  804174:	48 89 55 c8          	mov    %rdx,-0x38(%rbp)
  804178:	48 8b 45 c8          	mov    -0x38(%rbp),%rax
  80417c:	48 89 45 f8          	mov    %rax,-0x8(%rbp)
  804180:	48 c7 45 f0 f4 0f 00 	movq   $0xff4,-0x10(%rbp)
  804187:	00 
  804188:	48 8b 45 f0          	mov    -0x10(%rbp),%rax
  80418c:	48 39 45 f8          	cmp    %rax,-0x8(%rbp)
  804190:	48 0f 46 45 f8       	cmovbe -0x8(%rbp),%rax
  804195:	48 89 45 c8          	mov    %rax,-0x38(%rbp)
  804199:	48 8b 45 d8          	mov    -0x28(%rbp),%rax
  80419d:	8b 50 0c             	mov    0xc(%rax),%edx
  8041a0:	48 b8 00 80 b5 00 00 	movabs $0xb58000,%rax
  8041a7:	00 00 00 
  8041aa:	89 10                	mov    %edx,(%rax)
  8041ac:	48 b8 00 80 b5 00 00 	movabs $0xb58000,%rax
  8041b3:	00 00 00 
  8041b6:	48 8b 55 c8          	mov    -0x38(%rbp),%rdx
  8041ba:	48 89 50 08          	mov    %rdx,0x8(%rax)
  8041be:	48 8b 55 c8          	mov    -0x38(%rbp),%rdx
  8041c2:	48 8b 45 d0          	mov    -0x30(%rbp),%rax
  8041c6:	48 89 c6             	mov    %rax,%rsi
  8041c9:	48 bf 10 80 b5 00 00 	movabs $0xb58010,%rdi
  8041d0:	00 00 00 
  8041d3:	48 b8 fb 21 80 00 00 	movabs $0x8021fb,%rax
  8041da:	00 00 00 
  8041dd:	ff d0                	callq  *%rax
  8041df:	be 00 00 00 00       	mov    $0x0,%esi
  8041e4:	bf 04 00 00 00       	mov    $0x4,%edi
  8041e9:	48 b8 c6 3e 80 00 00 	movabs $0x803ec6,%rax
  8041f0:	00 00 00 
  8041f3:	ff d0                	callq  *%rax
  8041f5:	89 45 ec             	mov    %eax,-0x14(%rbp)
  8041f8:	83 7d ec 00          	cmpl   $0x0,-0x14(%rbp)
  8041fc:	79 05                	jns    804203 <devfile_write+0x9f>
  8041fe:	8b 45 ec             	mov    -0x14(%rbp),%eax
  804201:	eb 43                	jmp    804246 <devfile_write+0xe2>
  804203:	8b 45 ec             	mov    -0x14(%rbp),%eax
  804206:	48 98                	cltq   
  804208:	48 3b 45 c8          	cmp    -0x38(%rbp),%rax
  80420c:	76 35                	jbe    804243 <devfile_write+0xdf>
  80420e:	48 b9 f6 14 82 00 00 	movabs $0x8214f6,%rcx
  804215:	00 00 00 
  804218:	48 ba fd 14 82 00 00 	movabs $0x8214fd,%rdx
  80421f:	00 00 00 
  804222:	be a8 00 00 00       	mov    $0xa8,%esi
  804227:	48 bf 12 15 82 00 00 	movabs $0x821512,%rdi
  80422e:	00 00 00 
  804231:	b8 00 00 00 00       	mov    $0x0,%eax
  804236:	49 b8 e9 10 80 00 00 	movabs $0x8010e9,%r8
  80423d:	00 00 00 
  804240:	41 ff d0             	callq  *%r8
  804243:	8b 45 ec             	mov    -0x14(%rbp),%eax
  804246:	c9                   	leaveq 
  804247:	c3                   	retq   

0000000000804248 <devfile_stat>:
  804248:	55                   	push   %rbp
  804249:	48 89 e5             	mov    %rsp,%rbp
  80424c:	48 83 ec 20          	sub    $0x20,%rsp
  804250:	48 89 7d e8          	mov    %rdi,-0x18(%rbp)
  804254:	48 89 75 e0          	mov    %rsi,-0x20(%rbp)
  804258:	48 8b 45 e8          	mov    -0x18(%rbp),%rax
  80425c:	8b 50 0c             	mov    0xc(%rax),%edx
  80425f:	48 b8 00 80 b5 00 00 	movabs $0xb58000,%rax
  804266:	00 00 00 
  804269:	89 10                	mov    %edx,(%rax)
  80426b:	be 00 00 00 00       	mov    $0x0,%esi
  804270:	bf 05 00 00 00       	mov    $0x5,%edi
  804275:	48 b8 c6 3e 80 00 00 	movabs $0x803ec6,%rax
  80427c:	00 00 00 
  80427f:	ff d0                	callq  *%rax
  804281:	89 45 fc             	mov    %eax,-0x4(%rbp)
  804284:	83 7d fc 00          	cmpl   $0x0,-0x4(%rbp)
  804288:	79 05                	jns    80428f <devfile_stat+0x47>
  80428a:	8b 45 fc             	mov    -0x4(%rbp),%eax
  80428d:	eb 56                	jmp    8042e5 <devfile_stat+0x9d>
  80428f:	48 8b 45 e0          	mov    -0x20(%rbp),%rax
  804293:	48 be 00 80 b5 00 00 	movabs $0xb58000,%rsi
  80429a:	00 00 00 
  80429d:	48 89 c7             	mov    %rax,%rdi
  8042a0:	48 b8 d7 1e 80 00 00 	movabs $0x801ed7,%rax
  8042a7:	00 00 00 
  8042aa:	ff d0                	callq  *%rax
  8042ac:	48 b8 00 80 b5 00 00 	movabs $0xb58000,%rax
  8042b3:	00 00 00 
  8042b6:	8b 90 80 00 00 00    	mov    0x80(%rax),%edx
  8042bc:	48 8b 45 e0          	mov    -0x20(%rbp),%rax
  8042c0:	89 90 80 00 00 00    	mov    %edx,0x80(%rax)
  8042c6:	48 b8 00 80 b5 00 00 	movabs $0xb58000,%rax
  8042cd:	00 00 00 
  8042d0:	8b 90 84 00 00 00    	mov    0x84(%rax),%edx
  8042d6:	48 8b 45 e0          	mov    -0x20(%rbp),%rax
  8042da:	89 90 84 00 00 00    	mov    %edx,0x84(%rax)
  8042e0:	b8 00 00 00 00       	mov    $0x0,%eax
  8042e5:	c9                   	leaveq 
  8042e6:	c3                   	retq   

00000000008042e7 <devfile_trunc>:
  8042e7:	55                   	push   %rbp
  8042e8:	48 89 e5             	mov    %rsp,%rbp
  8042eb:	48 83 ec 10          	sub    $0x10,%rsp
  8042ef:	48 89 7d f8          	mov    %rdi,-0x8(%rbp)
  8042f3:	89 75 f4             	mov    %esi,-0xc(%rbp)
  8042f6:	48 8b 45 f8          	mov    -0x8(%rbp),%rax
  8042fa:	8b 50 0c             	mov    0xc(%rax),%edx
  8042fd:	48 b8 00 80 b5 00 00 	movabs $0xb58000,%rax
  804304:	00 00 00 
  804307:	89 10                	mov    %edx,(%rax)
  804309:	48 b8 00 80 b5 00 00 	movabs $0xb58000,%rax
  804310:	00 00 00 
  804313:	8b 55 f4             	mov    -0xc(%rbp),%edx
  804316:	89 50 04             	mov    %edx,0x4(%rax)
  804319:	be 00 00 00 00       	mov    $0x0,%esi
  80431e:	bf 02 00 00 00       	mov    $0x2,%edi
  804323:	48 b8 c6 3e 80 00 00 	movabs $0x803ec6,%rax
  80432a:	00 00 00 
  80432d:	ff d0                	callq  *%rax
  80432f:	c9                   	leaveq 
  804330:	c3                   	retq   

0000000000804331 <remove>:
  804331:	55                   	push   %rbp
  804332:	48 89 e5             	mov    %rsp,%rbp
  804335:	48 83 ec 10          	sub    $0x10,%rsp
  804339:	48 89 7d f8          	mov    %rdi,-0x8(%rbp)
  80433d:	48 8b 45 f8          	mov    -0x8(%rbp),%rax
  804341:	48 89 c7             	mov    %rax,%rdi
  804344:	48 b8 6b 1e 80 00 00 	movabs $0x801e6b,%rax
  80434b:	00 00 00 
  80434e:	ff d0                	callq  *%rax
  804350:	3d ff 03 00 00       	cmp    $0x3ff,%eax
  804355:	7e 07                	jle    80435e <remove+0x2d>
  804357:	b8 f3 ff ff ff       	mov    $0xfffffff3,%eax
  80435c:	eb 33                	jmp    804391 <remove+0x60>
  80435e:	48 8b 45 f8          	mov    -0x8(%rbp),%rax
  804362:	48 89 c6             	mov    %rax,%rsi
  804365:	48 bf 00 80 b5 00 00 	movabs $0xb58000,%rdi
  80436c:	00 00 00 
  80436f:	48 b8 d7 1e 80 00 00 	movabs $0x801ed7,%rax
  804376:	00 00 00 
  804379:	ff d0                	callq  *%rax
  80437b:	be 00 00 00 00       	mov    $0x0,%esi
  804380:	bf 07 00 00 00       	mov    $0x7,%edi
  804385:	48 b8 c6 3e 80 00 00 	movabs $0x803ec6,%rax
  80438c:	00 00 00 
  80438f:	ff d0                	callq  *%rax
  804391:	c9                   	leaveq 
  804392:	c3                   	retq   

0000000000804393 <sync>:
  804393:	55                   	push   %rbp
  804394:	48 89 e5             	mov    %rsp,%rbp
  804397:	be 00 00 00 00       	mov    $0x0,%esi
  80439c:	bf 08 00 00 00       	mov    $0x8,%edi
  8043a1:	48 b8 c6 3e 80 00 00 	movabs $0x803ec6,%rax
  8043a8:	00 00 00 
  8043ab:	ff d0                	callq  *%rax
  8043ad:	5d                   	pop    %rbp
  8043ae:	c3                   	retq   

00000000008043af <copy>:
  8043af:	55                   	push   %rbp
  8043b0:	48 89 e5             	mov    %rsp,%rbp
  8043b3:	48 81 ec 20 02 00 00 	sub    $0x220,%rsp
  8043ba:	48 89 bd e8 fd ff ff 	mov    %rdi,-0x218(%rbp)
  8043c1:	48 89 b5 e0 fd ff ff 	mov    %rsi,-0x220(%rbp)
  8043c8:	48 8b 85 e8 fd ff ff 	mov    -0x218(%rbp),%rax
  8043cf:	be 00 00 00 00       	mov    $0x0,%esi
  8043d4:	48 89 c7             	mov    %rax,%rdi
  8043d7:	48 b8 4d 3f 80 00 00 	movabs $0x803f4d,%rax
  8043de:	00 00 00 
  8043e1:	ff d0                	callq  *%rax
  8043e3:	89 45 fc             	mov    %eax,-0x4(%rbp)
  8043e6:	83 7d fc 00          	cmpl   $0x0,-0x4(%rbp)
  8043ea:	79 28                	jns    804414 <copy+0x65>
  8043ec:	8b 45 fc             	mov    -0x4(%rbp),%eax
  8043ef:	89 c6                	mov    %eax,%esi
  8043f1:	48 bf 2c 15 82 00 00 	movabs $0x82152c,%rdi
  8043f8:	00 00 00 
  8043fb:	b8 00 00 00 00       	mov    $0x0,%eax
  804400:	48 ba 22 13 80 00 00 	movabs $0x801322,%rdx
  804407:	00 00 00 
  80440a:	ff d2                	callq  *%rdx
  80440c:	8b 45 fc             	mov    -0x4(%rbp),%eax
  80440f:	e9 74 01 00 00       	jmpq   804588 <copy+0x1d9>
  804414:	48 8b 85 e0 fd ff ff 	mov    -0x220(%rbp),%rax
  80441b:	be 01 01 00 00       	mov    $0x101,%esi
  804420:	48 89 c7             	mov    %rax,%rdi
  804423:	48 b8 4d 3f 80 00 00 	movabs $0x803f4d,%rax
  80442a:	00 00 00 
  80442d:	ff d0                	callq  *%rax
  80442f:	89 45 f8             	mov    %eax,-0x8(%rbp)
  804432:	83 7d f8 00          	cmpl   $0x0,-0x8(%rbp)
  804436:	79 39                	jns    804471 <copy+0xc2>
  804438:	8b 45 f8             	mov    -0x8(%rbp),%eax
  80443b:	89 c6                	mov    %eax,%esi
  80443d:	48 bf 42 15 82 00 00 	movabs $0x821542,%rdi
  804444:	00 00 00 
  804447:	b8 00 00 00 00       	mov    $0x0,%eax
  80444c:	48 ba 22 13 80 00 00 	movabs $0x801322,%rdx
  804453:	00 00 00 
  804456:	ff d2                	callq  *%rdx
  804458:	8b 45 fc             	mov    -0x4(%rbp),%eax
  80445b:	89 c7                	mov    %eax,%edi
  80445d:	48 b8 55 38 80 00 00 	movabs $0x803855,%rax
  804464:	00 00 00 
  804467:	ff d0                	callq  *%rax
  804469:	8b 45 f8             	mov    -0x8(%rbp),%eax
  80446c:	e9 17 01 00 00       	jmpq   804588 <copy+0x1d9>
  804471:	eb 74                	jmp    8044e7 <copy+0x138>
  804473:	8b 45 f4             	mov    -0xc(%rbp),%eax
  804476:	48 63 d0             	movslq %eax,%rdx
  804479:	48 8d 8d f0 fd ff ff 	lea    -0x210(%rbp),%rcx
  804480:	8b 45 f8             	mov    -0x8(%rbp),%eax
  804483:	48 89 ce             	mov    %rcx,%rsi
  804486:	89 c7                	mov    %eax,%edi
  804488:	48 b8 c1 3b 80 00 00 	movabs $0x803bc1,%rax
  80448f:	00 00 00 
  804492:	ff d0                	callq  *%rax
  804494:	89 45 f0             	mov    %eax,-0x10(%rbp)
  804497:	83 7d f0 00          	cmpl   $0x0,-0x10(%rbp)
  80449b:	79 4a                	jns    8044e7 <copy+0x138>
  80449d:	8b 45 f0             	mov    -0x10(%rbp),%eax
  8044a0:	89 c6                	mov    %eax,%esi
  8044a2:	48 bf 5c 15 82 00 00 	movabs $0x82155c,%rdi
  8044a9:	00 00 00 
  8044ac:	b8 00 00 00 00       	mov    $0x0,%eax
  8044b1:	48 ba 22 13 80 00 00 	movabs $0x801322,%rdx
  8044b8:	00 00 00 
  8044bb:	ff d2                	callq  *%rdx
  8044bd:	8b 45 fc             	mov    -0x4(%rbp),%eax
  8044c0:	89 c7                	mov    %eax,%edi
  8044c2:	48 b8 55 38 80 00 00 	movabs $0x803855,%rax
  8044c9:	00 00 00 
  8044cc:	ff d0                	callq  *%rax
  8044ce:	8b 45 f8             	mov    -0x8(%rbp),%eax
  8044d1:	89 c7                	mov    %eax,%edi
  8044d3:	48 b8 55 38 80 00 00 	movabs $0x803855,%rax
  8044da:	00 00 00 
  8044dd:	ff d0                	callq  *%rax
  8044df:	8b 45 f0             	mov    -0x10(%rbp),%eax
  8044e2:	e9 a1 00 00 00       	jmpq   804588 <copy+0x1d9>
  8044e7:	48 8d 8d f0 fd ff ff 	lea    -0x210(%rbp),%rcx
  8044ee:	8b 45 fc             	mov    -0x4(%rbp),%eax
  8044f1:	ba 00 02 00 00       	mov    $0x200,%edx
  8044f6:	48 89 ce             	mov    %rcx,%rsi
  8044f9:	89 c7                	mov    %eax,%edi
  8044fb:	48 b8 77 3a 80 00 00 	movabs $0x803a77,%rax
  804502:	00 00 00 
  804505:	ff d0                	callq  *%rax
  804507:	89 45 f4             	mov    %eax,-0xc(%rbp)
  80450a:	83 7d f4 00          	cmpl   $0x0,-0xc(%rbp)
  80450e:	0f 8f 5f ff ff ff    	jg     804473 <copy+0xc4>
  804514:	83 7d f4 00          	cmpl   $0x0,-0xc(%rbp)
  804518:	79 47                	jns    804561 <copy+0x1b2>
  80451a:	8b 45 f4             	mov    -0xc(%rbp),%eax
  80451d:	89 c6                	mov    %eax,%esi
  80451f:	48 bf 6f 15 82 00 00 	movabs $0x82156f,%rdi
  804526:	00 00 00 
  804529:	b8 00 00 00 00       	mov    $0x0,%eax
  80452e:	48 ba 22 13 80 00 00 	movabs $0x801322,%rdx
  804535:	00 00 00 
  804538:	ff d2                	callq  *%rdx
  80453a:	8b 45 fc             	mov    -0x4(%rbp),%eax
  80453d:	89 c7                	mov    %eax,%edi
  80453f:	48 b8 55 38 80 00 00 	movabs $0x803855,%rax
  804546:	00 00 00 
  804549:	ff d0                	callq  *%rax
  80454b:	8b 45 f8             	mov    -0x8(%rbp),%eax
  80454e:	89 c7                	mov    %eax,%edi
  804550:	48 b8 55 38 80 00 00 	movabs $0x803855,%rax
  804557:	00 00 00 
  80455a:	ff d0                	callq  *%rax
  80455c:	8b 45 f4             	mov    -0xc(%rbp),%eax
  80455f:	eb 27                	jmp    804588 <copy+0x1d9>
  804561:	8b 45 fc             	mov    -0x4(%rbp),%eax
  804564:	89 c7                	mov    %eax,%edi
  804566:	48 b8 55 38 80 00 00 	movabs $0x803855,%rax
  80456d:	00 00 00 
  804570:	ff d0                	callq  *%rax
  804572:	8b 45 f8             	mov    -0x8(%rbp),%eax
  804575:	89 c7                	mov    %eax,%edi
  804577:	48 b8 55 38 80 00 00 	movabs $0x803855,%rax
  80457e:	00 00 00 
  804581:	ff d0                	callq  *%rax
  804583:	b8 00 00 00 00       	mov    $0x0,%eax
  804588:	c9                   	leaveq 
  804589:	c3                   	retq   

000000000080458a <fd2sockid>:
  80458a:	55                   	push   %rbp
  80458b:	48 89 e5             	mov    %rsp,%rbp
  80458e:	48 83 ec 20          	sub    $0x20,%rsp
  804592:	89 7d ec             	mov    %edi,-0x14(%rbp)
  804595:	48 8d 55 f0          	lea    -0x10(%rbp),%rdx
  804599:	8b 45 ec             	mov    -0x14(%rbp),%eax
  80459c:	48 89 d6             	mov    %rdx,%rsi
  80459f:	89 c7                	mov    %eax,%edi
  8045a1:	48 b8 45 36 80 00 00 	movabs $0x803645,%rax
  8045a8:	00 00 00 
  8045ab:	ff d0                	callq  *%rax
  8045ad:	89 45 fc             	mov    %eax,-0x4(%rbp)
  8045b0:	83 7d fc 00          	cmpl   $0x0,-0x4(%rbp)
  8045b4:	79 05                	jns    8045bb <fd2sockid+0x31>
  8045b6:	8b 45 fc             	mov    -0x4(%rbp),%eax
  8045b9:	eb 24                	jmp    8045df <fd2sockid+0x55>
  8045bb:	48 8b 45 f0          	mov    -0x10(%rbp),%rax
  8045bf:	8b 10                	mov    (%rax),%edx
  8045c1:	48 b8 a0 80 82 00 00 	movabs $0x8280a0,%rax
  8045c8:	00 00 00 
  8045cb:	8b 00                	mov    (%rax),%eax
  8045cd:	39 c2                	cmp    %eax,%edx
  8045cf:	74 07                	je     8045d8 <fd2sockid+0x4e>
  8045d1:	b8 f0 ff ff ff       	mov    $0xfffffff0,%eax
  8045d6:	eb 07                	jmp    8045df <fd2sockid+0x55>
  8045d8:	48 8b 45 f0          	mov    -0x10(%rbp),%rax
  8045dc:	8b 40 0c             	mov    0xc(%rax),%eax
  8045df:	c9                   	leaveq 
  8045e0:	c3                   	retq   

00000000008045e1 <alloc_sockfd>:
  8045e1:	55                   	push   %rbp
  8045e2:	48 89 e5             	mov    %rsp,%rbp
  8045e5:	48 83 ec 20          	sub    $0x20,%rsp
  8045e9:	89 7d ec             	mov    %edi,-0x14(%rbp)
  8045ec:	48 8d 45 f0          	lea    -0x10(%rbp),%rax
  8045f0:	48 89 c7             	mov    %rax,%rdi
  8045f3:	48 b8 ad 35 80 00 00 	movabs $0x8035ad,%rax
  8045fa:	00 00 00 
  8045fd:	ff d0                	callq  *%rax
  8045ff:	89 45 fc             	mov    %eax,-0x4(%rbp)
  804602:	83 7d fc 00          	cmpl   $0x0,-0x4(%rbp)
  804606:	78 26                	js     80462e <alloc_sockfd+0x4d>
  804608:	48 8b 45 f0          	mov    -0x10(%rbp),%rax
  80460c:	ba 07 04 00 00       	mov    $0x407,%edx
  804611:	48 89 c6             	mov    %rax,%rsi
  804614:	bf 00 00 00 00       	mov    $0x0,%edi
  804619:	48 b8 06 28 80 00 00 	movabs $0x802806,%rax
  804620:	00 00 00 
  804623:	ff d0                	callq  *%rax
  804625:	89 45 fc             	mov    %eax,-0x4(%rbp)
  804628:	83 7d fc 00          	cmpl   $0x0,-0x4(%rbp)
  80462c:	79 16                	jns    804644 <alloc_sockfd+0x63>
  80462e:	8b 45 ec             	mov    -0x14(%rbp),%eax
  804631:	89 c7                	mov    %eax,%edi
  804633:	48 b8 ee 4a 80 00 00 	movabs $0x804aee,%rax
  80463a:	00 00 00 
  80463d:	ff d0                	callq  *%rax
  80463f:	8b 45 fc             	mov    -0x4(%rbp),%eax
  804642:	eb 3a                	jmp    80467e <alloc_sockfd+0x9d>
