
vmm/guest/obj/fs/fs:     file format elf64-x86-64


Disassembly of section .text:

0000000000800020 <_start>:
// starts us running when we are initially loaded into a new environment.
.text
.globl _start
_start:
	// See if we were started with arguments on the stack
	movabs $USTACKTOP, %rax
  800020:	48 b8 00 e0 7f ef 00 	movabs $0xef7fe000,%rax
  800027:	00 00 00 
	cmpq %rax,%rsp
  80002a:	48 39 c4             	cmp    %rax,%rsp
	jne args_exist
  80002d:	75 04                	jne    800033 <args_exist>

	// If not, push dummy argc/argv arguments.
	// This happens when we are loaded by the kernel,
	// because the kernel does not know about passing arguments.
	pushq $0
  80002f:	6a 00                	pushq  $0x0
	pushq $0
  800031:	6a 00                	pushq  $0x0

0000000000800033 <args_exist>:

args_exist:
	movq 8(%rsp), %rsi
  800033:	48 8b 74 24 08       	mov    0x8(%rsp),%rsi
	movq (%rsp), %rdi
  800038:	48 8b 3c 24          	mov    (%rsp),%rdi
	call libmain
  80003c:	e8 51 34 00 00       	callq  803492 <libmain>
1:	jmp 1b
  800041:	eb fe                	jmp    800041 <args_exist+0xe>

0000000000800043 <ide_wait_ready>:
  800043:	55                   	push   %rbp
  800044:	48 89 e5             	mov    %rsp,%rbp
  800047:	48 83 ec 14          	sub    $0x14,%rsp
  80004b:	89 f8                	mov    %edi,%eax
  80004d:	88 45 ec             	mov    %al,-0x14(%rbp)
  800050:	90                   	nop
  800051:	c7 45 f8 f7 01 00 00 	movl   $0x1f7,-0x8(%rbp)

static __inline uint8_t
inb(int port)
{
	uint8_t data;
	__asm __volatile("inb %w1,%0" : "=a" (data) : "d" (port));
  800058:	8b 45 f8             	mov    -0x8(%rbp),%eax
  80005b:	89 c2                	mov    %eax,%edx
  80005d:	ec                   	in     (%dx),%al
  80005e:	88 45 f7             	mov    %al,-0x9(%rbp)
	return data;
  800061:	0f b6 45 f7          	movzbl -0x9(%rbp),%eax
  800065:	0f b6 c0             	movzbl %al,%eax
  800068:	89 45 fc             	mov    %eax,-0x4(%rbp)
  80006b:	8b 45 fc             	mov    -0x4(%rbp),%eax
  80006e:	25 c0 00 00 00       	and    $0xc0,%eax
  800073:	83 f8 40             	cmp    $0x40,%eax
  800076:	75 d9                	jne    800051 <ide_wait_ready+0xe>
  800078:	80 7d ec 00          	cmpb   $0x0,-0x14(%rbp)
  80007c:	74 11                	je     80008f <ide_wait_ready+0x4c>
  80007e:	8b 45 fc             	mov    -0x4(%rbp),%eax
  800081:	83 e0 21             	and    $0x21,%eax
  800084:	85 c0                	test   %eax,%eax
  800086:	74 07                	je     80008f <ide_wait_ready+0x4c>
  800088:	b8 ff ff ff ff       	mov    $0xffffffff,%eax
  80008d:	eb 05                	jmp    800094 <ide_wait_ready+0x51>
  80008f:	b8 00 00 00 00       	mov    $0x0,%eax
  800094:	c9                   	leaveq 
  800095:	c3                   	retq   

0000000000800096 <ide_probe_disk1>:
  800096:	55                   	push   %rbp
  800097:	48 89 e5             	mov    %rsp,%rbp
  80009a:	48 83 ec 20          	sub    $0x20,%rsp
  80009e:	bf 00 00 00 00       	mov    $0x0,%edi
  8000a3:	48 b8 43 00 80 00 00 	movabs $0x800043,%rax
  8000aa:	00 00 00 
  8000ad:	ff d0                	callq  *%rax
  8000af:	c7 45 f4 f6 01 00 00 	movl   $0x1f6,-0xc(%rbp)
  8000b6:	c6 45 f3 f0          	movb   $0xf0,-0xd(%rbp)
}

static __inline void
outb(int port, uint8_t data)
{
	__asm __volatile("outb %0,%w1" : : "a" (data), "d" (port));
  8000ba:	0f b6 45 f3          	movzbl -0xd(%rbp),%eax
  8000be:	8b 55 f4             	mov    -0xc(%rbp),%edx
  8000c1:	ee                   	out    %al,(%dx)
  8000c2:	c7 45 fc 00 00 00 00 	movl   $0x0,-0x4(%rbp)
  8000c9:	eb 04                	jmp    8000cf <ide_probe_disk1+0x39>
  8000cb:	83 45 fc 01          	addl   $0x1,-0x4(%rbp)
  8000cf:	81 7d fc e7 03 00 00 	cmpl   $0x3e7,-0x4(%rbp)
  8000d6:	7f 26                	jg     8000fe <ide_probe_disk1+0x68>
  8000d8:	c7 45 ec f7 01 00 00 	movl   $0x1f7,-0x14(%rbp)

static __inline uint8_t
inb(int port)
{
	uint8_t data;
	__asm __volatile("inb %w1,%0" : "=a" (data) : "d" (port));
  8000df:	8b 45 ec             	mov    -0x14(%rbp),%eax
  8000e2:	89 c2                	mov    %eax,%edx
  8000e4:	ec                   	in     (%dx),%al
  8000e5:	88 45 eb             	mov    %al,-0x15(%rbp)
	return data;
  8000e8:	0f b6 45 eb          	movzbl -0x15(%rbp),%eax
  8000ec:	0f b6 c0             	movzbl %al,%eax
  8000ef:	89 45 f8             	mov    %eax,-0x8(%rbp)
  8000f2:	8b 45 f8             	mov    -0x8(%rbp),%eax
  8000f5:	25 a1 00 00 00       	and    $0xa1,%eax
  8000fa:	85 c0                	test   %eax,%eax
  8000fc:	75 cd                	jne    8000cb <ide_probe_disk1+0x35>
  8000fe:	c7 45 e4 f6 01 00 00 	movl   $0x1f6,-0x1c(%rbp)
  800105:	c6 45 e3 e0          	movb   $0xe0,-0x1d(%rbp)
}

static __inline void
outb(int port, uint8_t data)
{
	__asm __volatile("outb %0,%w1" : : "a" (data), "d" (port));
  800109:	0f b6 45 e3          	movzbl -0x1d(%rbp),%eax
  80010d:	8b 55 e4             	mov    -0x1c(%rbp),%edx
  800110:	ee                   	out    %al,(%dx)
  800111:	81 7d fc e7 03 00 00 	cmpl   $0x3e7,-0x4(%rbp)
  800118:	0f 9e c0             	setle  %al
  80011b:	0f b6 c0             	movzbl %al,%eax
  80011e:	89 c6                	mov    %eax,%esi
  800120:	48 bf 00 76 80 00 00 	movabs $0x807600,%rdi
  800127:	00 00 00 
  80012a:	b8 00 00 00 00       	mov    $0x0,%eax
  80012f:	48 ba 71 37 80 00 00 	movabs $0x803771,%rdx
  800136:	00 00 00 
  800139:	ff d2                	callq  *%rdx
  80013b:	81 7d fc e7 03 00 00 	cmpl   $0x3e7,-0x4(%rbp)
  800142:	0f 9e c0             	setle  %al
  800145:	c9                   	leaveq 
  800146:	c3                   	retq   

0000000000800147 <ide_set_disk>:
  800147:	55                   	push   %rbp
  800148:	48 89 e5             	mov    %rsp,%rbp
  80014b:	48 83 ec 10          	sub    $0x10,%rsp
  80014f:	89 7d fc             	mov    %edi,-0x4(%rbp)
  800152:	83 7d fc 00          	cmpl   $0x0,-0x4(%rbp)
  800156:	74 30                	je     800188 <ide_set_disk+0x41>
  800158:	83 7d fc 01          	cmpl   $0x1,-0x4(%rbp)
  80015c:	74 2a                	je     800188 <ide_set_disk+0x41>
  80015e:	48 ba 17 76 80 00 00 	movabs $0x807617,%rdx
  800165:	00 00 00 
  800168:	be 3f 00 00 00       	mov    $0x3f,%esi
  80016d:	48 bf 27 76 80 00 00 	movabs $0x807627,%rdi
  800174:	00 00 00 
  800177:	b8 00 00 00 00       	mov    $0x0,%eax
  80017c:	48 b9 38 35 80 00 00 	movabs $0x803538,%rcx
  800183:	00 00 00 
  800186:	ff d1                	callq  *%rcx
  800188:	48 b8 00 a0 80 00 00 	movabs $0x80a000,%rax
  80018f:	00 00 00 
  800192:	8b 55 fc             	mov    -0x4(%rbp),%edx
  800195:	89 10                	mov    %edx,(%rax)
  800197:	c9                   	leaveq 
  800198:	c3                   	retq   

0000000000800199 <ide_read>:
  800199:	55                   	push   %rbp
  80019a:	48 89 e5             	mov    %rsp,%rbp
  80019d:	48 83 ec 70          	sub    $0x70,%rsp
  8001a1:	89 7d ac             	mov    %edi,-0x54(%rbp)
  8001a4:	48 89 75 a0          	mov    %rsi,-0x60(%rbp)
  8001a8:	48 89 55 98          	mov    %rdx,-0x68(%rbp)
  8001ac:	48 81 7d 98 00 01 00 	cmpq   $0x100,-0x68(%rbp)
  8001b3:	00 
  8001b4:	76 35                	jbe    8001eb <ide_read+0x52>
  8001b6:	48 b9 33 76 80 00 00 	movabs $0x807633,%rcx
  8001bd:	00 00 00 
  8001c0:	48 ba 40 76 80 00 00 	movabs $0x807640,%rdx
  8001c7:	00 00 00 
  8001ca:	be 51 00 00 00       	mov    $0x51,%esi
  8001cf:	48 bf 27 76 80 00 00 	movabs $0x807627,%rdi
  8001d6:	00 00 00 
  8001d9:	b8 00 00 00 00       	mov    $0x0,%eax
  8001de:	49 b8 38 35 80 00 00 	movabs $0x803538,%r8
  8001e5:	00 00 00 
  8001e8:	41 ff d0             	callq  *%r8
  8001eb:	bf 00 00 00 00       	mov    $0x0,%edi
  8001f0:	48 b8 43 00 80 00 00 	movabs $0x800043,%rax
  8001f7:	00 00 00 
  8001fa:	ff d0                	callq  *%rax
  8001fc:	48 8b 45 98          	mov    -0x68(%rbp),%rax
  800200:	0f b6 c0             	movzbl %al,%eax
  800203:	c7 45 f8 f2 01 00 00 	movl   $0x1f2,-0x8(%rbp)
  80020a:	88 45 f7             	mov    %al,-0x9(%rbp)
  80020d:	0f b6 45 f7          	movzbl -0x9(%rbp),%eax
  800211:	8b 55 f8             	mov    -0x8(%rbp),%edx
  800214:	ee                   	out    %al,(%dx)
  800215:	8b 45 ac             	mov    -0x54(%rbp),%eax
  800218:	0f b6 c0             	movzbl %al,%eax
  80021b:	c7 45 f0 f3 01 00 00 	movl   $0x1f3,-0x10(%rbp)
  800222:	88 45 ef             	mov    %al,-0x11(%rbp)
  800225:	0f b6 45 ef          	movzbl -0x11(%rbp),%eax
  800229:	8b 55 f0             	mov    -0x10(%rbp),%edx
  80022c:	ee                   	out    %al,(%dx)
  80022d:	8b 45 ac             	mov    -0x54(%rbp),%eax
  800230:	c1 e8 08             	shr    $0x8,%eax
  800233:	0f b6 c0             	movzbl %al,%eax
  800236:	c7 45 e8 f4 01 00 00 	movl   $0x1f4,-0x18(%rbp)
  80023d:	88 45 e7             	mov    %al,-0x19(%rbp)
  800240:	0f b6 45 e7          	movzbl -0x19(%rbp),%eax
  800244:	8b 55 e8             	mov    -0x18(%rbp),%edx
  800247:	ee                   	out    %al,(%dx)
  800248:	8b 45 ac             	mov    -0x54(%rbp),%eax
  80024b:	c1 e8 10             	shr    $0x10,%eax
  80024e:	0f b6 c0             	movzbl %al,%eax
  800251:	c7 45 e0 f5 01 00 00 	movl   $0x1f5,-0x20(%rbp)
  800258:	88 45 df             	mov    %al,-0x21(%rbp)
  80025b:	0f b6 45 df          	movzbl -0x21(%rbp),%eax
  80025f:	8b 55 e0             	mov    -0x20(%rbp),%edx
  800262:	ee                   	out    %al,(%dx)
  800263:	48 b8 00 a0 80 00 00 	movabs $0x80a000,%rax
  80026a:	00 00 00 
  80026d:	8b 00                	mov    (%rax),%eax
  80026f:	83 e0 01             	and    $0x1,%eax
  800272:	c1 e0 04             	shl    $0x4,%eax
  800275:	89 c2                	mov    %eax,%edx
  800277:	8b 45 ac             	mov    -0x54(%rbp),%eax
  80027a:	c1 e8 18             	shr    $0x18,%eax
  80027d:	83 e0 0f             	and    $0xf,%eax
  800280:	09 d0                	or     %edx,%eax
  800282:	83 c8 e0             	or     $0xffffffe0,%eax
  800285:	0f b6 c0             	movzbl %al,%eax
  800288:	c7 45 d8 f6 01 00 00 	movl   $0x1f6,-0x28(%rbp)
  80028f:	88 45 d7             	mov    %al,-0x29(%rbp)
  800292:	0f b6 45 d7          	movzbl -0x29(%rbp),%eax
  800296:	8b 55 d8             	mov    -0x28(%rbp),%edx
  800299:	ee                   	out    %al,(%dx)
  80029a:	c7 45 d0 f7 01 00 00 	movl   $0x1f7,-0x30(%rbp)
  8002a1:	c6 45 cf 20          	movb   $0x20,-0x31(%rbp)
  8002a5:	0f b6 45 cf          	movzbl -0x31(%rbp),%eax
  8002a9:	8b 55 d0             	mov    -0x30(%rbp),%edx
  8002ac:	ee                   	out    %al,(%dx)
  8002ad:	eb 64                	jmp    800313 <ide_read+0x17a>
  8002af:	bf 01 00 00 00       	mov    $0x1,%edi
  8002b4:	48 b8 43 00 80 00 00 	movabs $0x800043,%rax
  8002bb:	00 00 00 
  8002be:	ff d0                	callq  *%rax
  8002c0:	89 45 fc             	mov    %eax,-0x4(%rbp)
  8002c3:	83 7d fc 00          	cmpl   $0x0,-0x4(%rbp)
  8002c7:	79 05                	jns    8002ce <ide_read+0x135>
  8002c9:	8b 45 fc             	mov    -0x4(%rbp),%eax
  8002cc:	eb 51                	jmp    80031f <ide_read+0x186>
  8002ce:	c7 45 c8 f0 01 00 00 	movl   $0x1f0,-0x38(%rbp)
  8002d5:	48 8b 45 a0          	mov    -0x60(%rbp),%rax
  8002d9:	48 89 45 c0          	mov    %rax,-0x40(%rbp)
  8002dd:	c7 45 bc 00 01 00 00 	movl   $0x100,-0x44(%rbp)
}

static __inline void
insw(int port, void *addr, int cnt)
{
	__asm __volatile("cld\n\trepne\n\tinsw"			:
  8002e4:	8b 55 c8             	mov    -0x38(%rbp),%edx
  8002e7:	48 8b 4d c0          	mov    -0x40(%rbp),%rcx
  8002eb:	8b 45 bc             	mov    -0x44(%rbp),%eax
  8002ee:	48 89 ce             	mov    %rcx,%rsi
  8002f1:	48 89 f7             	mov    %rsi,%rdi
  8002f4:	89 c1                	mov    %eax,%ecx
  8002f6:	fc                   	cld    
  8002f7:	f2 66 6d             	repnz insw (%dx),%es:(%rdi)
  8002fa:	89 c8                	mov    %ecx,%eax
  8002fc:	48 89 fe             	mov    %rdi,%rsi
  8002ff:	48 89 75 c0          	mov    %rsi,-0x40(%rbp)
  800303:	89 45 bc             	mov    %eax,-0x44(%rbp)
  800306:	48 83 6d 98 01       	subq   $0x1,-0x68(%rbp)
  80030b:	48 81 45 a0 00 02 00 	addq   $0x200,-0x60(%rbp)
  800312:	00 
  800313:	48 83 7d 98 00       	cmpq   $0x0,-0x68(%rbp)
  800318:	75 95                	jne    8002af <ide_read+0x116>
  80031a:	b8 00 00 00 00       	mov    $0x0,%eax
  80031f:	c9                   	leaveq 
  800320:	c3                   	retq   

0000000000800321 <ide_write>:
  800321:	55                   	push   %rbp
  800322:	48 89 e5             	mov    %rsp,%rbp
  800325:	48 83 ec 70          	sub    $0x70,%rsp
  800329:	89 7d ac             	mov    %edi,-0x54(%rbp)
  80032c:	48 89 75 a0          	mov    %rsi,-0x60(%rbp)
  800330:	48 89 55 98          	mov    %rdx,-0x68(%rbp)
  800334:	48 81 7d 98 00 01 00 	cmpq   $0x100,-0x68(%rbp)
  80033b:	00 
  80033c:	76 35                	jbe    800373 <ide_write+0x52>
  80033e:	48 b9 33 76 80 00 00 	movabs $0x807633,%rcx
  800345:	00 00 00 
  800348:	48 ba 40 76 80 00 00 	movabs $0x807640,%rdx
  80034f:	00 00 00 
  800352:	be 71 00 00 00       	mov    $0x71,%esi
  800357:	48 bf 27 76 80 00 00 	movabs $0x807627,%rdi
  80035e:	00 00 00 
  800361:	b8 00 00 00 00       	mov    $0x0,%eax
  800366:	49 b8 38 35 80 00 00 	movabs $0x803538,%r8
  80036d:	00 00 00 
  800370:	41 ff d0             	callq  *%r8
  800373:	bf 00 00 00 00       	mov    $0x0,%edi
  800378:	48 b8 43 00 80 00 00 	movabs $0x800043,%rax
  80037f:	00 00 00 
  800382:	ff d0                	callq  *%rax
  800384:	48 8b 45 98          	mov    -0x68(%rbp),%rax
  800388:	0f b6 c0             	movzbl %al,%eax
  80038b:	c7 45 f8 f2 01 00 00 	movl   $0x1f2,-0x8(%rbp)
  800392:	88 45 f7             	mov    %al,-0x9(%rbp)
}

static __inline void
outb(int port, uint8_t data)
{
	__asm __volatile("outb %0,%w1" : : "a" (data), "d" (port));
  800395:	0f b6 45 f7          	movzbl -0x9(%rbp),%eax
  800399:	8b 55 f8             	mov    -0x8(%rbp),%edx
  80039c:	ee                   	out    %al,(%dx)
  80039d:	8b 45 ac             	mov    -0x54(%rbp),%eax
  8003a0:	0f b6 c0             	movzbl %al,%eax
  8003a3:	c7 45 f0 f3 01 00 00 	movl   $0x1f3,-0x10(%rbp)
  8003aa:	88 45 ef             	mov    %al,-0x11(%rbp)
  8003ad:	0f b6 45 ef          	movzbl -0x11(%rbp),%eax
  8003b1:	8b 55 f0             	mov    -0x10(%rbp),%edx
  8003b4:	ee                   	out    %al,(%dx)
  8003b5:	8b 45 ac             	mov    -0x54(%rbp),%eax
  8003b8:	c1 e8 08             	shr    $0x8,%eax
  8003bb:	0f b6 c0             	movzbl %al,%eax
  8003be:	c7 45 e8 f4 01 00 00 	movl   $0x1f4,-0x18(%rbp)
  8003c5:	88 45 e7             	mov    %al,-0x19(%rbp)
  8003c8:	0f b6 45 e7          	movzbl -0x19(%rbp),%eax
  8003cc:	8b 55 e8             	mov    -0x18(%rbp),%edx
  8003cf:	ee                   	out    %al,(%dx)
  8003d0:	8b 45 ac             	mov    -0x54(%rbp),%eax
  8003d3:	c1 e8 10             	shr    $0x10,%eax
  8003d6:	0f b6 c0             	movzbl %al,%eax
  8003d9:	c7 45 e0 f5 01 00 00 	movl   $0x1f5,-0x20(%rbp)
  8003e0:	88 45 df             	mov    %al,-0x21(%rbp)
  8003e3:	0f b6 45 df          	movzbl -0x21(%rbp),%eax
  8003e7:	8b 55 e0             	mov    -0x20(%rbp),%edx
  8003ea:	ee                   	out    %al,(%dx)
  8003eb:	48 b8 00 a0 80 00 00 	movabs $0x80a000,%rax
  8003f2:	00 00 00 
  8003f5:	8b 00                	mov    (%rax),%eax
  8003f7:	83 e0 01             	and    $0x1,%eax
  8003fa:	c1 e0 04             	shl    $0x4,%eax
  8003fd:	89 c2                	mov    %eax,%edx
  8003ff:	8b 45 ac             	mov    -0x54(%rbp),%eax
  800402:	c1 e8 18             	shr    $0x18,%eax
  800405:	83 e0 0f             	and    $0xf,%eax
  800408:	09 d0                	or     %edx,%eax
  80040a:	83 c8 e0             	or     $0xffffffe0,%eax
  80040d:	0f b6 c0             	movzbl %al,%eax
  800410:	c7 45 d8 f6 01 00 00 	movl   $0x1f6,-0x28(%rbp)
  800417:	88 45 d7             	mov    %al,-0x29(%rbp)
  80041a:	0f b6 45 d7          	movzbl -0x29(%rbp),%eax
  80041e:	8b 55 d8             	mov    -0x28(%rbp),%edx
  800421:	ee                   	out    %al,(%dx)
  800422:	c7 45 d0 f7 01 00 00 	movl   $0x1f7,-0x30(%rbp)
  800429:	c6 45 cf 30          	movb   $0x30,-0x31(%rbp)
  80042d:	0f b6 45 cf          	movzbl -0x31(%rbp),%eax
  800431:	8b 55 d0             	mov    -0x30(%rbp),%edx
  800434:	ee                   	out    %al,(%dx)
  800435:	eb 5e                	jmp    800495 <ide_write+0x174>
  800437:	bf 01 00 00 00       	mov    $0x1,%edi
  80043c:	48 b8 43 00 80 00 00 	movabs $0x800043,%rax
  800443:	00 00 00 
  800446:	ff d0                	callq  *%rax
  800448:	89 45 fc             	mov    %eax,-0x4(%rbp)
  80044b:	83 7d fc 00          	cmpl   $0x0,-0x4(%rbp)
  80044f:	79 05                	jns    800456 <ide_write+0x135>
  800451:	8b 45 fc             	mov    -0x4(%rbp),%eax
  800454:	eb 4b                	jmp    8004a1 <ide_write+0x180>
  800456:	c7 45 c8 f0 01 00 00 	movl   $0x1f0,-0x38(%rbp)
  80045d:	48 8b 45 a0          	mov    -0x60(%rbp),%rax
  800461:	48 89 45 c0          	mov    %rax,-0x40(%rbp)
  800465:	c7 45 bc 00 01 00 00 	movl   $0x100,-0x44(%rbp)
}

static __inline void
outsw(int port, const void *addr, int cnt)
{
	__asm __volatile("cld\n\trepne\n\toutsw"		:
  80046c:	8b 55 c8             	mov    -0x38(%rbp),%edx
  80046f:	48 8b 4d c0          	mov    -0x40(%rbp),%rcx
  800473:	8b 45 bc             	mov    -0x44(%rbp),%eax
  800476:	48 89 ce             	mov    %rcx,%rsi
  800479:	89 c1                	mov    %eax,%ecx
  80047b:	fc                   	cld    
  80047c:	f2 66 6f             	repnz outsw %ds:(%rsi),(%dx)
  80047f:	89 c8                	mov    %ecx,%eax
  800481:	48 89 75 c0          	mov    %rsi,-0x40(%rbp)
  800485:	89 45 bc             	mov    %eax,-0x44(%rbp)
  800488:	48 83 6d 98 01       	subq   $0x1,-0x68(%rbp)
  80048d:	48 81 45 a0 00 02 00 	addq   $0x200,-0x60(%rbp)
  800494:	00 
  800495:	48 83 7d 98 00       	cmpq   $0x0,-0x68(%rbp)
  80049a:	75 9b                	jne    800437 <ide_write+0x116>
  80049c:	b8 00 00 00 00       	mov    $0x0,%eax
  8004a1:	c9                   	leaveq 
  8004a2:	c3                   	retq   

00000000008004a3 <diskaddr>:
#include "fs.h"

// Return the virtual address of this disk block.
void*
diskaddr(uint64_t blockno)
{
  8004a3:	55                   	push   %rbp
  8004a4:	48 89 e5             	mov    %rsp,%rbp
  8004a7:	48 83 ec 10          	sub    $0x10,%rsp
  8004ab:	48 89 7d f8          	mov    %rdi,-0x8(%rbp)
	if (blockno == 0 || (super && blockno >= super->s_nblocks))
  8004af:	48 83 7d f8 00       	cmpq   $0x0,-0x8(%rbp)
  8004b4:	74 2a                	je     8004e0 <diskaddr+0x3d>
  8004b6:	48 b8 18 60 81 00 00 	movabs $0x816018,%rax
  8004bd:	00 00 00 
  8004c0:	48 8b 00             	mov    (%rax),%rax
  8004c3:	48 85 c0             	test   %rax,%rax
  8004c6:	74 4a                	je     800512 <diskaddr+0x6f>
  8004c8:	48 b8 18 60 81 00 00 	movabs $0x816018,%rax
  8004cf:	00 00 00 
  8004d2:	48 8b 00             	mov    (%rax),%rax
  8004d5:	8b 40 04             	mov    0x4(%rax),%eax
  8004d8:	89 c0                	mov    %eax,%eax
  8004da:	48 3b 45 f8          	cmp    -0x8(%rbp),%rax
  8004de:	77 32                	ja     800512 <diskaddr+0x6f>
		panic("bad block number %08x in diskaddr", blockno);
  8004e0:	48 8b 45 f8          	mov    -0x8(%rbp),%rax
  8004e4:	48 89 c1             	mov    %rax,%rcx
  8004e7:	48 ba 58 76 80 00 00 	movabs $0x807658,%rdx
  8004ee:	00 00 00 
  8004f1:	be 09 00 00 00       	mov    $0x9,%esi
  8004f6:	48 bf 7a 76 80 00 00 	movabs $0x80767a,%rdi
  8004fd:	00 00 00 
  800500:	b8 00 00 00 00       	mov    $0x0,%eax
  800505:	49 b8 38 35 80 00 00 	movabs $0x803538,%r8
  80050c:	00 00 00 
  80050f:	41 ff d0             	callq  *%r8
	return (char*) (DISKMAP + blockno * BLKSIZE);
  800512:	48 8b 45 f8          	mov    -0x8(%rbp),%rax
  800516:	48 05 00 00 01 00    	add    $0x10000,%rax
  80051c:	48 c1 e0 0c          	shl    $0xc,%rax
}
  800520:	c9                   	leaveq 
  800521:	c3                   	retq   

0000000000800522 <va_is_mapped>:

// Is this virtual address mapped?
bool
va_is_mapped(void *va)
{
  800522:	55                   	push   %rbp
  800523:	48 89 e5             	mov    %rsp,%rbp
  800526:	48 83 ec 08          	sub    $0x8,%rsp
  80052a:	48 89 7d f8          	mov    %rdi,-0x8(%rbp)
	return (uvpml4e[VPML4E(va)] & PTE_P) && (uvpde[VPDPE(va)] & PTE_P) && (uvpd[VPD(va)] & PTE_P) && (uvpt[PGNUM(va)] & PTE_P);
  80052e:	48 8b 45 f8          	mov    -0x8(%rbp),%rax
  800532:	48 c1 e8 27          	shr    $0x27,%rax
  800536:	48 89 c2             	mov    %rax,%rdx
  800539:	48 b8 00 20 40 80 00 	movabs $0x10080402000,%rax
  800540:	01 00 00 
  800543:	48 8b 04 d0          	mov    (%rax,%rdx,8),%rax
  800547:	83 e0 01             	and    $0x1,%eax
  80054a:	48 85 c0             	test   %rax,%rax
  80054d:	74 6a                	je     8005b9 <va_is_mapped+0x97>
  80054f:	48 8b 45 f8          	mov    -0x8(%rbp),%rax
  800553:	48 c1 e8 1e          	shr    $0x1e,%rax
  800557:	48 89 c2             	mov    %rax,%rdx
  80055a:	48 b8 00 00 40 80 00 	movabs $0x10080400000,%rax
  800561:	01 00 00 
  800564:	48 8b 04 d0          	mov    (%rax,%rdx,8),%rax
  800568:	83 e0 01             	and    $0x1,%eax
  80056b:	48 85 c0             	test   %rax,%rax
  80056e:	74 49                	je     8005b9 <va_is_mapped+0x97>
  800570:	48 8b 45 f8          	mov    -0x8(%rbp),%rax
  800574:	48 c1 e8 15          	shr    $0x15,%rax
  800578:	48 89 c2             	mov    %rax,%rdx
  80057b:	48 b8 00 00 00 80 00 	movabs $0x10080000000,%rax
  800582:	01 00 00 
  800585:	48 8b 04 d0          	mov    (%rax,%rdx,8),%rax
  800589:	83 e0 01             	and    $0x1,%eax
  80058c:	48 85 c0             	test   %rax,%rax
  80058f:	74 28                	je     8005b9 <va_is_mapped+0x97>
  800591:	48 8b 45 f8          	mov    -0x8(%rbp),%rax
  800595:	48 c1 e8 0c          	shr    $0xc,%rax
  800599:	48 89 c2             	mov    %rax,%rdx
  80059c:	48 b8 00 00 00 00 00 	movabs $0x10000000000,%rax
  8005a3:	01 00 00 
  8005a6:	48 8b 04 d0          	mov    (%rax,%rdx,8),%rax
  8005aa:	83 e0 01             	and    $0x1,%eax
  8005ad:	48 85 c0             	test   %rax,%rax
  8005b0:	74 07                	je     8005b9 <va_is_mapped+0x97>
  8005b2:	b8 01 00 00 00       	mov    $0x1,%eax
  8005b7:	eb 05                	jmp    8005be <va_is_mapped+0x9c>
  8005b9:	b8 00 00 00 00       	mov    $0x0,%eax
  8005be:	83 e0 01             	and    $0x1,%eax
}
  8005c1:	c9                   	leaveq 
  8005c2:	c3                   	retq   

00000000008005c3 <va_is_dirty>:

// Is this virtual address dirty?
bool
va_is_dirty(void *va)
{
  8005c3:	55                   	push   %rbp
  8005c4:	48 89 e5             	mov    %rsp,%rbp
  8005c7:	48 83 ec 08          	sub    $0x8,%rsp
  8005cb:	48 89 7d f8          	mov    %rdi,-0x8(%rbp)
	return (uvpt[PGNUM(va)] & PTE_D) != 0;
  8005cf:	48 8b 45 f8          	mov    -0x8(%rbp),%rax
  8005d3:	48 c1 e8 0c          	shr    $0xc,%rax
  8005d7:	48 89 c2             	mov    %rax,%rdx
  8005da:	48 b8 00 00 00 00 00 	movabs $0x10000000000,%rax
  8005e1:	01 00 00 
  8005e4:	48 8b 04 d0          	mov    (%rax,%rdx,8),%rax
  8005e8:	83 e0 40             	and    $0x40,%eax
  8005eb:	48 85 c0             	test   %rax,%rax
  8005ee:	0f 95 c0             	setne  %al
}
  8005f1:	c9                   	leaveq 
  8005f2:	c3                   	retq   

00000000008005f3 <bc_pgfault>:
// Fault any disk block that is read in to memory by
// loading it from disk.
// Hint: Use ide_read and BLKSECTS.
static void
bc_pgfault(struct UTrapframe *utf)
{
  8005f3:	55                   	push   %rbp
  8005f4:	48 89 e5             	mov    %rsp,%rbp
  8005f7:	48 83 ec 30          	sub    $0x30,%rsp
  8005fb:	48 89 7d d8          	mov    %rdi,-0x28(%rbp)
	void *addr = (void *) utf->utf_fault_va;
  8005ff:	48 8b 45 d8          	mov    -0x28(%rbp),%rax
  800603:	48 8b 00             	mov    (%rax),%rax
  800606:	48 89 45 f8          	mov    %rax,-0x8(%rbp)
	uint64_t blockno = ((uint64_t)addr - DISKMAP) / BLKSIZE;
  80060a:	48 8b 45 f8          	mov    -0x8(%rbp),%rax
  80060e:	48 2d 00 00 00 10    	sub    $0x10000000,%rax
  800614:	48 c1 e8 0c          	shr    $0xc,%rax
  800618:	48 89 45 f0          	mov    %rax,-0x10(%rbp)
	int r;

	// Check that the fault was within the block cache region
	if (addr < (void*)DISKMAP || addr >= (void*)(DISKMAP + DISKSIZE))
  80061c:	48 81 7d f8 ff ff ff 	cmpq   $0xfffffff,-0x8(%rbp)
  800623:	0f 
  800624:	76 0b                	jbe    800631 <bc_pgfault+0x3e>
  800626:	b8 ff ff ff cf       	mov    $0xcfffffff,%eax
  80062b:	48 39 45 f8          	cmp    %rax,-0x8(%rbp)
  80062f:	76 4b                	jbe    80067c <bc_pgfault+0x89>
		panic("page fault in FS: eip %08x, va %08x, err %04x",
  800631:	48 8b 45 d8          	mov    -0x28(%rbp),%rax
  800635:	48 8b 48 08          	mov    0x8(%rax),%rcx
  800639:	48 8b 45 d8          	mov    -0x28(%rbp),%rax
  80063d:	48 8b 80 88 00 00 00 	mov    0x88(%rax),%rax
  800644:	48 8b 55 f8          	mov    -0x8(%rbp),%rdx
  800648:	49 89 c9             	mov    %rcx,%r9
  80064b:	49 89 d0             	mov    %rdx,%r8
  80064e:	48 89 c1             	mov    %rax,%rcx
  800651:	48 ba 88 76 80 00 00 	movabs $0x807688,%rdx
  800658:	00 00 00 
  80065b:	be 28 00 00 00       	mov    $0x28,%esi
  800660:	48 bf 7a 76 80 00 00 	movabs $0x80767a,%rdi
  800667:	00 00 00 
  80066a:	b8 00 00 00 00       	mov    $0x0,%eax
  80066f:	49 ba 38 35 80 00 00 	movabs $0x803538,%r10
  800676:	00 00 00 
  800679:	41 ff d2             	callq  *%r10
		      utf->utf_rip, addr, utf->utf_err);

	// Sanity check the block number.
	if (super && blockno >= super->s_nblocks)
  80067c:	48 b8 18 60 81 00 00 	movabs $0x816018,%rax
  800683:	00 00 00 
  800686:	48 8b 00             	mov    (%rax),%rax
  800689:	48 85 c0             	test   %rax,%rax
  80068c:	74 4a                	je     8006d8 <bc_pgfault+0xe5>
  80068e:	48 b8 18 60 81 00 00 	movabs $0x816018,%rax
  800695:	00 00 00 
  800698:	48 8b 00             	mov    (%rax),%rax
  80069b:	8b 40 04             	mov    0x4(%rax),%eax
  80069e:	89 c0                	mov    %eax,%eax
  8006a0:	48 3b 45 f0          	cmp    -0x10(%rbp),%rax
  8006a4:	77 32                	ja     8006d8 <bc_pgfault+0xe5>
		panic("reading non-existent block %08x\n", blockno);
  8006a6:	48 8b 45 f0          	mov    -0x10(%rbp),%rax
  8006aa:	48 89 c1             	mov    %rax,%rcx
  8006ad:	48 ba b8 76 80 00 00 	movabs $0x8076b8,%rdx
  8006b4:	00 00 00 
  8006b7:	be 2c 00 00 00       	mov    $0x2c,%esi
  8006bc:	48 bf 7a 76 80 00 00 	movabs $0x80767a,%rdi
  8006c3:	00 00 00 
  8006c6:	b8 00 00 00 00       	mov    $0x0,%eax
  8006cb:	49 b8 38 35 80 00 00 	movabs $0x803538,%r8
  8006d2:	00 00 00 
  8006d5:	41 ff d0             	callq  *%r8

	// Allocate a page in the disk map region, read the contents
	// of the block from the disk into that page.
	// Hint: first round addr to page boundary.
	//
	addr = ROUNDDOWN(addr, PGSIZE);
  8006d8:	48 8b 45 f8          	mov    -0x8(%rbp),%rax
  8006dc:	48 89 45 e8          	mov    %rax,-0x18(%rbp)
  8006e0:	48 8b 45 e8          	mov    -0x18(%rbp),%rax
  8006e4:	48 25 00 f0 ff ff    	and    $0xfffffffffffff000,%rax
  8006ea:	48 89 45 f8          	mov    %rax,-0x8(%rbp)
	if ((r = sys_page_alloc(0, addr, PTE_U|PTE_P|PTE_W)) < 0)
  8006ee:	48 8b 45 f8          	mov    -0x8(%rbp),%rax
  8006f2:	ba 07 00 00 00       	mov    $0x7,%edx
  8006f7:	48 89 c6             	mov    %rax,%rsi
  8006fa:	bf 00 00 00 00       	mov    $0x0,%edi
  8006ff:	48 b8 55 4c 80 00 00 	movabs $0x804c55,%rax
  800706:	00 00 00 
  800709:	ff d0                	callq  *%rax
  80070b:	89 45 e4             	mov    %eax,-0x1c(%rbp)
  80070e:	83 7d e4 00          	cmpl   $0x0,-0x1c(%rbp)
  800712:	79 30                	jns    800744 <bc_pgfault+0x151>
		panic("in bc_pgfault, sys_page_alloc: %e", r);
  800714:	8b 45 e4             	mov    -0x1c(%rbp),%eax
  800717:	89 c1                	mov    %eax,%ecx
  800719:	48 ba e0 76 80 00 00 	movabs $0x8076e0,%rdx
  800720:	00 00 00 
  800723:	be 34 00 00 00       	mov    $0x34,%esi
  800728:	48 bf 7a 76 80 00 00 	movabs $0x80767a,%rdi
  80072f:	00 00 00 
  800732:	b8 00 00 00 00       	mov    $0x0,%eax
  800737:	49 b8 38 35 80 00 00 	movabs $0x803538,%r8
  80073e:	00 00 00 
  800741:	41 ff d0             	callq  *%r8

#else  // VMM GUEST

	/* FIXME DP: Should be lab 8 */
    /* Your code here */
	if((r = host_read(BLKSECTS*blockno, addr, BLKSECTS)) < 0)
  800744:	48 8b 45 f0          	mov    -0x10(%rbp),%rax
  800748:	8d 0c c5 00 00 00 00 	lea    0x0(,%rax,8),%ecx
  80074f:	48 8b 45 f8          	mov    -0x8(%rbp),%rax
  800753:	ba 08 00 00 00       	mov    $0x8,%edx
  800758:	48 89 c6             	mov    %rax,%rsi
  80075b:	89 cf                	mov    %ecx,%edi
  80075d:	48 b8 74 31 80 00 00 	movabs $0x803174,%rax
  800764:	00 00 00 
  800767:	ff d0                	callq  *%rax
  800769:	89 45 e4             	mov    %eax,-0x1c(%rbp)
  80076c:	83 7d e4 00          	cmpl   $0x0,-0x1c(%rbp)
  800770:	79 30                	jns    8007a2 <bc_pgfault+0x1af>
	//if ((r = host_read(blockno * BLKSECTS, addr, BLKSECTS)) < 0)
		panic("in bc_pgfault, host_read: %e", r);
  800772:	8b 45 e4             	mov    -0x1c(%rbp),%eax
  800775:	89 c1                	mov    %eax,%ecx
  800777:	48 ba 02 77 80 00 00 	movabs $0x807702,%rdx
  80077e:	00 00 00 
  800781:	be 41 00 00 00       	mov    $0x41,%esi
  800786:	48 bf 7a 76 80 00 00 	movabs $0x80767a,%rdi
  80078d:	00 00 00 
  800790:	b8 00 00 00 00       	mov    $0x0,%eax
  800795:	49 b8 38 35 80 00 00 	movabs $0x803538,%r8
  80079c:	00 00 00 
  80079f:	41 ff d0             	callq  *%r8


#endif // VMM_GUEST

	if ((r = sys_page_map(0, addr, 0, addr, uvpt[PGNUM(addr)] & PTE_SYSCALL)) < 0)
  8007a2:	48 8b 45 f8          	mov    -0x8(%rbp),%rax
  8007a6:	48 c1 e8 0c          	shr    $0xc,%rax
  8007aa:	48 89 c2             	mov    %rax,%rdx
  8007ad:	48 b8 00 00 00 00 00 	movabs $0x10000000000,%rax
  8007b4:	01 00 00 
  8007b7:	48 8b 04 d0          	mov    (%rax,%rdx,8),%rax
  8007bb:	25 07 0e 00 00       	and    $0xe07,%eax
  8007c0:	89 c1                	mov    %eax,%ecx
  8007c2:	48 8b 55 f8          	mov    -0x8(%rbp),%rdx
  8007c6:	48 8b 45 f8          	mov    -0x8(%rbp),%rax
  8007ca:	41 89 c8             	mov    %ecx,%r8d
  8007cd:	48 89 d1             	mov    %rdx,%rcx
  8007d0:	ba 00 00 00 00       	mov    $0x0,%edx
  8007d5:	48 89 c6             	mov    %rax,%rsi
  8007d8:	bf 00 00 00 00       	mov    $0x0,%edi
  8007dd:	48 b8 a5 4c 80 00 00 	movabs $0x804ca5,%rax
  8007e4:	00 00 00 
  8007e7:	ff d0                	callq  *%rax
  8007e9:	89 45 e4             	mov    %eax,-0x1c(%rbp)
  8007ec:	83 7d e4 00          	cmpl   $0x0,-0x1c(%rbp)
  8007f0:	79 30                	jns    800822 <bc_pgfault+0x22f>
		panic("in bc_pgfault, sys_page_map: %e", r);
  8007f2:	8b 45 e4             	mov    -0x1c(%rbp),%eax
  8007f5:	89 c1                	mov    %eax,%ecx
  8007f7:	48 ba 20 77 80 00 00 	movabs $0x807720,%rdx
  8007fe:	00 00 00 
  800801:	be 47 00 00 00       	mov    $0x47,%esi
  800806:	48 bf 7a 76 80 00 00 	movabs $0x80767a,%rdi
  80080d:	00 00 00 
  800810:	b8 00 00 00 00       	mov    $0x0,%eax
  800815:	49 b8 38 35 80 00 00 	movabs $0x803538,%r8
  80081c:	00 00 00 
  80081f:	41 ff d0             	callq  *%r8

	// Check that the block we read was allocated. (exercise for
	// the reader: why do we do this *after* reading the block
	// in?)
	if (bitmap && block_is_free(blockno))
  800822:	48 b8 10 60 81 00 00 	movabs $0x816010,%rax
  800829:	00 00 00 
  80082c:	48 8b 00             	mov    (%rax),%rax
  80082f:	48 85 c0             	test   %rax,%rax
  800832:	74 48                	je     80087c <bc_pgfault+0x289>
  800834:	48 8b 45 f0          	mov    -0x10(%rbp),%rax
  800838:	89 c7                	mov    %eax,%edi
  80083a:	48 b8 2c 0d 80 00 00 	movabs $0x800d2c,%rax
  800841:	00 00 00 
  800844:	ff d0                	callq  *%rax
  800846:	84 c0                	test   %al,%al
  800848:	74 32                	je     80087c <bc_pgfault+0x289>
		panic("reading free block %08x\n", blockno);
  80084a:	48 8b 45 f0          	mov    -0x10(%rbp),%rax
  80084e:	48 89 c1             	mov    %rax,%rcx
  800851:	48 ba 40 77 80 00 00 	movabs $0x807740,%rdx
  800858:	00 00 00 
  80085b:	be 4d 00 00 00       	mov    $0x4d,%esi
  800860:	48 bf 7a 76 80 00 00 	movabs $0x80767a,%rdi
  800867:	00 00 00 
  80086a:	b8 00 00 00 00       	mov    $0x0,%eax
  80086f:	49 b8 38 35 80 00 00 	movabs $0x803538,%r8
  800876:	00 00 00 
  800879:	41 ff d0             	callq  *%r8
}
  80087c:	c9                   	leaveq 
  80087d:	c3                   	retq   

000000000080087e <flush_block>:
// Hint: Use va_is_mapped, va_is_dirty, and ide_write.
// Hint: Use the PTE_SYSCALL constant when calling sys_page_map.
// Hint: Don't forget to round addr down.
void
flush_block(void *addr)
{
  80087e:	55                   	push   %rbp
  80087f:	48 89 e5             	mov    %rsp,%rbp
  800882:	48 83 ec 20          	sub    $0x20,%rsp
  800886:	48 89 7d e8          	mov    %rdi,-0x18(%rbp)
	uint64_t blockno = ((uint64_t)addr - DISKMAP) / BLKSIZE;
  80088a:	48 8b 45 e8          	mov    -0x18(%rbp),%rax
  80088e:	48 2d 00 00 00 10    	sub    $0x10000000,%rax
  800894:	48 c1 e8 0c          	shr    $0xc,%rax
  800898:	48 89 45 f8          	mov    %rax,-0x8(%rbp)

	if (addr < (void*)DISKMAP || addr >= (void*)(DISKMAP + DISKSIZE))
  80089c:	48 81 7d e8 ff ff ff 	cmpq   $0xfffffff,-0x18(%rbp)
  8008a3:	0f 
  8008a4:	76 0b                	jbe    8008b1 <flush_block+0x33>
  8008a6:	b8 ff ff ff cf       	mov    $0xcfffffff,%eax
  8008ab:	48 39 45 e8          	cmp    %rax,-0x18(%rbp)
  8008af:	76 32                	jbe    8008e3 <flush_block+0x65>
		panic("flush_block of bad va %08x", addr);
  8008b1:	48 8b 45 e8          	mov    -0x18(%rbp),%rax
  8008b5:	48 89 c1             	mov    %rax,%rcx
  8008b8:	48 ba 59 77 80 00 00 	movabs $0x807759,%rdx
  8008bf:	00 00 00 
  8008c2:	be 5d 00 00 00       	mov    $0x5d,%esi
  8008c7:	48 bf 7a 76 80 00 00 	movabs $0x80767a,%rdi
  8008ce:	00 00 00 
  8008d1:	b8 00 00 00 00       	mov    $0x0,%eax
  8008d6:	49 b8 38 35 80 00 00 	movabs $0x803538,%r8
  8008dd:	00 00 00 
  8008e0:	41 ff d0             	callq  *%r8

	if (!va_is_mapped(addr) || !va_is_dirty(addr))
  8008e3:	48 8b 45 e8          	mov    -0x18(%rbp),%rax
  8008e7:	48 89 c7             	mov    %rax,%rdi
  8008ea:	48 b8 22 05 80 00 00 	movabs $0x800522,%rax
  8008f1:	00 00 00 
  8008f4:	ff d0                	callq  *%rax
  8008f6:	83 f0 01             	xor    $0x1,%eax
  8008f9:	84 c0                	test   %al,%al
  8008fb:	75 1a                	jne    800917 <flush_block+0x99>
  8008fd:	48 8b 45 e8          	mov    -0x18(%rbp),%rax
  800901:	48 89 c7             	mov    %rax,%rdi
  800904:	48 b8 c3 05 80 00 00 	movabs $0x8005c3,%rax
  80090b:	00 00 00 
  80090e:	ff d0                	callq  *%rax
  800910:	83 f0 01             	xor    $0x1,%eax
  800913:	84 c0                	test   %al,%al
  800915:	74 05                	je     80091c <flush_block+0x9e>
		return;
  800917:	e9 82 00 00 00       	jmpq   80099e <flush_block+0x120>

	// Write the disk block and clear PTE_D.
	addr = ROUNDDOWN(addr, BLKSIZE);
  80091c:	48 8b 45 e8          	mov    -0x18(%rbp),%rax
  800920:	48 89 45 f0          	mov    %rax,-0x10(%rbp)
  800924:	48 8b 45 f0          	mov    -0x10(%rbp),%rax
  800928:	48 25 00 f0 ff ff    	and    $0xfffffffffffff000,%rax
  80092e:	48 89 45 e8          	mov    %rax,-0x18(%rbp)

#else

	/* FIXME DP: Should be lab 8 */
    /* Your code here */
	host_write(blockno * BLKSECTS, (void*) addr, BLKSECTS);
  800932:	48 8b 45 f8          	mov    -0x8(%rbp),%rax
  800936:	8d 0c c5 00 00 00 00 	lea    0x0(,%rax,8),%ecx
  80093d:	48 8b 45 e8          	mov    -0x18(%rbp),%rax
  800941:	ba 08 00 00 00       	mov    $0x8,%edx
  800946:	48 89 c6             	mov    %rax,%rsi
  800949:	89 cf                	mov    %ecx,%edi
  80094b:	48 b8 6c 32 80 00 00 	movabs $0x80326c,%rax
  800952:	00 00 00 
  800955:	ff d0                	callq  *%rax
	

#endif

	sys_page_map(0, addr, 0, addr, uvpt[PGNUM(addr)] & PTE_SYSCALL);
  800957:	48 8b 45 e8          	mov    -0x18(%rbp),%rax
  80095b:	48 c1 e8 0c          	shr    $0xc,%rax
  80095f:	48 89 c2             	mov    %rax,%rdx
  800962:	48 b8 00 00 00 00 00 	movabs $0x10000000000,%rax
  800969:	01 00 00 
  80096c:	48 8b 04 d0          	mov    (%rax,%rdx,8),%rax
  800970:	25 07 0e 00 00       	and    $0xe07,%eax
  800975:	89 c1                	mov    %eax,%ecx
  800977:	48 8b 55 e8          	mov    -0x18(%rbp),%rdx
  80097b:	48 8b 45 e8          	mov    -0x18(%rbp),%rax
  80097f:	41 89 c8             	mov    %ecx,%r8d
  800982:	48 89 d1             	mov    %rdx,%rcx
  800985:	ba 00 00 00 00       	mov    $0x0,%edx
  80098a:	48 89 c6             	mov    %rax,%rsi
  80098d:	bf 00 00 00 00       	mov    $0x0,%edi
  800992:	48 b8 a5 4c 80 00 00 	movabs $0x804ca5,%rax
  800999:	00 00 00 
  80099c:	ff d0                	callq  *%rax
}
  80099e:	c9                   	leaveq 
  80099f:	c3                   	retq   

00000000008009a0 <check_bc>:

// Test that the block cache works, by smashing the superblock and
// reading it back.
static void
check_bc(void)
{
  8009a0:	55                   	push   %rbp
  8009a1:	48 89 e5             	mov    %rsp,%rbp
  8009a4:	48 81 ec 10 01 00 00 	sub    $0x110,%rsp
	struct Super backup;

	// back up super block
	memmove(&backup, diskaddr(1), sizeof backup);
  8009ab:	bf 01 00 00 00       	mov    $0x1,%edi
  8009b0:	48 b8 a3 04 80 00 00 	movabs $0x8004a3,%rax
  8009b7:	00 00 00 
  8009ba:	ff d0                	callq  *%rax
  8009bc:	48 89 c1             	mov    %rax,%rcx
  8009bf:	48 8d 85 f0 fe ff ff 	lea    -0x110(%rbp),%rax
  8009c6:	ba 08 01 00 00       	mov    $0x108,%edx
  8009cb:	48 89 ce             	mov    %rcx,%rsi
  8009ce:	48 89 c7             	mov    %rax,%rdi
  8009d1:	48 b8 4a 46 80 00 00 	movabs $0x80464a,%rax
  8009d8:	00 00 00 
  8009db:	ff d0                	callq  *%rax

	// smash it
	strcpy(diskaddr(1), "OOPS!\n");
  8009dd:	bf 01 00 00 00       	mov    $0x1,%edi
  8009e2:	48 b8 a3 04 80 00 00 	movabs $0x8004a3,%rax
  8009e9:	00 00 00 
  8009ec:	ff d0                	callq  *%rax
  8009ee:	48 be 74 77 80 00 00 	movabs $0x807774,%rsi
  8009f5:	00 00 00 
  8009f8:	48 89 c7             	mov    %rax,%rdi
  8009fb:	48 b8 26 43 80 00 00 	movabs $0x804326,%rax
  800a02:	00 00 00 
  800a05:	ff d0                	callq  *%rax
	flush_block(diskaddr(1));
  800a07:	bf 01 00 00 00       	mov    $0x1,%edi
  800a0c:	48 b8 a3 04 80 00 00 	movabs $0x8004a3,%rax
  800a13:	00 00 00 
  800a16:	ff d0                	callq  *%rax
  800a18:	48 89 c7             	mov    %rax,%rdi
  800a1b:	48 b8 7e 08 80 00 00 	movabs $0x80087e,%rax
  800a22:	00 00 00 
  800a25:	ff d0                	callq  *%rax
	assert(va_is_mapped(diskaddr(1)));
  800a27:	bf 01 00 00 00       	mov    $0x1,%edi
  800a2c:	48 b8 a3 04 80 00 00 	movabs $0x8004a3,%rax
  800a33:	00 00 00 
  800a36:	ff d0                	callq  *%rax
  800a38:	48 89 c7             	mov    %rax,%rdi
  800a3b:	48 b8 22 05 80 00 00 	movabs $0x800522,%rax
  800a42:	00 00 00 
  800a45:	ff d0                	callq  *%rax
  800a47:	83 f0 01             	xor    $0x1,%eax
  800a4a:	84 c0                	test   %al,%al
  800a4c:	74 35                	je     800a83 <check_bc+0xe3>
  800a4e:	48 b9 7b 77 80 00 00 	movabs $0x80777b,%rcx
  800a55:	00 00 00 
  800a58:	48 ba 95 77 80 00 00 	movabs $0x807795,%rdx
  800a5f:	00 00 00 
  800a62:	be 82 00 00 00       	mov    $0x82,%esi
  800a67:	48 bf 7a 76 80 00 00 	movabs $0x80767a,%rdi
  800a6e:	00 00 00 
  800a71:	b8 00 00 00 00       	mov    $0x0,%eax
  800a76:	49 b8 38 35 80 00 00 	movabs $0x803538,%r8
  800a7d:	00 00 00 
  800a80:	41 ff d0             	callq  *%r8
	assert(!va_is_dirty(diskaddr(1)));
  800a83:	bf 01 00 00 00       	mov    $0x1,%edi
  800a88:	48 b8 a3 04 80 00 00 	movabs $0x8004a3,%rax
  800a8f:	00 00 00 
  800a92:	ff d0                	callq  *%rax
  800a94:	48 89 c7             	mov    %rax,%rdi
  800a97:	48 b8 c3 05 80 00 00 	movabs $0x8005c3,%rax
  800a9e:	00 00 00 
  800aa1:	ff d0                	callq  *%rax
  800aa3:	84 c0                	test   %al,%al
  800aa5:	74 35                	je     800adc <check_bc+0x13c>
  800aa7:	48 b9 aa 77 80 00 00 	movabs $0x8077aa,%rcx
  800aae:	00 00 00 
  800ab1:	48 ba 95 77 80 00 00 	movabs $0x807795,%rdx
  800ab8:	00 00 00 
  800abb:	be 83 00 00 00       	mov    $0x83,%esi
  800ac0:	48 bf 7a 76 80 00 00 	movabs $0x80767a,%rdi
  800ac7:	00 00 00 
  800aca:	b8 00 00 00 00       	mov    $0x0,%eax
  800acf:	49 b8 38 35 80 00 00 	movabs $0x803538,%r8
  800ad6:	00 00 00 
  800ad9:	41 ff d0             	callq  *%r8

	// clear it out
	sys_page_unmap(0, diskaddr(1));
  800adc:	bf 01 00 00 00       	mov    $0x1,%edi
  800ae1:	48 b8 a3 04 80 00 00 	movabs $0x8004a3,%rax
  800ae8:	00 00 00 
  800aeb:	ff d0                	callq  *%rax
  800aed:	48 89 c6             	mov    %rax,%rsi
  800af0:	bf 00 00 00 00       	mov    $0x0,%edi
  800af5:	48 b8 00 4d 80 00 00 	movabs $0x804d00,%rax
  800afc:	00 00 00 
  800aff:	ff d0                	callq  *%rax
	assert(!va_is_mapped(diskaddr(1)));
  800b01:	bf 01 00 00 00       	mov    $0x1,%edi
  800b06:	48 b8 a3 04 80 00 00 	movabs $0x8004a3,%rax
  800b0d:	00 00 00 
  800b10:	ff d0                	callq  *%rax
  800b12:	48 89 c7             	mov    %rax,%rdi
  800b15:	48 b8 22 05 80 00 00 	movabs $0x800522,%rax
  800b1c:	00 00 00 
  800b1f:	ff d0                	callq  *%rax
  800b21:	84 c0                	test   %al,%al
  800b23:	74 35                	je     800b5a <check_bc+0x1ba>
  800b25:	48 b9 c4 77 80 00 00 	movabs $0x8077c4,%rcx
  800b2c:	00 00 00 
  800b2f:	48 ba 95 77 80 00 00 	movabs $0x807795,%rdx
  800b36:	00 00 00 
  800b39:	be 87 00 00 00       	mov    $0x87,%esi
  800b3e:	48 bf 7a 76 80 00 00 	movabs $0x80767a,%rdi
  800b45:	00 00 00 
  800b48:	b8 00 00 00 00       	mov    $0x0,%eax
  800b4d:	49 b8 38 35 80 00 00 	movabs $0x803538,%r8
  800b54:	00 00 00 
  800b57:	41 ff d0             	callq  *%r8

	// read it back in
	assert(strcmp(diskaddr(1), "OOPS!\n") == 0);
  800b5a:	bf 01 00 00 00       	mov    $0x1,%edi
  800b5f:	48 b8 a3 04 80 00 00 	movabs $0x8004a3,%rax
  800b66:	00 00 00 
  800b69:	ff d0                	callq  *%rax
  800b6b:	48 be 74 77 80 00 00 	movabs $0x807774,%rsi
  800b72:	00 00 00 
  800b75:	48 89 c7             	mov    %rax,%rdi
  800b78:	48 b8 88 44 80 00 00 	movabs $0x804488,%rax
  800b7f:	00 00 00 
  800b82:	ff d0                	callq  *%rax
  800b84:	85 c0                	test   %eax,%eax
  800b86:	74 35                	je     800bbd <check_bc+0x21d>
  800b88:	48 b9 e0 77 80 00 00 	movabs $0x8077e0,%rcx
  800b8f:	00 00 00 
  800b92:	48 ba 95 77 80 00 00 	movabs $0x807795,%rdx
  800b99:	00 00 00 
  800b9c:	be 8a 00 00 00       	mov    $0x8a,%esi
  800ba1:	48 bf 7a 76 80 00 00 	movabs $0x80767a,%rdi
  800ba8:	00 00 00 
  800bab:	b8 00 00 00 00       	mov    $0x0,%eax
  800bb0:	49 b8 38 35 80 00 00 	movabs $0x803538,%r8
  800bb7:	00 00 00 
  800bba:	41 ff d0             	callq  *%r8

	// fix it
	memmove(diskaddr(1), &backup, sizeof backup);
  800bbd:	bf 01 00 00 00       	mov    $0x1,%edi
  800bc2:	48 b8 a3 04 80 00 00 	movabs $0x8004a3,%rax
  800bc9:	00 00 00 
  800bcc:	ff d0                	callq  *%rax
  800bce:	48 8d 8d f0 fe ff ff 	lea    -0x110(%rbp),%rcx
  800bd5:	ba 08 01 00 00       	mov    $0x108,%edx
  800bda:	48 89 ce             	mov    %rcx,%rsi
  800bdd:	48 89 c7             	mov    %rax,%rdi
  800be0:	48 b8 4a 46 80 00 00 	movabs $0x80464a,%rax
  800be7:	00 00 00 
  800bea:	ff d0                	callq  *%rax
	flush_block(diskaddr(1));
  800bec:	bf 01 00 00 00       	mov    $0x1,%edi
  800bf1:	48 b8 a3 04 80 00 00 	movabs $0x8004a3,%rax
  800bf8:	00 00 00 
  800bfb:	ff d0                	callq  *%rax
  800bfd:	48 89 c7             	mov    %rax,%rdi
  800c00:	48 b8 7e 08 80 00 00 	movabs $0x80087e,%rax
  800c07:	00 00 00 
  800c0a:	ff d0                	callq  *%rax

	cprintf("block cache is good\n");
  800c0c:	48 bf 04 78 80 00 00 	movabs $0x807804,%rdi
  800c13:	00 00 00 
  800c16:	b8 00 00 00 00       	mov    $0x0,%eax
  800c1b:	48 ba 71 37 80 00 00 	movabs $0x803771,%rdx
  800c22:	00 00 00 
  800c25:	ff d2                	callq  *%rdx
}
  800c27:	c9                   	leaveq 
  800c28:	c3                   	retq   

0000000000800c29 <bc_init>:

void
bc_init(void)
{
  800c29:	55                   	push   %rbp
  800c2a:	48 89 e5             	mov    %rsp,%rbp
  800c2d:	48 81 ec 10 01 00 00 	sub    $0x110,%rsp
	struct Super super;
	set_pgfault_handler(bc_pgfault);
  800c34:	48 bf f3 05 80 00 00 	movabs $0x8005f3,%rdi
  800c3b:	00 00 00 
  800c3e:	48 b8 35 50 80 00 00 	movabs $0x805035,%rax
  800c45:	00 00 00 
  800c48:	ff d0                	callq  *%rax
	check_bc();
  800c4a:	48 b8 a0 09 80 00 00 	movabs $0x8009a0,%rax
  800c51:	00 00 00 
  800c54:	ff d0                	callq  *%rax

	// cache the super block by reading it once
	memmove(&super, diskaddr(1), sizeof super);
  800c56:	bf 01 00 00 00       	mov    $0x1,%edi
  800c5b:	48 b8 a3 04 80 00 00 	movabs $0x8004a3,%rax
  800c62:	00 00 00 
  800c65:	ff d0                	callq  *%rax
  800c67:	48 89 c1             	mov    %rax,%rcx
  800c6a:	48 8d 85 f0 fe ff ff 	lea    -0x110(%rbp),%rax
  800c71:	ba 08 01 00 00       	mov    $0x108,%edx
  800c76:	48 89 ce             	mov    %rcx,%rsi
  800c79:	48 89 c7             	mov    %rax,%rdi
  800c7c:	48 b8 4a 46 80 00 00 	movabs $0x80464a,%rax
  800c83:	00 00 00 
  800c86:	ff d0                	callq  *%rax
}
  800c88:	c9                   	leaveq 
  800c89:	c3                   	retq   

0000000000800c8a <check_super>:
  800c8a:	55                   	push   %rbp
  800c8b:	48 89 e5             	mov    %rsp,%rbp
  800c8e:	48 b8 18 60 81 00 00 	movabs $0x816018,%rax
  800c95:	00 00 00 
  800c98:	48 8b 00             	mov    (%rax),%rax
  800c9b:	8b 00                	mov    (%rax),%eax
  800c9d:	3d ae 30 05 4a       	cmp    $0x4a0530ae,%eax
  800ca2:	74 2a                	je     800cce <check_super+0x44>
  800ca4:	48 ba 19 78 80 00 00 	movabs $0x807819,%rdx
  800cab:	00 00 00 
  800cae:	be 12 00 00 00       	mov    $0x12,%esi
  800cb3:	48 bf 36 78 80 00 00 	movabs $0x807836,%rdi
  800cba:	00 00 00 
  800cbd:	b8 00 00 00 00       	mov    $0x0,%eax
  800cc2:	48 b9 38 35 80 00 00 	movabs $0x803538,%rcx
  800cc9:	00 00 00 
  800ccc:	ff d1                	callq  *%rcx
  800cce:	48 b8 18 60 81 00 00 	movabs $0x816018,%rax
  800cd5:	00 00 00 
  800cd8:	48 8b 00             	mov    (%rax),%rax
  800cdb:	8b 40 04             	mov    0x4(%rax),%eax
  800cde:	3d 00 00 0c 00       	cmp    $0xc0000,%eax
  800ce3:	76 2a                	jbe    800d0f <check_super+0x85>
  800ce5:	48 ba 41 78 80 00 00 	movabs $0x807841,%rdx
  800cec:	00 00 00 
  800cef:	be 15 00 00 00       	mov    $0x15,%esi
  800cf4:	48 bf 36 78 80 00 00 	movabs $0x807836,%rdi
  800cfb:	00 00 00 
  800cfe:	b8 00 00 00 00       	mov    $0x0,%eax
  800d03:	48 b9 38 35 80 00 00 	movabs $0x803538,%rcx
  800d0a:	00 00 00 
  800d0d:	ff d1                	callq  *%rcx
  800d0f:	48 bf 5a 78 80 00 00 	movabs $0x80785a,%rdi
  800d16:	00 00 00 
  800d19:	b8 00 00 00 00       	mov    $0x0,%eax
  800d1e:	48 ba 71 37 80 00 00 	movabs $0x803771,%rdx
  800d25:	00 00 00 
  800d28:	ff d2                	callq  *%rdx
  800d2a:	5d                   	pop    %rbp
  800d2b:	c3                   	retq   

0000000000800d2c <block_is_free>:
  800d2c:	55                   	push   %rbp
  800d2d:	48 89 e5             	mov    %rsp,%rbp
  800d30:	48 83 ec 04          	sub    $0x4,%rsp
  800d34:	89 7d fc             	mov    %edi,-0x4(%rbp)
  800d37:	48 b8 18 60 81 00 00 	movabs $0x816018,%rax
  800d3e:	00 00 00 
  800d41:	48 8b 00             	mov    (%rax),%rax
  800d44:	48 85 c0             	test   %rax,%rax
  800d47:	74 15                	je     800d5e <block_is_free+0x32>
  800d49:	48 b8 18 60 81 00 00 	movabs $0x816018,%rax
  800d50:	00 00 00 
  800d53:	48 8b 00             	mov    (%rax),%rax
  800d56:	8b 40 04             	mov    0x4(%rax),%eax
  800d59:	3b 45 fc             	cmp    -0x4(%rbp),%eax
  800d5c:	77 07                	ja     800d65 <block_is_free+0x39>
  800d5e:	b8 00 00 00 00       	mov    $0x0,%eax
  800d63:	eb 41                	jmp    800da6 <block_is_free+0x7a>
  800d65:	48 b8 10 60 81 00 00 	movabs $0x816010,%rax
  800d6c:	00 00 00 
  800d6f:	48 8b 00             	mov    (%rax),%rax
  800d72:	8b 55 fc             	mov    -0x4(%rbp),%edx
  800d75:	c1 ea 05             	shr    $0x5,%edx
  800d78:	89 d2                	mov    %edx,%edx
  800d7a:	48 c1 e2 02          	shl    $0x2,%rdx
  800d7e:	48 01 d0             	add    %rdx,%rax
  800d81:	8b 10                	mov    (%rax),%edx
  800d83:	8b 45 fc             	mov    -0x4(%rbp),%eax
  800d86:	83 e0 1f             	and    $0x1f,%eax
  800d89:	be 01 00 00 00       	mov    $0x1,%esi
  800d8e:	89 c1                	mov    %eax,%ecx
  800d90:	d3 e6                	shl    %cl,%esi
  800d92:	89 f0                	mov    %esi,%eax
  800d94:	21 d0                	and    %edx,%eax
  800d96:	85 c0                	test   %eax,%eax
  800d98:	74 07                	je     800da1 <block_is_free+0x75>
  800d9a:	b8 01 00 00 00       	mov    $0x1,%eax
  800d9f:	eb 05                	jmp    800da6 <block_is_free+0x7a>
  800da1:	b8 00 00 00 00       	mov    $0x0,%eax
  800da6:	c9                   	leaveq 
  800da7:	c3                   	retq   

0000000000800da8 <free_block>:
  800da8:	55                   	push   %rbp
  800da9:	48 89 e5             	mov    %rsp,%rbp
  800dac:	48 83 ec 10          	sub    $0x10,%rsp
  800db0:	89 7d fc             	mov    %edi,-0x4(%rbp)
  800db3:	83 7d fc 00          	cmpl   $0x0,-0x4(%rbp)
  800db7:	75 2a                	jne    800de3 <free_block+0x3b>
  800db9:	48 ba 6e 78 80 00 00 	movabs $0x80786e,%rdx
  800dc0:	00 00 00 
  800dc3:	be 30 00 00 00       	mov    $0x30,%esi
  800dc8:	48 bf 36 78 80 00 00 	movabs $0x807836,%rdi
  800dcf:	00 00 00 
  800dd2:	b8 00 00 00 00       	mov    $0x0,%eax
  800dd7:	48 b9 38 35 80 00 00 	movabs $0x803538,%rcx
  800dde:	00 00 00 
  800de1:	ff d1                	callq  *%rcx
  800de3:	48 b8 10 60 81 00 00 	movabs $0x816010,%rax
  800dea:	00 00 00 
  800ded:	48 8b 10             	mov    (%rax),%rdx
  800df0:	8b 45 fc             	mov    -0x4(%rbp),%eax
  800df3:	c1 e8 05             	shr    $0x5,%eax
  800df6:	89 c1                	mov    %eax,%ecx
  800df8:	48 c1 e1 02          	shl    $0x2,%rcx
  800dfc:	48 8d 34 0a          	lea    (%rdx,%rcx,1),%rsi
  800e00:	48 ba 10 60 81 00 00 	movabs $0x816010,%rdx
  800e07:	00 00 00 
  800e0a:	48 8b 12             	mov    (%rdx),%rdx
  800e0d:	89 c0                	mov    %eax,%eax
  800e0f:	48 c1 e0 02          	shl    $0x2,%rax
  800e13:	48 01 d0             	add    %rdx,%rax
  800e16:	8b 10                	mov    (%rax),%edx
  800e18:	8b 45 fc             	mov    -0x4(%rbp),%eax
  800e1b:	83 e0 1f             	and    $0x1f,%eax
  800e1e:	bf 01 00 00 00       	mov    $0x1,%edi
  800e23:	89 c1                	mov    %eax,%ecx
  800e25:	d3 e7                	shl    %cl,%edi
  800e27:	89 f8                	mov    %edi,%eax
  800e29:	09 d0                	or     %edx,%eax
  800e2b:	89 06                	mov    %eax,(%rsi)
  800e2d:	c9                   	leaveq 
  800e2e:	c3                   	retq   

0000000000800e2f <alloc_block>:
  800e2f:	55                   	push   %rbp
  800e30:	48 89 e5             	mov    %rsp,%rbp
  800e33:	48 83 ec 10          	sub    $0x10,%rsp
  800e37:	c7 45 fc 00 00 00 00 	movl   $0x0,-0x4(%rbp)
  800e3e:	c7 45 fc 00 00 00 00 	movl   $0x0,-0x4(%rbp)
  800e45:	e9 ee 00 00 00       	jmpq   800f38 <alloc_block+0x109>
  800e4a:	48 b8 00 30 81 00 00 	movabs $0x813000,%rax
  800e51:	00 00 00 
  800e54:	8b 10                	mov    (%rax),%edx
  800e56:	8b 45 fc             	mov    -0x4(%rbp),%eax
  800e59:	01 d0                	add    %edx,%eax
  800e5b:	48 ba 18 60 81 00 00 	movabs $0x816018,%rdx
  800e62:	00 00 00 
  800e65:	48 8b 12             	mov    (%rdx),%rdx
  800e68:	8b 4a 04             	mov    0x4(%rdx),%ecx
  800e6b:	ba 00 00 00 00       	mov    $0x0,%edx
  800e70:	f7 f1                	div    %ecx
  800e72:	89 d0                	mov    %edx,%eax
  800e74:	89 45 f8             	mov    %eax,-0x8(%rbp)
  800e77:	8b 45 f8             	mov    -0x8(%rbp),%eax
  800e7a:	89 c7                	mov    %eax,%edi
  800e7c:	48 b8 2c 0d 80 00 00 	movabs $0x800d2c,%rax
  800e83:	00 00 00 
  800e86:	ff d0                	callq  *%rax
  800e88:	84 c0                	test   %al,%al
  800e8a:	0f 84 a4 00 00 00    	je     800f34 <alloc_block+0x105>
  800e90:	48 b8 10 60 81 00 00 	movabs $0x816010,%rax
  800e97:	00 00 00 
  800e9a:	48 8b 10             	mov    (%rax),%rdx
  800e9d:	8b 45 f8             	mov    -0x8(%rbp),%eax
  800ea0:	8d 48 1f             	lea    0x1f(%rax),%ecx
  800ea3:	85 c0                	test   %eax,%eax
  800ea5:	0f 48 c1             	cmovs  %ecx,%eax
  800ea8:	c1 f8 05             	sar    $0x5,%eax
  800eab:	48 63 c8             	movslq %eax,%rcx
  800eae:	48 c1 e1 02          	shl    $0x2,%rcx
  800eb2:	48 8d 34 0a          	lea    (%rdx,%rcx,1),%rsi
  800eb6:	48 ba 10 60 81 00 00 	movabs $0x816010,%rdx
  800ebd:	00 00 00 
  800ec0:	48 8b 12             	mov    (%rdx),%rdx
  800ec3:	48 98                	cltq   
  800ec5:	48 c1 e0 02          	shl    $0x2,%rax
  800ec9:	48 01 d0             	add    %rdx,%rax
  800ecc:	8b 38                	mov    (%rax),%edi
  800ece:	8b 45 f8             	mov    -0x8(%rbp),%eax
  800ed1:	99                   	cltd   
  800ed2:	c1 ea 1b             	shr    $0x1b,%edx
  800ed5:	01 d0                	add    %edx,%eax
  800ed7:	83 e0 1f             	and    $0x1f,%eax
  800eda:	29 d0                	sub    %edx,%eax
  800edc:	ba 01 00 00 00       	mov    $0x1,%edx
  800ee1:	89 c1                	mov    %eax,%ecx
  800ee3:	d3 e2                	shl    %cl,%edx
  800ee5:	89 d0                	mov    %edx,%eax
  800ee7:	f7 d0                	not    %eax
  800ee9:	21 f8                	and    %edi,%eax
  800eeb:	89 06                	mov    %eax,(%rsi)
  800eed:	48 b8 10 60 81 00 00 	movabs $0x816010,%rax
  800ef4:	00 00 00 
  800ef7:	48 8b 10             	mov    (%rax),%rdx
  800efa:	8b 45 f8             	mov    -0x8(%rbp),%eax
  800efd:	8d 48 1f             	lea    0x1f(%rax),%ecx
  800f00:	85 c0                	test   %eax,%eax
  800f02:	0f 48 c1             	cmovs  %ecx,%eax
  800f05:	c1 f8 05             	sar    $0x5,%eax
  800f08:	48 98                	cltq   
  800f0a:	48 c1 e0 02          	shl    $0x2,%rax
  800f0e:	48 01 d0             	add    %rdx,%rax
  800f11:	48 89 c7             	mov    %rax,%rdi
  800f14:	48 b8 7e 08 80 00 00 	movabs $0x80087e,%rax
  800f1b:	00 00 00 
  800f1e:	ff d0                	callq  *%rax
  800f20:	48 b8 00 30 81 00 00 	movabs $0x813000,%rax
  800f27:	00 00 00 
  800f2a:	8b 55 f8             	mov    -0x8(%rbp),%edx
  800f2d:	89 10                	mov    %edx,(%rax)
  800f2f:	8b 45 f8             	mov    -0x8(%rbp),%eax
  800f32:	eb 24                	jmp    800f58 <alloc_block+0x129>
  800f34:	83 45 fc 01          	addl   $0x1,-0x4(%rbp)
  800f38:	8b 55 fc             	mov    -0x4(%rbp),%edx
  800f3b:	48 b8 18 60 81 00 00 	movabs $0x816018,%rax
  800f42:	00 00 00 
  800f45:	48 8b 00             	mov    (%rax),%rax
  800f48:	8b 40 04             	mov    0x4(%rax),%eax
  800f4b:	39 c2                	cmp    %eax,%edx
  800f4d:	0f 82 f7 fe ff ff    	jb     800e4a <alloc_block+0x1b>
  800f53:	b8 f6 ff ff ff       	mov    $0xfffffff6,%eax
  800f58:	c9                   	leaveq 
  800f59:	c3                   	retq   

0000000000800f5a <check_bitmap>:
  800f5a:	55                   	push   %rbp
  800f5b:	48 89 e5             	mov    %rsp,%rbp
  800f5e:	48 83 ec 10          	sub    $0x10,%rsp
  800f62:	c7 45 fc 00 00 00 00 	movl   $0x0,-0x4(%rbp)
  800f69:	eb 51                	jmp    800fbc <check_bitmap+0x62>
  800f6b:	8b 45 fc             	mov    -0x4(%rbp),%eax
  800f6e:	83 c0 02             	add    $0x2,%eax
  800f71:	89 c7                	mov    %eax,%edi
  800f73:	48 b8 2c 0d 80 00 00 	movabs $0x800d2c,%rax
  800f7a:	00 00 00 
  800f7d:	ff d0                	callq  *%rax
  800f7f:	84 c0                	test   %al,%al
  800f81:	74 35                	je     800fb8 <check_bitmap+0x5e>
  800f83:	48 b9 89 78 80 00 00 	movabs $0x807889,%rcx
  800f8a:	00 00 00 
  800f8d:	48 ba 9d 78 80 00 00 	movabs $0x80789d,%rdx
  800f94:	00 00 00 
  800f97:	be 62 00 00 00       	mov    $0x62,%esi
  800f9c:	48 bf 36 78 80 00 00 	movabs $0x807836,%rdi
  800fa3:	00 00 00 
  800fa6:	b8 00 00 00 00       	mov    $0x0,%eax
  800fab:	49 b8 38 35 80 00 00 	movabs $0x803538,%r8
  800fb2:	00 00 00 
  800fb5:	41 ff d0             	callq  *%r8
  800fb8:	83 45 fc 01          	addl   $0x1,-0x4(%rbp)
  800fbc:	8b 45 fc             	mov    -0x4(%rbp),%eax
  800fbf:	c1 e0 0f             	shl    $0xf,%eax
  800fc2:	89 c2                	mov    %eax,%edx
  800fc4:	48 b8 18 60 81 00 00 	movabs $0x816018,%rax
  800fcb:	00 00 00 
  800fce:	48 8b 00             	mov    (%rax),%rax
  800fd1:	8b 40 04             	mov    0x4(%rax),%eax
  800fd4:	39 c2                	cmp    %eax,%edx
  800fd6:	72 93                	jb     800f6b <check_bitmap+0x11>
  800fd8:	bf 00 00 00 00       	mov    $0x0,%edi
  800fdd:	48 b8 2c 0d 80 00 00 	movabs $0x800d2c,%rax
  800fe4:	00 00 00 
  800fe7:	ff d0                	callq  *%rax
  800fe9:	84 c0                	test   %al,%al
  800feb:	74 35                	je     801022 <check_bitmap+0xc8>
  800fed:	48 b9 b2 78 80 00 00 	movabs $0x8078b2,%rcx
  800ff4:	00 00 00 
  800ff7:	48 ba 9d 78 80 00 00 	movabs $0x80789d,%rdx
  800ffe:	00 00 00 
  801001:	be 65 00 00 00       	mov    $0x65,%esi
  801006:	48 bf 36 78 80 00 00 	movabs $0x807836,%rdi
  80100d:	00 00 00 
  801010:	b8 00 00 00 00       	mov    $0x0,%eax
  801015:	49 b8 38 35 80 00 00 	movabs $0x803538,%r8
  80101c:	00 00 00 
  80101f:	41 ff d0             	callq  *%r8
  801022:	bf 01 00 00 00       	mov    $0x1,%edi
  801027:	48 b8 2c 0d 80 00 00 	movabs $0x800d2c,%rax
  80102e:	00 00 00 
  801031:	ff d0                	callq  *%rax
  801033:	84 c0                	test   %al,%al
  801035:	74 35                	je     80106c <check_bitmap+0x112>
  801037:	48 b9 c4 78 80 00 00 	movabs $0x8078c4,%rcx
  80103e:	00 00 00 
  801041:	48 ba 9d 78 80 00 00 	movabs $0x80789d,%rdx
  801048:	00 00 00 
  80104b:	be 66 00 00 00       	mov    $0x66,%esi
  801050:	48 bf 36 78 80 00 00 	movabs $0x807836,%rdi
  801057:	00 00 00 
  80105a:	b8 00 00 00 00       	mov    $0x0,%eax
  80105f:	49 b8 38 35 80 00 00 	movabs $0x803538,%r8
  801066:	00 00 00 
  801069:	41 ff d0             	callq  *%r8
  80106c:	48 bf d6 78 80 00 00 	movabs $0x8078d6,%rdi
  801073:	00 00 00 
  801076:	b8 00 00 00 00       	mov    $0x0,%eax
  80107b:	48 ba 71 37 80 00 00 	movabs $0x803771,%rdx
  801082:	00 00 00 
  801085:	ff d2                	callq  *%rdx
  801087:	c9                   	leaveq 
  801088:	c3                   	retq   

0000000000801089 <fs_init>:
  801089:	55                   	push   %rbp
  80108a:	48 89 e5             	mov    %rsp,%rbp
  80108d:	b8 00 00 00 00       	mov    $0x0,%eax
  801092:	48 ba 61 33 80 00 00 	movabs $0x803361,%rdx
  801099:	00 00 00 
  80109c:	ff d2                	callq  *%rdx
  80109e:	48 b8 29 0c 80 00 00 	movabs $0x800c29,%rax
  8010a5:	00 00 00 
  8010a8:	ff d0                	callq  *%rax
  8010aa:	bf 01 00 00 00       	mov    $0x1,%edi
  8010af:	48 b8 a3 04 80 00 00 	movabs $0x8004a3,%rax
  8010b6:	00 00 00 
  8010b9:	ff d0                	callq  *%rax
  8010bb:	48 ba 18 60 81 00 00 	movabs $0x816018,%rdx
  8010c2:	00 00 00 
  8010c5:	48 89 02             	mov    %rax,(%rdx)
  8010c8:	48 b8 8a 0c 80 00 00 	movabs $0x800c8a,%rax
  8010cf:	00 00 00 
  8010d2:	ff d0                	callq  *%rax
  8010d4:	bf 02 00 00 00       	mov    $0x2,%edi
  8010d9:	48 b8 a3 04 80 00 00 	movabs $0x8004a3,%rax
  8010e0:	00 00 00 
  8010e3:	ff d0                	callq  *%rax
  8010e5:	48 ba 10 60 81 00 00 	movabs $0x816010,%rdx
  8010ec:	00 00 00 
  8010ef:	48 89 02             	mov    %rax,(%rdx)
  8010f2:	48 b8 5a 0f 80 00 00 	movabs $0x800f5a,%rax
  8010f9:	00 00 00 
  8010fc:	ff d0                	callq  *%rax
  8010fe:	5d                   	pop    %rbp
  8010ff:	c3                   	retq   

0000000000801100 <file_block_walk>:
  801100:	55                   	push   %rbp
  801101:	48 89 e5             	mov    %rsp,%rbp
  801104:	48 83 ec 30          	sub    $0x30,%rsp
  801108:	48 89 7d e8          	mov    %rdi,-0x18(%rbp)
  80110c:	89 75 e4             	mov    %esi,-0x1c(%rbp)
  80110f:	48 89 55 d8          	mov    %rdx,-0x28(%rbp)
  801113:	89 c8                	mov    %ecx,%eax
  801115:	88 45 e0             	mov    %al,-0x20(%rbp)
  801118:	83 7d e4 09          	cmpl   $0x9,-0x1c(%rbp)
  80111c:	77 23                	ja     801141 <file_block_walk+0x41>
  80111e:	8b 45 e4             	mov    -0x1c(%rbp),%eax
  801121:	48 83 c0 20          	add    $0x20,%rax
  801125:	48 8d 14 85 00 00 00 	lea    0x0(,%rax,4),%rdx
  80112c:	00 
  80112d:	48 8b 45 e8          	mov    -0x18(%rbp),%rax
  801131:	48 01 d0             	add    %rdx,%rax
  801134:	48 83 c0 08          	add    $0x8,%rax
  801138:	48 89 45 f8          	mov    %rax,-0x8(%rbp)
  80113c:	e9 bd 00 00 00       	jmpq   8011fe <file_block_walk+0xfe>
  801141:	81 7d e4 09 04 00 00 	cmpl   $0x409,-0x1c(%rbp)
  801148:	0f 87 a9 00 00 00    	ja     8011f7 <file_block_walk+0xf7>
  80114e:	48 8b 45 e8          	mov    -0x18(%rbp),%rax
  801152:	8b 80 b0 00 00 00    	mov    0xb0(%rax),%eax
  801158:	85 c0                	test   %eax,%eax
  80115a:	75 6c                	jne    8011c8 <file_block_walk+0xc8>
  80115c:	0f b6 45 e0          	movzbl -0x20(%rbp),%eax
  801160:	83 f0 01             	xor    $0x1,%eax
  801163:	84 c0                	test   %al,%al
  801165:	74 0a                	je     801171 <file_block_walk+0x71>
  801167:	b8 f4 ff ff ff       	mov    $0xfffffff4,%eax
  80116c:	e9 9d 00 00 00       	jmpq   80120e <file_block_walk+0x10e>
  801171:	48 b8 2f 0e 80 00 00 	movabs $0x800e2f,%rax
  801178:	00 00 00 
  80117b:	ff d0                	callq  *%rax
  80117d:	89 45 f4             	mov    %eax,-0xc(%rbp)
  801180:	83 7d f4 00          	cmpl   $0x0,-0xc(%rbp)
  801184:	79 08                	jns    80118e <file_block_walk+0x8e>
  801186:	8b 45 f4             	mov    -0xc(%rbp),%eax
  801189:	e9 80 00 00 00       	jmpq   80120e <file_block_walk+0x10e>
  80118e:	8b 55 f4             	mov    -0xc(%rbp),%edx
  801191:	48 8b 45 e8          	mov    -0x18(%rbp),%rax
  801195:	89 90 b0 00 00 00    	mov    %edx,0xb0(%rax)
  80119b:	8b 45 f4             	mov    -0xc(%rbp),%eax
  80119e:	48 98                	cltq   
  8011a0:	48 89 c7             	mov    %rax,%rdi
  8011a3:	48 b8 a3 04 80 00 00 	movabs $0x8004a3,%rax
  8011aa:	00 00 00 
  8011ad:	ff d0                	callq  *%rax
  8011af:	ba 00 10 00 00       	mov    $0x1000,%edx
  8011b4:	be 00 00 00 00       	mov    $0x0,%esi
  8011b9:	48 89 c7             	mov    %rax,%rdi
  8011bc:	48 b8 bf 45 80 00 00 	movabs $0x8045bf,%rax
  8011c3:	00 00 00 
  8011c6:	ff d0                	callq  *%rax
  8011c8:	48 8b 45 e8          	mov    -0x18(%rbp),%rax
  8011cc:	8b 80 b0 00 00 00    	mov    0xb0(%rax),%eax
  8011d2:	89 c0                	mov    %eax,%eax
  8011d4:	48 89 c7             	mov    %rax,%rdi
  8011d7:	48 b8 a3 04 80 00 00 	movabs $0x8004a3,%rax
  8011de:	00 00 00 
  8011e1:	ff d0                	callq  *%rax
  8011e3:	8b 55 e4             	mov    -0x1c(%rbp),%edx
  8011e6:	48 c1 e2 02          	shl    $0x2,%rdx
  8011ea:	48 83 ea 28          	sub    $0x28,%rdx
  8011ee:	48 01 d0             	add    %rdx,%rax
  8011f1:	48 89 45 f8          	mov    %rax,-0x8(%rbp)
  8011f5:	eb 07                	jmp    8011fe <file_block_walk+0xfe>
  8011f7:	b8 fd ff ff ff       	mov    $0xfffffffd,%eax
  8011fc:	eb 10                	jmp    80120e <file_block_walk+0x10e>
  8011fe:	48 8b 45 d8          	mov    -0x28(%rbp),%rax
  801202:	48 8b 55 f8          	mov    -0x8(%rbp),%rdx
  801206:	48 89 10             	mov    %rdx,(%rax)
  801209:	b8 00 00 00 00       	mov    $0x0,%eax
  80120e:	c9                   	leaveq 
  80120f:	c3                   	retq   

0000000000801210 <file_get_block>:
  801210:	55                   	push   %rbp
  801211:	48 89 e5             	mov    %rsp,%rbp
  801214:	48 83 ec 30          	sub    $0x30,%rsp
  801218:	48 89 7d e8          	mov    %rdi,-0x18(%rbp)
  80121c:	89 75 e4             	mov    %esi,-0x1c(%rbp)
  80121f:	48 89 55 d8          	mov    %rdx,-0x28(%rbp)
  801223:	48 8d 55 f0          	lea    -0x10(%rbp),%rdx
  801227:	8b 75 e4             	mov    -0x1c(%rbp),%esi
  80122a:	48 8b 45 e8          	mov    -0x18(%rbp),%rax
  80122e:	b9 01 00 00 00       	mov    $0x1,%ecx
  801233:	48 89 c7             	mov    %rax,%rdi
  801236:	48 b8 00 11 80 00 00 	movabs $0x801100,%rax
  80123d:	00 00 00 
  801240:	ff d0                	callq  *%rax
  801242:	89 45 fc             	mov    %eax,-0x4(%rbp)
  801245:	83 7d fc 00          	cmpl   $0x0,-0x4(%rbp)
  801249:	79 05                	jns    801250 <file_get_block+0x40>
  80124b:	8b 45 fc             	mov    -0x4(%rbp),%eax
  80124e:	eb 50                	jmp    8012a0 <file_get_block+0x90>
  801250:	48 8b 45 f0          	mov    -0x10(%rbp),%rax
  801254:	8b 00                	mov    (%rax),%eax
  801256:	85 c0                	test   %eax,%eax
  801258:	75 23                	jne    80127d <file_get_block+0x6d>
  80125a:	48 b8 2f 0e 80 00 00 	movabs $0x800e2f,%rax
  801261:	00 00 00 
  801264:	ff d0                	callq  *%rax
  801266:	89 45 fc             	mov    %eax,-0x4(%rbp)
  801269:	83 7d fc 00          	cmpl   $0x0,-0x4(%rbp)
  80126d:	79 05                	jns    801274 <file_get_block+0x64>
  80126f:	8b 45 fc             	mov    -0x4(%rbp),%eax
  801272:	eb 2c                	jmp    8012a0 <file_get_block+0x90>
  801274:	48 8b 45 f0          	mov    -0x10(%rbp),%rax
  801278:	8b 55 fc             	mov    -0x4(%rbp),%edx
  80127b:	89 10                	mov    %edx,(%rax)
  80127d:	48 8b 45 f0          	mov    -0x10(%rbp),%rax
  801281:	8b 00                	mov    (%rax),%eax
  801283:	89 c0                	mov    %eax,%eax
  801285:	48 89 c7             	mov    %rax,%rdi
  801288:	48 b8 a3 04 80 00 00 	movabs $0x8004a3,%rax
  80128f:	00 00 00 
  801292:	ff d0                	callq  *%rax
  801294:	48 8b 55 d8          	mov    -0x28(%rbp),%rdx
  801298:	48 89 02             	mov    %rax,(%rdx)
  80129b:	b8 00 00 00 00       	mov    $0x0,%eax
  8012a0:	c9                   	leaveq 
  8012a1:	c3                   	retq   

00000000008012a2 <dir_lookup>:
  8012a2:	55                   	push   %rbp
  8012a3:	48 89 e5             	mov    %rsp,%rbp
  8012a6:	48 83 ec 40          	sub    $0x40,%rsp
  8012aa:	48 89 7d d8          	mov    %rdi,-0x28(%rbp)
  8012ae:	48 89 75 d0          	mov    %rsi,-0x30(%rbp)
  8012b2:	48 89 55 c8          	mov    %rdx,-0x38(%rbp)
  8012b6:	48 8b 45 d8          	mov    -0x28(%rbp),%rax
  8012ba:	8b 80 80 00 00 00    	mov    0x80(%rax),%eax
  8012c0:	25 ff 0f 00 00       	and    $0xfff,%eax
  8012c5:	85 c0                	test   %eax,%eax
  8012c7:	74 35                	je     8012fe <dir_lookup+0x5c>
  8012c9:	48 b9 e6 78 80 00 00 	movabs $0x8078e6,%rcx
  8012d0:	00 00 00 
  8012d3:	48 ba 9d 78 80 00 00 	movabs $0x80789d,%rdx
  8012da:	00 00 00 
  8012dd:	be 32 01 00 00       	mov    $0x132,%esi
  8012e2:	48 bf 36 78 80 00 00 	movabs $0x807836,%rdi
  8012e9:	00 00 00 
  8012ec:	b8 00 00 00 00       	mov    $0x0,%eax
  8012f1:	49 b8 38 35 80 00 00 	movabs $0x803538,%r8
  8012f8:	00 00 00 
  8012fb:	41 ff d0             	callq  *%r8
  8012fe:	48 8b 45 d8          	mov    -0x28(%rbp),%rax
  801302:	8b 80 80 00 00 00    	mov    0x80(%rax),%eax
  801308:	8d 90 ff 0f 00 00    	lea    0xfff(%rax),%edx
  80130e:	85 c0                	test   %eax,%eax
  801310:	0f 48 c2             	cmovs  %edx,%eax
  801313:	c1 f8 0c             	sar    $0xc,%eax
  801316:	89 45 f4             	mov    %eax,-0xc(%rbp)
  801319:	c7 45 fc 00 00 00 00 	movl   $0x0,-0x4(%rbp)
  801320:	e9 93 00 00 00       	jmpq   8013b8 <dir_lookup+0x116>
  801325:	48 8d 55 e0          	lea    -0x20(%rbp),%rdx
  801329:	8b 4d fc             	mov    -0x4(%rbp),%ecx
  80132c:	48 8b 45 d8          	mov    -0x28(%rbp),%rax
  801330:	89 ce                	mov    %ecx,%esi
  801332:	48 89 c7             	mov    %rax,%rdi
  801335:	48 b8 10 12 80 00 00 	movabs $0x801210,%rax
  80133c:	00 00 00 
  80133f:	ff d0                	callq  *%rax
  801341:	89 45 f0             	mov    %eax,-0x10(%rbp)
  801344:	83 7d f0 00          	cmpl   $0x0,-0x10(%rbp)
  801348:	79 05                	jns    80134f <dir_lookup+0xad>
  80134a:	8b 45 f0             	mov    -0x10(%rbp),%eax
  80134d:	eb 7a                	jmp    8013c9 <dir_lookup+0x127>
  80134f:	48 8b 45 e0          	mov    -0x20(%rbp),%rax
  801353:	48 89 45 e8          	mov    %rax,-0x18(%rbp)
  801357:	c7 45 f8 00 00 00 00 	movl   $0x0,-0x8(%rbp)
  80135e:	eb 4e                	jmp    8013ae <dir_lookup+0x10c>
  801360:	8b 45 f8             	mov    -0x8(%rbp),%eax
  801363:	48 c1 e0 08          	shl    $0x8,%rax
  801367:	48 89 c2             	mov    %rax,%rdx
  80136a:	48 8b 45 e8          	mov    -0x18(%rbp),%rax
  80136e:	48 01 d0             	add    %rdx,%rax
  801371:	48 8b 55 d0          	mov    -0x30(%rbp),%rdx
  801375:	48 89 d6             	mov    %rdx,%rsi
  801378:	48 89 c7             	mov    %rax,%rdi
  80137b:	48 b8 88 44 80 00 00 	movabs $0x804488,%rax
  801382:	00 00 00 
  801385:	ff d0                	callq  *%rax
  801387:	85 c0                	test   %eax,%eax
  801389:	75 1f                	jne    8013aa <dir_lookup+0x108>
  80138b:	8b 45 f8             	mov    -0x8(%rbp),%eax
  80138e:	48 c1 e0 08          	shl    $0x8,%rax
  801392:	48 89 c2             	mov    %rax,%rdx
  801395:	48 8b 45 e8          	mov    -0x18(%rbp),%rax
  801399:	48 01 c2             	add    %rax,%rdx
  80139c:	48 8b 45 c8          	mov    -0x38(%rbp),%rax
  8013a0:	48 89 10             	mov    %rdx,(%rax)
  8013a3:	b8 00 00 00 00       	mov    $0x0,%eax
  8013a8:	eb 1f                	jmp    8013c9 <dir_lookup+0x127>
  8013aa:	83 45 f8 01          	addl   $0x1,-0x8(%rbp)
  8013ae:	83 7d f8 0f          	cmpl   $0xf,-0x8(%rbp)
  8013b2:	76 ac                	jbe    801360 <dir_lookup+0xbe>
  8013b4:	83 45 fc 01          	addl   $0x1,-0x4(%rbp)
  8013b8:	8b 45 fc             	mov    -0x4(%rbp),%eax
  8013bb:	3b 45 f4             	cmp    -0xc(%rbp),%eax
  8013be:	0f 82 61 ff ff ff    	jb     801325 <dir_lookup+0x83>
  8013c4:	b8 f4 ff ff ff       	mov    $0xfffffff4,%eax
  8013c9:	c9                   	leaveq 
  8013ca:	c3                   	retq   

00000000008013cb <dir_alloc_file>:
  8013cb:	55                   	push   %rbp
  8013cc:	48 89 e5             	mov    %rsp,%rbp
  8013cf:	48 83 ec 30          	sub    $0x30,%rsp
  8013d3:	48 89 7d d8          	mov    %rdi,-0x28(%rbp)
  8013d7:	48 89 75 d0          	mov    %rsi,-0x30(%rbp)
  8013db:	48 8b 45 d8          	mov    -0x28(%rbp),%rax
  8013df:	8b 80 80 00 00 00    	mov    0x80(%rax),%eax
  8013e5:	25 ff 0f 00 00       	and    $0xfff,%eax
  8013ea:	85 c0                	test   %eax,%eax
  8013ec:	74 35                	je     801423 <dir_alloc_file+0x58>
  8013ee:	48 b9 e6 78 80 00 00 	movabs $0x8078e6,%rcx
  8013f5:	00 00 00 
  8013f8:	48 ba 9d 78 80 00 00 	movabs $0x80789d,%rdx
  8013ff:	00 00 00 
  801402:	be 4b 01 00 00       	mov    $0x14b,%esi
  801407:	48 bf 36 78 80 00 00 	movabs $0x807836,%rdi
  80140e:	00 00 00 
  801411:	b8 00 00 00 00       	mov    $0x0,%eax
  801416:	49 b8 38 35 80 00 00 	movabs $0x803538,%r8
  80141d:	00 00 00 
  801420:	41 ff d0             	callq  *%r8
  801423:	48 8b 45 d8          	mov    -0x28(%rbp),%rax
  801427:	8b 80 80 00 00 00    	mov    0x80(%rax),%eax
  80142d:	8d 90 ff 0f 00 00    	lea    0xfff(%rax),%edx
  801433:	85 c0                	test   %eax,%eax
  801435:	0f 48 c2             	cmovs  %edx,%eax
  801438:	c1 f8 0c             	sar    $0xc,%eax
  80143b:	89 45 f4             	mov    %eax,-0xc(%rbp)
  80143e:	c7 45 fc 00 00 00 00 	movl   $0x0,-0x4(%rbp)
  801445:	e9 83 00 00 00       	jmpq   8014cd <dir_alloc_file+0x102>
  80144a:	48 8d 55 e0          	lea    -0x20(%rbp),%rdx
  80144e:	8b 4d fc             	mov    -0x4(%rbp),%ecx
  801451:	48 8b 45 d8          	mov    -0x28(%rbp),%rax
  801455:	89 ce                	mov    %ecx,%esi
  801457:	48 89 c7             	mov    %rax,%rdi
  80145a:	48 b8 10 12 80 00 00 	movabs $0x801210,%rax
  801461:	00 00 00 
  801464:	ff d0                	callq  *%rax
  801466:	89 45 f0             	mov    %eax,-0x10(%rbp)
  801469:	83 7d f0 00          	cmpl   $0x0,-0x10(%rbp)
  80146d:	79 08                	jns    801477 <dir_alloc_file+0xac>
  80146f:	8b 45 f0             	mov    -0x10(%rbp),%eax
  801472:	e9 be 00 00 00       	jmpq   801535 <dir_alloc_file+0x16a>
  801477:	48 8b 45 e0          	mov    -0x20(%rbp),%rax
  80147b:	48 89 45 e8          	mov    %rax,-0x18(%rbp)
  80147f:	c7 45 f8 00 00 00 00 	movl   $0x0,-0x8(%rbp)
  801486:	eb 3b                	jmp    8014c3 <dir_alloc_file+0xf8>
  801488:	8b 45 f8             	mov    -0x8(%rbp),%eax
  80148b:	48 c1 e0 08          	shl    $0x8,%rax
  80148f:	48 89 c2             	mov    %rax,%rdx
  801492:	48 8b 45 e8          	mov    -0x18(%rbp),%rax
  801496:	48 01 d0             	add    %rdx,%rax
  801499:	0f b6 00             	movzbl (%rax),%eax
  80149c:	84 c0                	test   %al,%al
  80149e:	75 1f                	jne    8014bf <dir_alloc_file+0xf4>
  8014a0:	8b 45 f8             	mov    -0x8(%rbp),%eax
  8014a3:	48 c1 e0 08          	shl    $0x8,%rax
  8014a7:	48 89 c2             	mov    %rax,%rdx
  8014aa:	48 8b 45 e8          	mov    -0x18(%rbp),%rax
  8014ae:	48 01 c2             	add    %rax,%rdx
  8014b1:	48 8b 45 d0          	mov    -0x30(%rbp),%rax
  8014b5:	48 89 10             	mov    %rdx,(%rax)
  8014b8:	b8 00 00 00 00       	mov    $0x0,%eax
  8014bd:	eb 76                	jmp    801535 <dir_alloc_file+0x16a>
  8014bf:	83 45 f8 01          	addl   $0x1,-0x8(%rbp)
  8014c3:	83 7d f8 0f          	cmpl   $0xf,-0x8(%rbp)
  8014c7:	76 bf                	jbe    801488 <dir_alloc_file+0xbd>
  8014c9:	83 45 fc 01          	addl   $0x1,-0x4(%rbp)
  8014cd:	8b 45 fc             	mov    -0x4(%rbp),%eax
  8014d0:	3b 45 f4             	cmp    -0xc(%rbp),%eax
  8014d3:	0f 82 71 ff ff ff    	jb     80144a <dir_alloc_file+0x7f>
  8014d9:	48 8b 45 d8          	mov    -0x28(%rbp),%rax
  8014dd:	8b 80 80 00 00 00    	mov    0x80(%rax),%eax
  8014e3:	8d 90 00 10 00 00    	lea    0x1000(%rax),%edx
  8014e9:	48 8b 45 d8          	mov    -0x28(%rbp),%rax
  8014ed:	89 90 80 00 00 00    	mov    %edx,0x80(%rax)
  8014f3:	48 8d 55 e0          	lea    -0x20(%rbp),%rdx
  8014f7:	8b 4d fc             	mov    -0x4(%rbp),%ecx
  8014fa:	48 8b 45 d8          	mov    -0x28(%rbp),%rax
  8014fe:	89 ce                	mov    %ecx,%esi
  801500:	48 89 c7             	mov    %rax,%rdi
  801503:	48 b8 10 12 80 00 00 	movabs $0x801210,%rax
  80150a:	00 00 00 
  80150d:	ff d0                	callq  *%rax
  80150f:	89 45 f0             	mov    %eax,-0x10(%rbp)
  801512:	83 7d f0 00          	cmpl   $0x0,-0x10(%rbp)
  801516:	79 05                	jns    80151d <dir_alloc_file+0x152>
  801518:	8b 45 f0             	mov    -0x10(%rbp),%eax
  80151b:	eb 18                	jmp    801535 <dir_alloc_file+0x16a>
  80151d:	48 8b 45 e0          	mov    -0x20(%rbp),%rax
  801521:	48 89 45 e8          	mov    %rax,-0x18(%rbp)
  801525:	48 8b 45 d0          	mov    -0x30(%rbp),%rax
  801529:	48 8b 55 e8          	mov    -0x18(%rbp),%rdx
  80152d:	48 89 10             	mov    %rdx,(%rax)
  801530:	b8 00 00 00 00       	mov    $0x0,%eax
  801535:	c9                   	leaveq 
  801536:	c3                   	retq   

0000000000801537 <skip_slash>:
  801537:	55                   	push   %rbp
  801538:	48 89 e5             	mov    %rsp,%rbp
  80153b:	48 83 ec 08          	sub    $0x8,%rsp
  80153f:	48 89 7d f8          	mov    %rdi,-0x8(%rbp)
  801543:	eb 05                	jmp    80154a <skip_slash+0x13>
  801545:	48 83 45 f8 01       	addq   $0x1,-0x8(%rbp)
  80154a:	48 8b 45 f8          	mov    -0x8(%rbp),%rax
  80154e:	0f b6 00             	movzbl (%rax),%eax
  801551:	3c 2f                	cmp    $0x2f,%al
  801553:	74 f0                	je     801545 <skip_slash+0xe>
  801555:	48 8b 45 f8          	mov    -0x8(%rbp),%rax
  801559:	c9                   	leaveq 
  80155a:	c3                   	retq   

000000000080155b <walk_path>:
  80155b:	55                   	push   %rbp
  80155c:	48 89 e5             	mov    %rsp,%rbp
  80155f:	48 81 ec d0 00 00 00 	sub    $0xd0,%rsp
  801566:	48 89 bd 48 ff ff ff 	mov    %rdi,-0xb8(%rbp)
  80156d:	48 89 b5 40 ff ff ff 	mov    %rsi,-0xc0(%rbp)
  801574:	48 89 95 38 ff ff ff 	mov    %rdx,-0xc8(%rbp)
  80157b:	48 89 8d 30 ff ff ff 	mov    %rcx,-0xd0(%rbp)
  801582:	48 8b 85 48 ff ff ff 	mov    -0xb8(%rbp),%rax
  801589:	48 89 c7             	mov    %rax,%rdi
  80158c:	48 b8 37 15 80 00 00 	movabs $0x801537,%rax
  801593:	00 00 00 
  801596:	ff d0                	callq  *%rax
  801598:	48 89 85 48 ff ff ff 	mov    %rax,-0xb8(%rbp)
  80159f:	48 b8 18 60 81 00 00 	movabs $0x816018,%rax
  8015a6:	00 00 00 
  8015a9:	48 8b 00             	mov    (%rax),%rax
  8015ac:	48 83 c0 08          	add    $0x8,%rax
  8015b0:	48 89 85 58 ff ff ff 	mov    %rax,-0xa8(%rbp)
  8015b7:	48 c7 45 f8 00 00 00 	movq   $0x0,-0x8(%rbp)
  8015be:	00 
  8015bf:	c6 85 60 ff ff ff 00 	movb   $0x0,-0xa0(%rbp)
  8015c6:	48 83 bd 40 ff ff ff 	cmpq   $0x0,-0xc0(%rbp)
  8015cd:	00 
  8015ce:	74 0e                	je     8015de <walk_path+0x83>
  8015d0:	48 8b 85 40 ff ff ff 	mov    -0xc0(%rbp),%rax
  8015d7:	48 c7 00 00 00 00 00 	movq   $0x0,(%rax)
  8015de:	48 8b 85 38 ff ff ff 	mov    -0xc8(%rbp),%rax
  8015e5:	48 c7 00 00 00 00 00 	movq   $0x0,(%rax)
  8015ec:	e9 73 01 00 00       	jmpq   801764 <walk_path+0x209>
  8015f1:	48 8b 85 58 ff ff ff 	mov    -0xa8(%rbp),%rax
  8015f8:	48 89 45 f8          	mov    %rax,-0x8(%rbp)
  8015fc:	48 8b 85 48 ff ff ff 	mov    -0xb8(%rbp),%rax
  801603:	48 89 45 f0          	mov    %rax,-0x10(%rbp)
  801607:	eb 08                	jmp    801611 <walk_path+0xb6>
  801609:	48 83 85 48 ff ff ff 	addq   $0x1,-0xb8(%rbp)
  801610:	01 
  801611:	48 8b 85 48 ff ff ff 	mov    -0xb8(%rbp),%rax
  801618:	0f b6 00             	movzbl (%rax),%eax
  80161b:	3c 2f                	cmp    $0x2f,%al
  80161d:	74 0e                	je     80162d <walk_path+0xd2>
  80161f:	48 8b 85 48 ff ff ff 	mov    -0xb8(%rbp),%rax
  801626:	0f b6 00             	movzbl (%rax),%eax
  801629:	84 c0                	test   %al,%al
  80162b:	75 dc                	jne    801609 <walk_path+0xae>
  80162d:	48 8b 95 48 ff ff ff 	mov    -0xb8(%rbp),%rdx
  801634:	48 8b 45 f0          	mov    -0x10(%rbp),%rax
  801638:	48 29 c2             	sub    %rax,%rdx
  80163b:	48 89 d0             	mov    %rdx,%rax
  80163e:	48 83 f8 7f          	cmp    $0x7f,%rax
  801642:	7e 0a                	jle    80164e <walk_path+0xf3>
  801644:	b8 f3 ff ff ff       	mov    $0xfffffff3,%eax
  801649:	e9 56 01 00 00       	jmpq   8017a4 <walk_path+0x249>
  80164e:	48 8b 95 48 ff ff ff 	mov    -0xb8(%rbp),%rdx
  801655:	48 8b 45 f0          	mov    -0x10(%rbp),%rax
  801659:	48 29 c2             	sub    %rax,%rdx
  80165c:	48 89 d0             	mov    %rdx,%rax
  80165f:	48 89 c2             	mov    %rax,%rdx
  801662:	48 8b 4d f0          	mov    -0x10(%rbp),%rcx
  801666:	48 8d 85 60 ff ff ff 	lea    -0xa0(%rbp),%rax
  80166d:	48 89 ce             	mov    %rcx,%rsi
  801670:	48 89 c7             	mov    %rax,%rdi
  801673:	48 b8 4a 46 80 00 00 	movabs $0x80464a,%rax
  80167a:	00 00 00 
  80167d:	ff d0                	callq  *%rax
  80167f:	48 8b 95 48 ff ff ff 	mov    -0xb8(%rbp),%rdx
  801686:	48 8b 45 f0          	mov    -0x10(%rbp),%rax
  80168a:	48 29 c2             	sub    %rax,%rdx
  80168d:	48 89 d0             	mov    %rdx,%rax
  801690:	c6 84 05 60 ff ff ff 	movb   $0x0,-0xa0(%rbp,%rax,1)
  801697:	00 
  801698:	48 8b 85 48 ff ff ff 	mov    -0xb8(%rbp),%rax
  80169f:	48 89 c7             	mov    %rax,%rdi
  8016a2:	48 b8 37 15 80 00 00 	movabs $0x801537,%rax
  8016a9:	00 00 00 
  8016ac:	ff d0                	callq  *%rax
  8016ae:	48 89 85 48 ff ff ff 	mov    %rax,-0xb8(%rbp)
  8016b5:	48 8b 45 f8          	mov    -0x8(%rbp),%rax
  8016b9:	8b 80 84 00 00 00    	mov    0x84(%rax),%eax
  8016bf:	83 f8 01             	cmp    $0x1,%eax
  8016c2:	74 0a                	je     8016ce <walk_path+0x173>
  8016c4:	b8 f4 ff ff ff       	mov    $0xfffffff4,%eax
  8016c9:	e9 d6 00 00 00       	jmpq   8017a4 <walk_path+0x249>
  8016ce:	48 8d 95 58 ff ff ff 	lea    -0xa8(%rbp),%rdx
  8016d5:	48 8d 8d 60 ff ff ff 	lea    -0xa0(%rbp),%rcx
  8016dc:	48 8b 45 f8          	mov    -0x8(%rbp),%rax
  8016e0:	48 89 ce             	mov    %rcx,%rsi
  8016e3:	48 89 c7             	mov    %rax,%rdi
  8016e6:	48 b8 a2 12 80 00 00 	movabs $0x8012a2,%rax
  8016ed:	00 00 00 
  8016f0:	ff d0                	callq  *%rax
  8016f2:	89 45 ec             	mov    %eax,-0x14(%rbp)
  8016f5:	83 7d ec 00          	cmpl   $0x0,-0x14(%rbp)
  8016f9:	79 69                	jns    801764 <walk_path+0x209>
  8016fb:	83 7d ec f4          	cmpl   $0xfffffff4,-0x14(%rbp)
  8016ff:	75 5e                	jne    80175f <walk_path+0x204>
  801701:	48 8b 85 48 ff ff ff 	mov    -0xb8(%rbp),%rax
  801708:	0f b6 00             	movzbl (%rax),%eax
  80170b:	84 c0                	test   %al,%al
  80170d:	75 50                	jne    80175f <walk_path+0x204>
  80170f:	48 83 bd 40 ff ff ff 	cmpq   $0x0,-0xc0(%rbp)
  801716:	00 
  801717:	74 0e                	je     801727 <walk_path+0x1cc>
  801719:	48 8b 85 40 ff ff ff 	mov    -0xc0(%rbp),%rax
  801720:	48 8b 55 f8          	mov    -0x8(%rbp),%rdx
  801724:	48 89 10             	mov    %rdx,(%rax)
  801727:	48 83 bd 30 ff ff ff 	cmpq   $0x0,-0xd0(%rbp)
  80172e:	00 
  80172f:	74 20                	je     801751 <walk_path+0x1f6>
  801731:	48 8d 95 60 ff ff ff 	lea    -0xa0(%rbp),%rdx
  801738:	48 8b 85 30 ff ff ff 	mov    -0xd0(%rbp),%rax
  80173f:	48 89 d6             	mov    %rdx,%rsi
  801742:	48 89 c7             	mov    %rax,%rdi
  801745:	48 b8 26 43 80 00 00 	movabs $0x804326,%rax
  80174c:	00 00 00 
  80174f:	ff d0                	callq  *%rax
  801751:	48 8b 85 38 ff ff ff 	mov    -0xc8(%rbp),%rax
  801758:	48 c7 00 00 00 00 00 	movq   $0x0,(%rax)
  80175f:	8b 45 ec             	mov    -0x14(%rbp),%eax
  801762:	eb 40                	jmp    8017a4 <walk_path+0x249>
  801764:	48 8b 85 48 ff ff ff 	mov    -0xb8(%rbp),%rax
  80176b:	0f b6 00             	movzbl (%rax),%eax
  80176e:	84 c0                	test   %al,%al
  801770:	0f 85 7b fe ff ff    	jne    8015f1 <walk_path+0x96>
  801776:	48 83 bd 40 ff ff ff 	cmpq   $0x0,-0xc0(%rbp)
  80177d:	00 
  80177e:	74 0e                	je     80178e <walk_path+0x233>
  801780:	48 8b 85 40 ff ff ff 	mov    -0xc0(%rbp),%rax
  801787:	48 8b 55 f8          	mov    -0x8(%rbp),%rdx
  80178b:	48 89 10             	mov    %rdx,(%rax)
  80178e:	48 8b 95 58 ff ff ff 	mov    -0xa8(%rbp),%rdx
  801795:	48 8b 85 38 ff ff ff 	mov    -0xc8(%rbp),%rax
  80179c:	48 89 10             	mov    %rdx,(%rax)
  80179f:	b8 00 00 00 00       	mov    $0x0,%eax
  8017a4:	c9                   	leaveq 
  8017a5:	c3                   	retq   

00000000008017a6 <file_create>:
  8017a6:	55                   	push   %rbp
  8017a7:	48 89 e5             	mov    %rsp,%rbp
  8017aa:	48 81 ec b0 00 00 00 	sub    $0xb0,%rsp
  8017b1:	48 89 bd 58 ff ff ff 	mov    %rdi,-0xa8(%rbp)
  8017b8:	48 89 b5 50 ff ff ff 	mov    %rsi,-0xb0(%rbp)
  8017bf:	48 8d 8d 70 ff ff ff 	lea    -0x90(%rbp),%rcx
  8017c6:	48 8d 95 60 ff ff ff 	lea    -0xa0(%rbp),%rdx
  8017cd:	48 8d b5 68 ff ff ff 	lea    -0x98(%rbp),%rsi
  8017d4:	48 8b 85 58 ff ff ff 	mov    -0xa8(%rbp),%rax
  8017db:	48 89 c7             	mov    %rax,%rdi
  8017de:	48 b8 5b 15 80 00 00 	movabs $0x80155b,%rax
  8017e5:	00 00 00 
  8017e8:	ff d0                	callq  *%rax
  8017ea:	89 45 fc             	mov    %eax,-0x4(%rbp)
  8017ed:	83 7d fc 00          	cmpl   $0x0,-0x4(%rbp)
  8017f1:	75 0a                	jne    8017fd <file_create+0x57>
  8017f3:	b8 f2 ff ff ff       	mov    $0xfffffff2,%eax
  8017f8:	e9 91 00 00 00       	jmpq   80188e <file_create+0xe8>
  8017fd:	83 7d fc f4          	cmpl   $0xfffffff4,-0x4(%rbp)
  801801:	75 0c                	jne    80180f <file_create+0x69>
  801803:	48 8b 85 68 ff ff ff 	mov    -0x98(%rbp),%rax
  80180a:	48 85 c0             	test   %rax,%rax
  80180d:	75 05                	jne    801814 <file_create+0x6e>
  80180f:	8b 45 fc             	mov    -0x4(%rbp),%eax
  801812:	eb 7a                	jmp    80188e <file_create+0xe8>
  801814:	48 8b 85 68 ff ff ff 	mov    -0x98(%rbp),%rax
  80181b:	48 8d 95 60 ff ff ff 	lea    -0xa0(%rbp),%rdx
  801822:	48 89 d6             	mov    %rdx,%rsi
  801825:	48 89 c7             	mov    %rax,%rdi
  801828:	48 b8 cb 13 80 00 00 	movabs $0x8013cb,%rax
  80182f:	00 00 00 
  801832:	ff d0                	callq  *%rax
  801834:	89 45 fc             	mov    %eax,-0x4(%rbp)
  801837:	83 7d fc 00          	cmpl   $0x0,-0x4(%rbp)
  80183b:	79 05                	jns    801842 <file_create+0x9c>
  80183d:	8b 45 fc             	mov    -0x4(%rbp),%eax
  801840:	eb 4c                	jmp    80188e <file_create+0xe8>
  801842:	48 8b 85 60 ff ff ff 	mov    -0xa0(%rbp),%rax
  801849:	48 8d 95 70 ff ff ff 	lea    -0x90(%rbp),%rdx
  801850:	48 89 d6             	mov    %rdx,%rsi
  801853:	48 89 c7             	mov    %rax,%rdi
  801856:	48 b8 26 43 80 00 00 	movabs $0x804326,%rax
  80185d:	00 00 00 
  801860:	ff d0                	callq  *%rax
  801862:	48 8b 95 60 ff ff ff 	mov    -0xa0(%rbp),%rdx
  801869:	48 8b 85 50 ff ff ff 	mov    -0xb0(%rbp),%rax
  801870:	48 89 10             	mov    %rdx,(%rax)
  801873:	48 8b 85 68 ff ff ff 	mov    -0x98(%rbp),%rax
  80187a:	48 89 c7             	mov    %rax,%rdi
  80187d:	48 b8 1c 1d 80 00 00 	movabs $0x801d1c,%rax
  801884:	00 00 00 
  801887:	ff d0                	callq  *%rax
  801889:	b8 00 00 00 00       	mov    $0x0,%eax
  80188e:	c9                   	leaveq 
  80188f:	c3                   	retq   

0000000000801890 <file_open>:
  801890:	55                   	push   %rbp
  801891:	48 89 e5             	mov    %rsp,%rbp
  801894:	48 83 ec 10          	sub    $0x10,%rsp
  801898:	48 89 7d f8          	mov    %rdi,-0x8(%rbp)
  80189c:	48 89 75 f0          	mov    %rsi,-0x10(%rbp)
  8018a0:	48 8b 55 f0          	mov    -0x10(%rbp),%rdx
  8018a4:	48 8b 45 f8          	mov    -0x8(%rbp),%rax
  8018a8:	b9 00 00 00 00       	mov    $0x0,%ecx
  8018ad:	be 00 00 00 00       	mov    $0x0,%esi
  8018b2:	48 89 c7             	mov    %rax,%rdi
  8018b5:	48 b8 5b 15 80 00 00 	movabs $0x80155b,%rax
  8018bc:	00 00 00 
  8018bf:	ff d0                	callq  *%rax
  8018c1:	c9                   	leaveq 
  8018c2:	c3                   	retq   

00000000008018c3 <file_read>:
  8018c3:	55                   	push   %rbp
  8018c4:	48 89 e5             	mov    %rsp,%rbp
  8018c7:	48 83 ec 60          	sub    $0x60,%rsp
  8018cb:	48 89 7d b8          	mov    %rdi,-0x48(%rbp)
  8018cf:	48 89 75 b0          	mov    %rsi,-0x50(%rbp)
  8018d3:	48 89 55 a8          	mov    %rdx,-0x58(%rbp)
  8018d7:	89 4d a4             	mov    %ecx,-0x5c(%rbp)
  8018da:	48 8b 45 b8          	mov    -0x48(%rbp),%rax
  8018de:	8b 80 80 00 00 00    	mov    0x80(%rax),%eax
  8018e4:	3b 45 a4             	cmp    -0x5c(%rbp),%eax
  8018e7:	7f 0a                	jg     8018f3 <file_read+0x30>
  8018e9:	b8 00 00 00 00       	mov    $0x0,%eax
  8018ee:	e9 24 01 00 00       	jmpq   801a17 <file_read+0x154>
  8018f3:	48 8b 45 a8          	mov    -0x58(%rbp),%rax
  8018f7:	48 89 45 f0          	mov    %rax,-0x10(%rbp)
  8018fb:	48 8b 45 b8          	mov    -0x48(%rbp),%rax
  8018ff:	8b 80 80 00 00 00    	mov    0x80(%rax),%eax
  801905:	2b 45 a4             	sub    -0x5c(%rbp),%eax
  801908:	89 45 ec             	mov    %eax,-0x14(%rbp)
  80190b:	8b 45 ec             	mov    -0x14(%rbp),%eax
  80190e:	48 63 d0             	movslq %eax,%rdx
  801911:	48 8b 45 f0          	mov    -0x10(%rbp),%rax
  801915:	48 39 c2             	cmp    %rax,%rdx
  801918:	48 0f 46 c2          	cmovbe %rdx,%rax
  80191c:	48 89 45 a8          	mov    %rax,-0x58(%rbp)
  801920:	8b 45 a4             	mov    -0x5c(%rbp),%eax
  801923:	89 45 fc             	mov    %eax,-0x4(%rbp)
  801926:	e9 cd 00 00 00       	jmpq   8019f8 <file_read+0x135>
  80192b:	8b 45 fc             	mov    -0x4(%rbp),%eax
  80192e:	8d 90 ff 0f 00 00    	lea    0xfff(%rax),%edx
  801934:	85 c0                	test   %eax,%eax
  801936:	0f 48 c2             	cmovs  %edx,%eax
  801939:	c1 f8 0c             	sar    $0xc,%eax
  80193c:	89 c1                	mov    %eax,%ecx
  80193e:	48 8d 55 c8          	lea    -0x38(%rbp),%rdx
  801942:	48 8b 45 b8          	mov    -0x48(%rbp),%rax
  801946:	89 ce                	mov    %ecx,%esi
  801948:	48 89 c7             	mov    %rax,%rdi
  80194b:	48 b8 10 12 80 00 00 	movabs $0x801210,%rax
  801952:	00 00 00 
  801955:	ff d0                	callq  *%rax
  801957:	89 45 e8             	mov    %eax,-0x18(%rbp)
  80195a:	83 7d e8 00          	cmpl   $0x0,-0x18(%rbp)
  80195e:	79 08                	jns    801968 <file_read+0xa5>
  801960:	8b 45 e8             	mov    -0x18(%rbp),%eax
  801963:	e9 af 00 00 00       	jmpq   801a17 <file_read+0x154>
  801968:	8b 45 fc             	mov    -0x4(%rbp),%eax
  80196b:	99                   	cltd   
  80196c:	c1 ea 14             	shr    $0x14,%edx
  80196f:	01 d0                	add    %edx,%eax
  801971:	25 ff 0f 00 00       	and    $0xfff,%eax
  801976:	29 d0                	sub    %edx,%eax
  801978:	ba 00 10 00 00       	mov    $0x1000,%edx
  80197d:	29 c2                	sub    %eax,%edx
  80197f:	89 d0                	mov    %edx,%eax
  801981:	89 45 e4             	mov    %eax,-0x1c(%rbp)
  801984:	8b 45 a4             	mov    -0x5c(%rbp),%eax
  801987:	48 63 d0             	movslq %eax,%rdx
  80198a:	48 8b 45 a8          	mov    -0x58(%rbp),%rax
  80198e:	48 01 c2             	add    %rax,%rdx
  801991:	8b 45 fc             	mov    -0x4(%rbp),%eax
  801994:	48 98                	cltq   
  801996:	48 29 c2             	sub    %rax,%rdx
  801999:	48 89 d0             	mov    %rdx,%rax
  80199c:	48 89 45 d8          	mov    %rax,-0x28(%rbp)
  8019a0:	8b 45 e4             	mov    -0x1c(%rbp),%eax
  8019a3:	48 63 d0             	movslq %eax,%rdx
  8019a6:	48 8b 45 d8          	mov    -0x28(%rbp),%rax
  8019aa:	48 39 c2             	cmp    %rax,%rdx
  8019ad:	48 0f 46 c2          	cmovbe %rdx,%rax
  8019b1:	89 45 d4             	mov    %eax,-0x2c(%rbp)
  8019b4:	8b 45 d4             	mov    -0x2c(%rbp),%eax
  8019b7:	48 63 c8             	movslq %eax,%rcx
  8019ba:	48 8b 75 c8          	mov    -0x38(%rbp),%rsi
  8019be:	8b 45 fc             	mov    -0x4(%rbp),%eax
  8019c1:	99                   	cltd   
  8019c2:	c1 ea 14             	shr    $0x14,%edx
  8019c5:	01 d0                	add    %edx,%eax
  8019c7:	25 ff 0f 00 00       	and    $0xfff,%eax
  8019cc:	29 d0                	sub    %edx,%eax
  8019ce:	48 98                	cltq   
  8019d0:	48 01 c6             	add    %rax,%rsi
  8019d3:	48 8b 45 b0          	mov    -0x50(%rbp),%rax
  8019d7:	48 89 ca             	mov    %rcx,%rdx
  8019da:	48 89 c7             	mov    %rax,%rdi
  8019dd:	48 b8 4a 46 80 00 00 	movabs $0x80464a,%rax
  8019e4:	00 00 00 
  8019e7:	ff d0                	callq  *%rax
  8019e9:	8b 45 d4             	mov    -0x2c(%rbp),%eax
  8019ec:	01 45 fc             	add    %eax,-0x4(%rbp)
  8019ef:	8b 45 d4             	mov    -0x2c(%rbp),%eax
  8019f2:	48 98                	cltq   
  8019f4:	48 01 45 b0          	add    %rax,-0x50(%rbp)
  8019f8:	8b 45 fc             	mov    -0x4(%rbp),%eax
  8019fb:	48 98                	cltq   
  8019fd:	8b 55 a4             	mov    -0x5c(%rbp),%edx
  801a00:	48 63 ca             	movslq %edx,%rcx
  801a03:	48 8b 55 a8          	mov    -0x58(%rbp),%rdx
  801a07:	48 01 ca             	add    %rcx,%rdx
  801a0a:	48 39 d0             	cmp    %rdx,%rax
  801a0d:	0f 82 18 ff ff ff    	jb     80192b <file_read+0x68>
  801a13:	48 8b 45 a8          	mov    -0x58(%rbp),%rax
  801a17:	c9                   	leaveq 
  801a18:	c3                   	retq   

0000000000801a19 <file_write>:
  801a19:	55                   	push   %rbp
  801a1a:	48 89 e5             	mov    %rsp,%rbp
  801a1d:	48 83 ec 50          	sub    $0x50,%rsp
  801a21:	48 89 7d c8          	mov    %rdi,-0x38(%rbp)
  801a25:	48 89 75 c0          	mov    %rsi,-0x40(%rbp)
  801a29:	48 89 55 b8          	mov    %rdx,-0x48(%rbp)
  801a2d:	89 4d b4             	mov    %ecx,-0x4c(%rbp)
  801a30:	8b 45 b4             	mov    -0x4c(%rbp),%eax
  801a33:	48 63 d0             	movslq %eax,%rdx
  801a36:	48 8b 45 b8          	mov    -0x48(%rbp),%rax
  801a3a:	48 01 c2             	add    %rax,%rdx
  801a3d:	48 8b 45 c8          	mov    -0x38(%rbp),%rax
  801a41:	8b 80 80 00 00 00    	mov    0x80(%rax),%eax
  801a47:	48 98                	cltq   
  801a49:	48 39 c2             	cmp    %rax,%rdx
  801a4c:	76 33                	jbe    801a81 <file_write+0x68>
  801a4e:	48 8b 45 b8          	mov    -0x48(%rbp),%rax
  801a52:	89 c2                	mov    %eax,%edx
  801a54:	8b 45 b4             	mov    -0x4c(%rbp),%eax
  801a57:	01 d0                	add    %edx,%eax
  801a59:	89 c2                	mov    %eax,%edx
  801a5b:	48 8b 45 c8          	mov    -0x38(%rbp),%rax
  801a5f:	89 d6                	mov    %edx,%esi
  801a61:	48 89 c7             	mov    %rax,%rdi
  801a64:	48 b8 bf 1c 80 00 00 	movabs $0x801cbf,%rax
  801a6b:	00 00 00 
  801a6e:	ff d0                	callq  *%rax
  801a70:	89 45 f8             	mov    %eax,-0x8(%rbp)
  801a73:	83 7d f8 00          	cmpl   $0x0,-0x8(%rbp)
  801a77:	79 08                	jns    801a81 <file_write+0x68>
  801a79:	8b 45 f8             	mov    -0x8(%rbp),%eax
  801a7c:	e9 f8 00 00 00       	jmpq   801b79 <file_write+0x160>
  801a81:	8b 45 b4             	mov    -0x4c(%rbp),%eax
  801a84:	89 45 fc             	mov    %eax,-0x4(%rbp)
  801a87:	e9 ce 00 00 00       	jmpq   801b5a <file_write+0x141>
  801a8c:	8b 45 fc             	mov    -0x4(%rbp),%eax
  801a8f:	8d 90 ff 0f 00 00    	lea    0xfff(%rax),%edx
  801a95:	85 c0                	test   %eax,%eax
  801a97:	0f 48 c2             	cmovs  %edx,%eax
  801a9a:	c1 f8 0c             	sar    $0xc,%eax
  801a9d:	89 c1                	mov    %eax,%ecx
  801a9f:	48 8d 55 d8          	lea    -0x28(%rbp),%rdx
  801aa3:	48 8b 45 c8          	mov    -0x38(%rbp),%rax
  801aa7:	89 ce                	mov    %ecx,%esi
  801aa9:	48 89 c7             	mov    %rax,%rdi
  801aac:	48 b8 10 12 80 00 00 	movabs $0x801210,%rax
  801ab3:	00 00 00 
  801ab6:	ff d0                	callq  *%rax
  801ab8:	89 45 f8             	mov    %eax,-0x8(%rbp)
  801abb:	83 7d f8 00          	cmpl   $0x0,-0x8(%rbp)
  801abf:	79 08                	jns    801ac9 <file_write+0xb0>
  801ac1:	8b 45 f8             	mov    -0x8(%rbp),%eax
  801ac4:	e9 b0 00 00 00       	jmpq   801b79 <file_write+0x160>
  801ac9:	8b 45 fc             	mov    -0x4(%rbp),%eax
  801acc:	99                   	cltd   
  801acd:	c1 ea 14             	shr    $0x14,%edx
  801ad0:	01 d0                	add    %edx,%eax
  801ad2:	25 ff 0f 00 00       	and    $0xfff,%eax
  801ad7:	29 d0                	sub    %edx,%eax
  801ad9:	ba 00 10 00 00       	mov    $0x1000,%edx
  801ade:	29 c2                	sub    %eax,%edx
  801ae0:	89 d0                	mov    %edx,%eax
  801ae2:	89 45 f4             	mov    %eax,-0xc(%rbp)
  801ae5:	8b 45 b4             	mov    -0x4c(%rbp),%eax
  801ae8:	48 63 d0             	movslq %eax,%rdx
  801aeb:	48 8b 45 b8          	mov    -0x48(%rbp),%rax
  801aef:	48 01 c2             	add    %rax,%rdx
  801af2:	8b 45 fc             	mov    -0x4(%rbp),%eax
  801af5:	48 98                	cltq   
  801af7:	48 29 c2             	sub    %rax,%rdx
  801afa:	48 89 d0             	mov    %rdx,%rax
  801afd:	48 89 45 e8          	mov    %rax,-0x18(%rbp)
  801b01:	8b 45 f4             	mov    -0xc(%rbp),%eax
  801b04:	48 63 d0             	movslq %eax,%rdx
  801b07:	48 8b 45 e8          	mov    -0x18(%rbp),%rax
  801b0b:	48 39 c2             	cmp    %rax,%rdx
  801b0e:	48 0f 46 c2          	cmovbe %rdx,%rax
  801b12:	89 45 e4             	mov    %eax,-0x1c(%rbp)
  801b15:	8b 45 e4             	mov    -0x1c(%rbp),%eax
  801b18:	48 63 c8             	movslq %eax,%rcx
  801b1b:	48 8b 75 d8          	mov    -0x28(%rbp),%rsi
  801b1f:	8b 45 fc             	mov    -0x4(%rbp),%eax
  801b22:	99                   	cltd   
  801b23:	c1 ea 14             	shr    $0x14,%edx
  801b26:	01 d0                	add    %edx,%eax
  801b28:	25 ff 0f 00 00       	and    $0xfff,%eax
  801b2d:	29 d0                	sub    %edx,%eax
  801b2f:	48 98                	cltq   
  801b31:	48 8d 3c 06          	lea    (%rsi,%rax,1),%rdi
  801b35:	48 8b 45 c0          	mov    -0x40(%rbp),%rax
  801b39:	48 89 ca             	mov    %rcx,%rdx
  801b3c:	48 89 c6             	mov    %rax,%rsi
  801b3f:	48 b8 4a 46 80 00 00 	movabs $0x80464a,%rax
  801b46:	00 00 00 
  801b49:	ff d0                	callq  *%rax
  801b4b:	8b 45 e4             	mov    -0x1c(%rbp),%eax
  801b4e:	01 45 fc             	add    %eax,-0x4(%rbp)
  801b51:	8b 45 e4             	mov    -0x1c(%rbp),%eax
  801b54:	48 98                	cltq   
  801b56:	48 01 45 c0          	add    %rax,-0x40(%rbp)
  801b5a:	8b 45 fc             	mov    -0x4(%rbp),%eax
  801b5d:	48 98                	cltq   
  801b5f:	8b 55 b4             	mov    -0x4c(%rbp),%edx
  801b62:	48 63 ca             	movslq %edx,%rcx
  801b65:	48 8b 55 b8          	mov    -0x48(%rbp),%rdx
  801b69:	48 01 ca             	add    %rcx,%rdx
  801b6c:	48 39 d0             	cmp    %rdx,%rax
  801b6f:	0f 82 17 ff ff ff    	jb     801a8c <file_write+0x73>
  801b75:	48 8b 45 b8          	mov    -0x48(%rbp),%rax
  801b79:	c9                   	leaveq 
  801b7a:	c3                   	retq   

0000000000801b7b <file_free_block>:
  801b7b:	55                   	push   %rbp
  801b7c:	48 89 e5             	mov    %rsp,%rbp
  801b7f:	48 83 ec 20          	sub    $0x20,%rsp
  801b83:	48 89 7d e8          	mov    %rdi,-0x18(%rbp)
  801b87:	89 75 e4             	mov    %esi,-0x1c(%rbp)
  801b8a:	48 8d 55 f0          	lea    -0x10(%rbp),%rdx
  801b8e:	8b 75 e4             	mov    -0x1c(%rbp),%esi
  801b91:	48 8b 45 e8          	mov    -0x18(%rbp),%rax
  801b95:	b9 00 00 00 00       	mov    $0x0,%ecx
  801b9a:	48 89 c7             	mov    %rax,%rdi
  801b9d:	48 b8 00 11 80 00 00 	movabs $0x801100,%rax
  801ba4:	00 00 00 
  801ba7:	ff d0                	callq  *%rax
  801ba9:	89 45 fc             	mov    %eax,-0x4(%rbp)
  801bac:	83 7d fc 00          	cmpl   $0x0,-0x4(%rbp)
  801bb0:	79 05                	jns    801bb7 <file_free_block+0x3c>
  801bb2:	8b 45 fc             	mov    -0x4(%rbp),%eax
  801bb5:	eb 2d                	jmp    801be4 <file_free_block+0x69>
  801bb7:	48 8b 45 f0          	mov    -0x10(%rbp),%rax
  801bbb:	8b 00                	mov    (%rax),%eax
  801bbd:	85 c0                	test   %eax,%eax
  801bbf:	74 1e                	je     801bdf <file_free_block+0x64>
  801bc1:	48 8b 45 f0          	mov    -0x10(%rbp),%rax
  801bc5:	8b 00                	mov    (%rax),%eax
  801bc7:	89 c7                	mov    %eax,%edi
  801bc9:	48 b8 a8 0d 80 00 00 	movabs $0x800da8,%rax
  801bd0:	00 00 00 
  801bd3:	ff d0                	callq  *%rax
  801bd5:	48 8b 45 f0          	mov    -0x10(%rbp),%rax
  801bd9:	c7 00 00 00 00 00    	movl   $0x0,(%rax)
  801bdf:	b8 00 00 00 00       	mov    $0x0,%eax
  801be4:	c9                   	leaveq 
  801be5:	c3                   	retq   

0000000000801be6 <file_truncate_blocks>:
  801be6:	55                   	push   %rbp
  801be7:	48 89 e5             	mov    %rsp,%rbp
  801bea:	48 83 ec 20          	sub    $0x20,%rsp
  801bee:	48 89 7d e8          	mov    %rdi,-0x18(%rbp)
  801bf2:	89 75 e4             	mov    %esi,-0x1c(%rbp)
  801bf5:	48 8b 45 e8          	mov    -0x18(%rbp),%rax
  801bf9:	8b 80 80 00 00 00    	mov    0x80(%rax),%eax
  801bff:	05 ff 0f 00 00       	add    $0xfff,%eax
  801c04:	8d 90 ff 0f 00 00    	lea    0xfff(%rax),%edx
  801c0a:	85 c0                	test   %eax,%eax
  801c0c:	0f 48 c2             	cmovs  %edx,%eax
  801c0f:	c1 f8 0c             	sar    $0xc,%eax
  801c12:	89 45 f8             	mov    %eax,-0x8(%rbp)
  801c15:	8b 45 e4             	mov    -0x1c(%rbp),%eax
  801c18:	05 ff 0f 00 00       	add    $0xfff,%eax
  801c1d:	8d 90 ff 0f 00 00    	lea    0xfff(%rax),%edx
  801c23:	85 c0                	test   %eax,%eax
  801c25:	0f 48 c2             	cmovs  %edx,%eax
  801c28:	c1 f8 0c             	sar    $0xc,%eax
  801c2b:	89 45 f4             	mov    %eax,-0xc(%rbp)
  801c2e:	8b 45 f4             	mov    -0xc(%rbp),%eax
  801c31:	89 45 fc             	mov    %eax,-0x4(%rbp)
  801c34:	eb 45                	jmp    801c7b <file_truncate_blocks+0x95>
  801c36:	8b 55 fc             	mov    -0x4(%rbp),%edx
  801c39:	48 8b 45 e8          	mov    -0x18(%rbp),%rax
  801c3d:	89 d6                	mov    %edx,%esi
  801c3f:	48 89 c7             	mov    %rax,%rdi
  801c42:	48 b8 7b 1b 80 00 00 	movabs $0x801b7b,%rax
  801c49:	00 00 00 
  801c4c:	ff d0                	callq  *%rax
  801c4e:	89 45 f0             	mov    %eax,-0x10(%rbp)
  801c51:	83 7d f0 00          	cmpl   $0x0,-0x10(%rbp)
  801c55:	79 20                	jns    801c77 <file_truncate_blocks+0x91>
  801c57:	8b 45 f0             	mov    -0x10(%rbp),%eax
  801c5a:	89 c6                	mov    %eax,%esi
  801c5c:	48 bf 03 79 80 00 00 	movabs $0x807903,%rdi
  801c63:	00 00 00 
  801c66:	b8 00 00 00 00       	mov    $0x0,%eax
  801c6b:	48 ba 71 37 80 00 00 	movabs $0x803771,%rdx
  801c72:	00 00 00 
  801c75:	ff d2                	callq  *%rdx
  801c77:	83 45 fc 01          	addl   $0x1,-0x4(%rbp)
  801c7b:	8b 45 fc             	mov    -0x4(%rbp),%eax
  801c7e:	3b 45 f8             	cmp    -0x8(%rbp),%eax
  801c81:	72 b3                	jb     801c36 <file_truncate_blocks+0x50>
  801c83:	83 7d f4 0a          	cmpl   $0xa,-0xc(%rbp)
  801c87:	77 34                	ja     801cbd <file_truncate_blocks+0xd7>
  801c89:	48 8b 45 e8          	mov    -0x18(%rbp),%rax
  801c8d:	8b 80 b0 00 00 00    	mov    0xb0(%rax),%eax
  801c93:	85 c0                	test   %eax,%eax
  801c95:	74 26                	je     801cbd <file_truncate_blocks+0xd7>
  801c97:	48 8b 45 e8          	mov    -0x18(%rbp),%rax
  801c9b:	8b 80 b0 00 00 00    	mov    0xb0(%rax),%eax
  801ca1:	89 c7                	mov    %eax,%edi
  801ca3:	48 b8 a8 0d 80 00 00 	movabs $0x800da8,%rax
  801caa:	00 00 00 
  801cad:	ff d0                	callq  *%rax
  801caf:	48 8b 45 e8          	mov    -0x18(%rbp),%rax
  801cb3:	c7 80 b0 00 00 00 00 	movl   $0x0,0xb0(%rax)
  801cba:	00 00 00 
  801cbd:	c9                   	leaveq 
  801cbe:	c3                   	retq   

0000000000801cbf <file_set_size>:
  801cbf:	55                   	push   %rbp
  801cc0:	48 89 e5             	mov    %rsp,%rbp
  801cc3:	48 83 ec 10          	sub    $0x10,%rsp
  801cc7:	48 89 7d f8          	mov    %rdi,-0x8(%rbp)
  801ccb:	89 75 f4             	mov    %esi,-0xc(%rbp)
  801cce:	48 8b 45 f8          	mov    -0x8(%rbp),%rax
  801cd2:	8b 80 80 00 00 00    	mov    0x80(%rax),%eax
  801cd8:	3b 45 f4             	cmp    -0xc(%rbp),%eax
  801cdb:	7e 18                	jle    801cf5 <file_set_size+0x36>
  801cdd:	8b 55 f4             	mov    -0xc(%rbp),%edx
  801ce0:	48 8b 45 f8          	mov    -0x8(%rbp),%rax
  801ce4:	89 d6                	mov    %edx,%esi
  801ce6:	48 89 c7             	mov    %rax,%rdi
  801ce9:	48 b8 e6 1b 80 00 00 	movabs $0x801be6,%rax
  801cf0:	00 00 00 
  801cf3:	ff d0                	callq  *%rax
  801cf5:	48 8b 45 f8          	mov    -0x8(%rbp),%rax
  801cf9:	8b 55 f4             	mov    -0xc(%rbp),%edx
  801cfc:	89 90 80 00 00 00    	mov    %edx,0x80(%rax)
  801d02:	48 8b 45 f8          	mov    -0x8(%rbp),%rax
  801d06:	48 89 c7             	mov    %rax,%rdi
  801d09:	48 b8 7e 08 80 00 00 	movabs $0x80087e,%rax
  801d10:	00 00 00 
  801d13:	ff d0                	callq  *%rax
  801d15:	b8 00 00 00 00       	mov    $0x0,%eax
  801d1a:	c9                   	leaveq 
  801d1b:	c3                   	retq   

0000000000801d1c <file_flush>:
  801d1c:	55                   	push   %rbp
  801d1d:	48 89 e5             	mov    %rsp,%rbp
  801d20:	48 83 ec 20          	sub    $0x20,%rsp
  801d24:	48 89 7d e8          	mov    %rdi,-0x18(%rbp)
  801d28:	c7 45 fc 00 00 00 00 	movl   $0x0,-0x4(%rbp)
  801d2f:	eb 62                	jmp    801d93 <file_flush+0x77>
  801d31:	8b 75 fc             	mov    -0x4(%rbp),%esi
  801d34:	48 8d 55 f0          	lea    -0x10(%rbp),%rdx
  801d38:	48 8b 45 e8          	mov    -0x18(%rbp),%rax
  801d3c:	b9 00 00 00 00       	mov    $0x0,%ecx
  801d41:	48 89 c7             	mov    %rax,%rdi
  801d44:	48 b8 00 11 80 00 00 	movabs $0x801100,%rax
  801d4b:	00 00 00 
  801d4e:	ff d0                	callq  *%rax
  801d50:	85 c0                	test   %eax,%eax
  801d52:	78 13                	js     801d67 <file_flush+0x4b>
  801d54:	48 8b 45 f0          	mov    -0x10(%rbp),%rax
  801d58:	48 85 c0             	test   %rax,%rax
  801d5b:	74 0a                	je     801d67 <file_flush+0x4b>
  801d5d:	48 8b 45 f0          	mov    -0x10(%rbp),%rax
  801d61:	8b 00                	mov    (%rax),%eax
  801d63:	85 c0                	test   %eax,%eax
  801d65:	75 02                	jne    801d69 <file_flush+0x4d>
  801d67:	eb 26                	jmp    801d8f <file_flush+0x73>
  801d69:	48 8b 45 f0          	mov    -0x10(%rbp),%rax
  801d6d:	8b 00                	mov    (%rax),%eax
  801d6f:	89 c0                	mov    %eax,%eax
  801d71:	48 89 c7             	mov    %rax,%rdi
  801d74:	48 b8 a3 04 80 00 00 	movabs $0x8004a3,%rax
  801d7b:	00 00 00 
  801d7e:	ff d0                	callq  *%rax
  801d80:	48 89 c7             	mov    %rax,%rdi
  801d83:	48 b8 7e 08 80 00 00 	movabs $0x80087e,%rax
  801d8a:	00 00 00 
  801d8d:	ff d0                	callq  *%rax
  801d8f:	83 45 fc 01          	addl   $0x1,-0x4(%rbp)
  801d93:	48 8b 45 e8          	mov    -0x18(%rbp),%rax
  801d97:	8b 80 80 00 00 00    	mov    0x80(%rax),%eax
  801d9d:	05 ff 0f 00 00       	add    $0xfff,%eax
  801da2:	8d 90 ff 0f 00 00    	lea    0xfff(%rax),%edx
  801da8:	85 c0                	test   %eax,%eax
  801daa:	0f 48 c2             	cmovs  %edx,%eax
  801dad:	c1 f8 0c             	sar    $0xc,%eax
  801db0:	3b 45 fc             	cmp    -0x4(%rbp),%eax
  801db3:	0f 8f 78 ff ff ff    	jg     801d31 <file_flush+0x15>
  801db9:	48 8b 45 e8          	mov    -0x18(%rbp),%rax
  801dbd:	48 89 c7             	mov    %rax,%rdi
  801dc0:	48 b8 7e 08 80 00 00 	movabs $0x80087e,%rax
  801dc7:	00 00 00 
  801dca:	ff d0                	callq  *%rax
  801dcc:	48 8b 45 e8          	mov    -0x18(%rbp),%rax
  801dd0:	8b 80 b0 00 00 00    	mov    0xb0(%rax),%eax
  801dd6:	85 c0                	test   %eax,%eax
  801dd8:	74 2a                	je     801e04 <file_flush+0xe8>
  801dda:	48 8b 45 e8          	mov    -0x18(%rbp),%rax
  801dde:	8b 80 b0 00 00 00    	mov    0xb0(%rax),%eax
  801de4:	89 c0                	mov    %eax,%eax
  801de6:	48 89 c7             	mov    %rax,%rdi
  801de9:	48 b8 a3 04 80 00 00 	movabs $0x8004a3,%rax
  801df0:	00 00 00 
  801df3:	ff d0                	callq  *%rax
  801df5:	48 89 c7             	mov    %rax,%rdi
  801df8:	48 b8 7e 08 80 00 00 	movabs $0x80087e,%rax
  801dff:	00 00 00 
  801e02:	ff d0                	callq  *%rax
  801e04:	c9                   	leaveq 
  801e05:	c3                   	retq   

0000000000801e06 <file_remove>:
  801e06:	55                   	push   %rbp
  801e07:	48 89 e5             	mov    %rsp,%rbp
  801e0a:	48 83 ec 20          	sub    $0x20,%rsp
  801e0e:	48 89 7d e8          	mov    %rdi,-0x18(%rbp)
  801e12:	48 8d 55 f0          	lea    -0x10(%rbp),%rdx
  801e16:	48 8b 45 e8          	mov    -0x18(%rbp),%rax
  801e1a:	b9 00 00 00 00       	mov    $0x0,%ecx
  801e1f:	be 00 00 00 00       	mov    $0x0,%esi
  801e24:	48 89 c7             	mov    %rax,%rdi
  801e27:	48 b8 5b 15 80 00 00 	movabs $0x80155b,%rax
  801e2e:	00 00 00 
  801e31:	ff d0                	callq  *%rax
  801e33:	89 45 fc             	mov    %eax,-0x4(%rbp)
  801e36:	83 7d fc 00          	cmpl   $0x0,-0x4(%rbp)
  801e3a:	79 05                	jns    801e41 <file_remove+0x3b>
  801e3c:	8b 45 fc             	mov    -0x4(%rbp),%eax
  801e3f:	eb 45                	jmp    801e86 <file_remove+0x80>
  801e41:	48 8b 45 f0          	mov    -0x10(%rbp),%rax
  801e45:	be 00 00 00 00       	mov    $0x0,%esi
  801e4a:	48 89 c7             	mov    %rax,%rdi
  801e4d:	48 b8 e6 1b 80 00 00 	movabs $0x801be6,%rax
  801e54:	00 00 00 
  801e57:	ff d0                	callq  *%rax
  801e59:	48 8b 45 f0          	mov    -0x10(%rbp),%rax
  801e5d:	c6 00 00             	movb   $0x0,(%rax)
  801e60:	48 8b 45 f0          	mov    -0x10(%rbp),%rax
  801e64:	c7 80 80 00 00 00 00 	movl   $0x0,0x80(%rax)
  801e6b:	00 00 00 
  801e6e:	48 8b 45 f0          	mov    -0x10(%rbp),%rax
  801e72:	48 89 c7             	mov    %rax,%rdi
  801e75:	48 b8 7e 08 80 00 00 	movabs $0x80087e,%rax
  801e7c:	00 00 00 
  801e7f:	ff d0                	callq  *%rax
  801e81:	b8 00 00 00 00       	mov    $0x0,%eax
  801e86:	c9                   	leaveq 
  801e87:	c3                   	retq   

0000000000801e88 <fs_sync>:
  801e88:	55                   	push   %rbp
  801e89:	48 89 e5             	mov    %rsp,%rbp
  801e8c:	48 83 ec 10          	sub    $0x10,%rsp
  801e90:	c7 45 fc 01 00 00 00 	movl   $0x1,-0x4(%rbp)
  801e97:	eb 27                	jmp    801ec0 <fs_sync+0x38>
  801e99:	8b 45 fc             	mov    -0x4(%rbp),%eax
  801e9c:	48 98                	cltq   
  801e9e:	48 89 c7             	mov    %rax,%rdi
  801ea1:	48 b8 a3 04 80 00 00 	movabs $0x8004a3,%rax
  801ea8:	00 00 00 
  801eab:	ff d0                	callq  *%rax
  801ead:	48 89 c7             	mov    %rax,%rdi
  801eb0:	48 b8 7e 08 80 00 00 	movabs $0x80087e,%rax
  801eb7:	00 00 00 
  801eba:	ff d0                	callq  *%rax
  801ebc:	83 45 fc 01          	addl   $0x1,-0x4(%rbp)
  801ec0:	8b 55 fc             	mov    -0x4(%rbp),%edx
  801ec3:	48 b8 18 60 81 00 00 	movabs $0x816018,%rax
  801eca:	00 00 00 
  801ecd:	48 8b 00             	mov    (%rax),%rax
  801ed0:	8b 40 04             	mov    0x4(%rax),%eax
  801ed3:	39 c2                	cmp    %eax,%edx
  801ed5:	72 c2                	jb     801e99 <fs_sync+0x11>
  801ed7:	c9                   	leaveq 
  801ed8:	c3                   	retq   

0000000000801ed9 <serve_init>:
  801ed9:	55                   	push   %rbp
  801eda:	48 89 e5             	mov    %rsp,%rbp
  801edd:	48 83 ec 10          	sub    $0x10,%rsp
  801ee1:	b8 00 00 00 d0       	mov    $0xd0000000,%eax
  801ee6:	48 89 45 f0          	mov    %rax,-0x10(%rbp)
  801eea:	c7 45 fc 00 00 00 00 	movl   $0x0,-0x4(%rbp)
  801ef1:	eb 4b                	jmp    801f3e <serve_init+0x65>
  801ef3:	8b 45 fc             	mov    -0x4(%rbp),%eax
  801ef6:	48 ba 20 a0 80 00 00 	movabs $0x80a020,%rdx
  801efd:	00 00 00 
  801f00:	8b 4d fc             	mov    -0x4(%rbp),%ecx
  801f03:	48 63 c9             	movslq %ecx,%rcx
  801f06:	48 c1 e1 05          	shl    $0x5,%rcx
  801f0a:	48 01 ca             	add    %rcx,%rdx
  801f0d:	89 02                	mov    %eax,(%rdx)
  801f0f:	48 8b 45 f0          	mov    -0x10(%rbp),%rax
  801f13:	48 ba 20 a0 80 00 00 	movabs $0x80a020,%rdx
  801f1a:	00 00 00 
  801f1d:	8b 4d fc             	mov    -0x4(%rbp),%ecx
  801f20:	48 63 c9             	movslq %ecx,%rcx
  801f23:	48 c1 e1 05          	shl    $0x5,%rcx
  801f27:	48 01 ca             	add    %rcx,%rdx
  801f2a:	48 83 c2 10          	add    $0x10,%rdx
  801f2e:	48 89 42 08          	mov    %rax,0x8(%rdx)
  801f32:	48 81 45 f0 00 10 00 	addq   $0x1000,-0x10(%rbp)
  801f39:	00 
  801f3a:	83 45 fc 01          	addl   $0x1,-0x4(%rbp)
  801f3e:	81 7d fc ff 03 00 00 	cmpl   $0x3ff,-0x4(%rbp)
  801f45:	7e ac                	jle    801ef3 <serve_init+0x1a>
  801f47:	c9                   	leaveq 
  801f48:	c3                   	retq   

0000000000801f49 <openfile_alloc>:
  801f49:	55                   	push   %rbp
  801f4a:	48 89 e5             	mov    %rsp,%rbp
  801f4d:	53                   	push   %rbx
  801f4e:	48 83 ec 28          	sub    $0x28,%rsp
  801f52:	48 89 7d d8          	mov    %rdi,-0x28(%rbp)
  801f56:	c7 45 ec 00 00 00 00 	movl   $0x0,-0x14(%rbp)
  801f5d:	e9 02 02 00 00       	jmpq   802164 <openfile_alloc+0x21b>
  801f62:	48 b8 20 a0 80 00 00 	movabs $0x80a020,%rax
  801f69:	00 00 00 
  801f6c:	8b 55 ec             	mov    -0x14(%rbp),%edx
  801f6f:	48 63 d2             	movslq %edx,%rdx
  801f72:	48 c1 e2 05          	shl    $0x5,%rdx
  801f76:	48 01 d0             	add    %rdx,%rax
  801f79:	48 83 c0 10          	add    $0x10,%rax
  801f7d:	48 8b 40 08          	mov    0x8(%rax),%rax
  801f81:	48 89 c7             	mov    %rax,%rdi
  801f84:	48 b8 ec 64 80 00 00 	movabs $0x8064ec,%rax
  801f8b:	00 00 00 
  801f8e:	ff d0                	callq  *%rax
  801f90:	85 c0                	test   %eax,%eax
  801f92:	74 0e                	je     801fa2 <openfile_alloc+0x59>
  801f94:	83 f8 01             	cmp    $0x1,%eax
  801f97:	0f 84 ec 00 00 00    	je     802089 <openfile_alloc+0x140>
  801f9d:	e9 be 01 00 00       	jmpq   802160 <openfile_alloc+0x217>
  801fa2:	48 b8 20 a0 80 00 00 	movabs $0x80a020,%rax
  801fa9:	00 00 00 
  801fac:	8b 55 ec             	mov    -0x14(%rbp),%edx
  801faf:	48 63 d2             	movslq %edx,%rdx
  801fb2:	48 c1 e2 05          	shl    $0x5,%rdx
  801fb6:	48 01 d0             	add    %rdx,%rax
  801fb9:	48 83 c0 10          	add    $0x10,%rax
  801fbd:	48 8b 40 08          	mov    0x8(%rax),%rax
  801fc1:	ba 07 00 00 00       	mov    $0x7,%edx
  801fc6:	48 89 c6             	mov    %rax,%rsi
  801fc9:	bf 00 00 00 00       	mov    $0x0,%edi
  801fce:	48 b8 55 4c 80 00 00 	movabs $0x804c55,%rax
  801fd5:	00 00 00 
  801fd8:	ff d0                	callq  *%rax
  801fda:	89 45 e8             	mov    %eax,-0x18(%rbp)
  801fdd:	83 7d e8 00          	cmpl   $0x0,-0x18(%rbp)
  801fe1:	79 08                	jns    801feb <openfile_alloc+0xa2>
  801fe3:	8b 45 e8             	mov    -0x18(%rbp),%eax
  801fe6:	e9 8b 01 00 00       	jmpq   802176 <openfile_alloc+0x22d>
  801feb:	48 b8 20 a0 80 00 00 	movabs $0x80a020,%rax
  801ff2:	00 00 00 
  801ff5:	8b 55 ec             	mov    -0x14(%rbp),%edx
  801ff8:	48 63 d2             	movslq %edx,%rdx
  801ffb:	48 c1 e2 05          	shl    $0x5,%rdx
  801fff:	48 01 d0             	add    %rdx,%rax
  802002:	8b 00                	mov    (%rax),%eax
  802004:	8d 90 00 04 00 00    	lea    0x400(%rax),%edx
  80200a:	48 b8 20 a0 80 00 00 	movabs $0x80a020,%rax
  802011:	00 00 00 
  802014:	8b 4d ec             	mov    -0x14(%rbp),%ecx
  802017:	48 63 c9             	movslq %ecx,%rcx
  80201a:	48 c1 e1 05          	shl    $0x5,%rcx
  80201e:	48 01 c8             	add    %rcx,%rax
  802021:	89 10                	mov    %edx,(%rax)
  802023:	8b 45 ec             	mov    -0x14(%rbp),%eax
  802026:	48 98                	cltq   
  802028:	48 c1 e0 05          	shl    $0x5,%rax
  80202c:	48 89 c2             	mov    %rax,%rdx
  80202f:	48 b8 20 a0 80 00 00 	movabs $0x80a020,%rax
  802036:	00 00 00 
  802039:	48 01 c2             	add    %rax,%rdx
  80203c:	48 8b 45 d8          	mov    -0x28(%rbp),%rax
  802040:	48 89 10             	mov    %rdx,(%rax)
  802043:	48 b8 20 a0 80 00 00 	movabs $0x80a020,%rax
  80204a:	00 00 00 
  80204d:	8b 55 ec             	mov    -0x14(%rbp),%edx
  802050:	48 63 d2             	movslq %edx,%rdx
  802053:	48 c1 e2 05          	shl    $0x5,%rdx
  802057:	48 01 d0             	add    %rdx,%rax
  80205a:	48 83 c0 10          	add    $0x10,%rax
  80205e:	48 8b 40 08          	mov    0x8(%rax),%rax
  802062:	ba 00 10 00 00       	mov    $0x1000,%edx
  802067:	be 00 00 00 00       	mov    $0x0,%esi
  80206c:	48 89 c7             	mov    %rax,%rdi
  80206f:	48 b8 bf 45 80 00 00 	movabs $0x8045bf,%rax
  802076:	00 00 00 
  802079:	ff d0                	callq  *%rax
  80207b:	48 8b 45 d8          	mov    -0x28(%rbp),%rax
  80207f:	48 8b 00             	mov    (%rax),%rax
  802082:	8b 00                	mov    (%rax),%eax
  802084:	e9 ed 00 00 00       	jmpq   802176 <openfile_alloc+0x22d>
  802089:	48 b8 20 a0 80 00 00 	movabs $0x80a020,%rax
  802090:	00 00 00 
  802093:	8b 55 ec             	mov    -0x14(%rbp),%edx
  802096:	48 63 d2             	movslq %edx,%rdx
  802099:	48 c1 e2 05          	shl    $0x5,%rdx
  80209d:	48 01 d0             	add    %rdx,%rax
  8020a0:	48 83 c0 10          	add    $0x10,%rax
  8020a4:	48 8b 40 08          	mov    0x8(%rax),%rax
  8020a8:	48 89 c3             	mov    %rax,%rbx
  8020ab:	b8 00 00 00 00       	mov    $0x0,%eax
  8020b0:	48 ba 61 31 80 00 00 	movabs $0x803161,%rdx
  8020b7:	00 00 00 
  8020ba:	ff d2                	callq  *%rdx
  8020bc:	48 39 c3             	cmp    %rax,%rbx
  8020bf:	0f 84 9b 00 00 00    	je     802160 <openfile_alloc+0x217>
  8020c5:	48 b8 20 a0 80 00 00 	movabs $0x80a020,%rax
  8020cc:	00 00 00 
  8020cf:	8b 55 ec             	mov    -0x14(%rbp),%edx
  8020d2:	48 63 d2             	movslq %edx,%rdx
  8020d5:	48 c1 e2 05          	shl    $0x5,%rdx
  8020d9:	48 01 d0             	add    %rdx,%rax
  8020dc:	8b 00                	mov    (%rax),%eax
  8020de:	8d 90 00 04 00 00    	lea    0x400(%rax),%edx
  8020e4:	48 b8 20 a0 80 00 00 	movabs $0x80a020,%rax
  8020eb:	00 00 00 
  8020ee:	8b 4d ec             	mov    -0x14(%rbp),%ecx
  8020f1:	48 63 c9             	movslq %ecx,%rcx
  8020f4:	48 c1 e1 05          	shl    $0x5,%rcx
  8020f8:	48 01 c8             	add    %rcx,%rax
  8020fb:	89 10                	mov    %edx,(%rax)
  8020fd:	8b 45 ec             	mov    -0x14(%rbp),%eax
  802100:	48 98                	cltq   
  802102:	48 c1 e0 05          	shl    $0x5,%rax
  802106:	48 89 c2             	mov    %rax,%rdx
  802109:	48 b8 20 a0 80 00 00 	movabs $0x80a020,%rax
  802110:	00 00 00 
  802113:	48 01 c2             	add    %rax,%rdx
  802116:	48 8b 45 d8          	mov    -0x28(%rbp),%rax
  80211a:	48 89 10             	mov    %rdx,(%rax)
  80211d:	48 b8 20 a0 80 00 00 	movabs $0x80a020,%rax
  802124:	00 00 00 
  802127:	8b 55 ec             	mov    -0x14(%rbp),%edx
  80212a:	48 63 d2             	movslq %edx,%rdx
  80212d:	48 c1 e2 05          	shl    $0x5,%rdx
  802131:	48 01 d0             	add    %rdx,%rax
  802134:	48 83 c0 10          	add    $0x10,%rax
  802138:	48 8b 40 08          	mov    0x8(%rax),%rax
  80213c:	ba 00 10 00 00       	mov    $0x1000,%edx
  802141:	be 00 00 00 00       	mov    $0x0,%esi
  802146:	48 89 c7             	mov    %rax,%rdi
  802149:	48 b8 bf 45 80 00 00 	movabs $0x8045bf,%rax
  802150:	00 00 00 
  802153:	ff d0                	callq  *%rax
  802155:	48 8b 45 d8          	mov    -0x28(%rbp),%rax
  802159:	48 8b 00             	mov    (%rax),%rax
  80215c:	8b 00                	mov    (%rax),%eax
  80215e:	eb 16                	jmp    802176 <openfile_alloc+0x22d>
  802160:	83 45 ec 01          	addl   $0x1,-0x14(%rbp)
  802164:	81 7d ec ff 03 00 00 	cmpl   $0x3ff,-0x14(%rbp)
  80216b:	0f 8e f1 fd ff ff    	jle    801f62 <openfile_alloc+0x19>
  802171:	b8 f5 ff ff ff       	mov    $0xfffffff5,%eax
  802176:	48 83 c4 28          	add    $0x28,%rsp
  80217a:	5b                   	pop    %rbx
  80217b:	5d                   	pop    %rbp
  80217c:	c3                   	retq   

000000000080217d <openfile_lookup>:
  80217d:	55                   	push   %rbp
  80217e:	48 89 e5             	mov    %rsp,%rbp
  802181:	48 83 ec 20          	sub    $0x20,%rsp
  802185:	89 7d ec             	mov    %edi,-0x14(%rbp)
  802188:	89 75 e8             	mov    %esi,-0x18(%rbp)
  80218b:	48 89 55 e0          	mov    %rdx,-0x20(%rbp)
  80218f:	8b 45 e8             	mov    -0x18(%rbp),%eax
  802192:	25 ff 03 00 00       	and    $0x3ff,%eax
  802197:	89 c0                	mov    %eax,%eax
  802199:	48 c1 e0 05          	shl    $0x5,%rax
  80219d:	48 89 c2             	mov    %rax,%rdx
  8021a0:	48 b8 20 a0 80 00 00 	movabs $0x80a020,%rax
  8021a7:	00 00 00 
  8021aa:	48 01 d0             	add    %rdx,%rax
  8021ad:	48 89 45 f8          	mov    %rax,-0x8(%rbp)
  8021b1:	48 8b 45 f8          	mov    -0x8(%rbp),%rax
  8021b5:	48 8b 40 18          	mov    0x18(%rax),%rax
  8021b9:	48 89 c7             	mov    %rax,%rdi
  8021bc:	48 b8 ec 64 80 00 00 	movabs $0x8064ec,%rax
  8021c3:	00 00 00 
  8021c6:	ff d0                	callq  *%rax
  8021c8:	83 f8 01             	cmp    $0x1,%eax
  8021cb:	74 0b                	je     8021d8 <openfile_lookup+0x5b>
  8021cd:	48 8b 45 f8          	mov    -0x8(%rbp),%rax
  8021d1:	8b 00                	mov    (%rax),%eax
  8021d3:	3b 45 e8             	cmp    -0x18(%rbp),%eax
  8021d6:	74 07                	je     8021df <openfile_lookup+0x62>
  8021d8:	b8 fd ff ff ff       	mov    $0xfffffffd,%eax
  8021dd:	eb 10                	jmp    8021ef <openfile_lookup+0x72>
  8021df:	48 8b 45 e0          	mov    -0x20(%rbp),%rax
  8021e3:	48 8b 55 f8          	mov    -0x8(%rbp),%rdx
  8021e7:	48 89 10             	mov    %rdx,(%rax)
  8021ea:	b8 00 00 00 00       	mov    $0x0,%eax
  8021ef:	c9                   	leaveq 
  8021f0:	c3                   	retq   

00000000008021f1 <serve_open>:
  8021f1:	55                   	push   %rbp
  8021f2:	48 89 e5             	mov    %rsp,%rbp
  8021f5:	48 81 ec 40 04 00 00 	sub    $0x440,%rsp
  8021fc:	89 bd dc fb ff ff    	mov    %edi,-0x424(%rbp)
  802202:	48 89 b5 d0 fb ff ff 	mov    %rsi,-0x430(%rbp)
  802209:	48 89 95 c8 fb ff ff 	mov    %rdx,-0x438(%rbp)
  802210:	48 89 8d c0 fb ff ff 	mov    %rcx,-0x440(%rbp)
  802217:	48 8b 8d d0 fb ff ff 	mov    -0x430(%rbp),%rcx
  80221e:	48 8d 85 f0 fb ff ff 	lea    -0x410(%rbp),%rax
  802225:	ba 00 04 00 00       	mov    $0x400,%edx
  80222a:	48 89 ce             	mov    %rcx,%rsi
  80222d:	48 89 c7             	mov    %rax,%rdi
  802230:	48 b8 4a 46 80 00 00 	movabs $0x80464a,%rax
  802237:	00 00 00 
  80223a:	ff d0                	callq  *%rax
  80223c:	c6 45 ef 00          	movb   $0x0,-0x11(%rbp)
  802240:	48 8d 85 e0 fb ff ff 	lea    -0x420(%rbp),%rax
  802247:	48 89 c7             	mov    %rax,%rdi
  80224a:	48 b8 49 1f 80 00 00 	movabs $0x801f49,%rax
  802251:	00 00 00 
  802254:	ff d0                	callq  *%rax
  802256:	89 45 fc             	mov    %eax,-0x4(%rbp)
  802259:	83 7d fc 00          	cmpl   $0x0,-0x4(%rbp)
  80225d:	79 08                	jns    802267 <serve_open+0x76>
  80225f:	8b 45 fc             	mov    -0x4(%rbp),%eax
  802262:	e9 7c 01 00 00       	jmpq   8023e3 <serve_open+0x1f2>
  802267:	8b 45 fc             	mov    -0x4(%rbp),%eax
  80226a:	89 45 f8             	mov    %eax,-0x8(%rbp)
  80226d:	48 8b 85 d0 fb ff ff 	mov    -0x430(%rbp),%rax
  802274:	8b 80 00 04 00 00    	mov    0x400(%rax),%eax
  80227a:	25 00 01 00 00       	and    $0x100,%eax
  80227f:	85 c0                	test   %eax,%eax
  802281:	74 4f                	je     8022d2 <serve_open+0xe1>
  802283:	48 8d 95 e8 fb ff ff 	lea    -0x418(%rbp),%rdx
  80228a:	48 8d 85 f0 fb ff ff 	lea    -0x410(%rbp),%rax
  802291:	48 89 d6             	mov    %rdx,%rsi
  802294:	48 89 c7             	mov    %rax,%rdi
  802297:	48 b8 a6 17 80 00 00 	movabs $0x8017a6,%rax
  80229e:	00 00 00 
  8022a1:	ff d0                	callq  *%rax
  8022a3:	89 45 fc             	mov    %eax,-0x4(%rbp)
  8022a6:	83 7d fc 00          	cmpl   $0x0,-0x4(%rbp)
  8022aa:	79 57                	jns    802303 <serve_open+0x112>
  8022ac:	48 8b 85 d0 fb ff ff 	mov    -0x430(%rbp),%rax
  8022b3:	8b 80 00 04 00 00    	mov    0x400(%rax),%eax
  8022b9:	25 00 04 00 00       	and    $0x400,%eax
  8022be:	85 c0                	test   %eax,%eax
  8022c0:	75 08                	jne    8022ca <serve_open+0xd9>
  8022c2:	83 7d fc f2          	cmpl   $0xfffffff2,-0x4(%rbp)
  8022c6:	75 02                	jne    8022ca <serve_open+0xd9>
  8022c8:	eb 08                	jmp    8022d2 <serve_open+0xe1>
  8022ca:	8b 45 fc             	mov    -0x4(%rbp),%eax
  8022cd:	e9 11 01 00 00       	jmpq   8023e3 <serve_open+0x1f2>
  8022d2:	48 8d 95 e8 fb ff ff 	lea    -0x418(%rbp),%rdx
  8022d9:	48 8d 85 f0 fb ff ff 	lea    -0x410(%rbp),%rax
  8022e0:	48 89 d6             	mov    %rdx,%rsi
  8022e3:	48 89 c7             	mov    %rax,%rdi
  8022e6:	48 b8 90 18 80 00 00 	movabs $0x801890,%rax
  8022ed:	00 00 00 
  8022f0:	ff d0                	callq  *%rax
  8022f2:	89 45 fc             	mov    %eax,-0x4(%rbp)
  8022f5:	83 7d fc 00          	cmpl   $0x0,-0x4(%rbp)
  8022f9:	79 08                	jns    802303 <serve_open+0x112>
  8022fb:	8b 45 fc             	mov    -0x4(%rbp),%eax
  8022fe:	e9 e0 00 00 00       	jmpq   8023e3 <serve_open+0x1f2>
  802303:	48 8b 85 d0 fb ff ff 	mov    -0x430(%rbp),%rax
  80230a:	8b 80 00 04 00 00    	mov    0x400(%rax),%eax
  802310:	25 00 02 00 00       	and    $0x200,%eax
  802315:	85 c0                	test   %eax,%eax
  802317:	74 2c                	je     802345 <serve_open+0x154>
  802319:	48 8b 85 e8 fb ff ff 	mov    -0x418(%rbp),%rax
  802320:	be 00 00 00 00       	mov    $0x0,%esi
  802325:	48 89 c7             	mov    %rax,%rdi
  802328:	48 b8 bf 1c 80 00 00 	movabs $0x801cbf,%rax
  80232f:	00 00 00 
  802332:	ff d0                	callq  *%rax
  802334:	89 45 fc             	mov    %eax,-0x4(%rbp)
  802337:	83 7d fc 00          	cmpl   $0x0,-0x4(%rbp)
  80233b:	79 08                	jns    802345 <serve_open+0x154>
  80233d:	8b 45 fc             	mov    -0x4(%rbp),%eax
  802340:	e9 9e 00 00 00       	jmpq   8023e3 <serve_open+0x1f2>
  802345:	48 8b 85 e0 fb ff ff 	mov    -0x420(%rbp),%rax
  80234c:	48 8b 95 e8 fb ff ff 	mov    -0x418(%rbp),%rdx
  802353:	48 89 50 08          	mov    %rdx,0x8(%rax)
  802357:	48 8b 85 e0 fb ff ff 	mov    -0x420(%rbp),%rax
  80235e:	48 8b 40 18          	mov    0x18(%rax),%rax
  802362:	48 8b 95 e0 fb ff ff 	mov    -0x420(%rbp),%rdx
  802369:	8b 12                	mov    (%rdx),%edx
  80236b:	89 50 0c             	mov    %edx,0xc(%rax)
  80236e:	48 8b 85 e0 fb ff ff 	mov    -0x420(%rbp),%rax
  802375:	48 8b 40 18          	mov    0x18(%rax),%rax
  802379:	48 8b 95 d0 fb ff ff 	mov    -0x430(%rbp),%rdx
  802380:	8b 92 00 04 00 00    	mov    0x400(%rdx),%edx
  802386:	83 e2 03             	and    $0x3,%edx
  802389:	89 50 08             	mov    %edx,0x8(%rax)
  80238c:	48 8b 85 e0 fb ff ff 	mov    -0x420(%rbp),%rax
  802393:	48 8b 40 18          	mov    0x18(%rax),%rax
  802397:	48 ba e0 20 81 00 00 	movabs $0x8120e0,%rdx
  80239e:	00 00 00 
  8023a1:	8b 12                	mov    (%rdx),%edx
  8023a3:	89 10                	mov    %edx,(%rax)
  8023a5:	48 8b 85 e0 fb ff ff 	mov    -0x420(%rbp),%rax
  8023ac:	48 8b 95 d0 fb ff ff 	mov    -0x430(%rbp),%rdx
  8023b3:	8b 92 00 04 00 00    	mov    0x400(%rdx),%edx
  8023b9:	89 50 10             	mov    %edx,0x10(%rax)
  8023bc:	48 8b 85 e0 fb ff ff 	mov    -0x420(%rbp),%rax
  8023c3:	48 8b 50 18          	mov    0x18(%rax),%rdx
  8023c7:	48 8b 85 c8 fb ff ff 	mov    -0x438(%rbp),%rax
  8023ce:	48 89 10             	mov    %rdx,(%rax)
  8023d1:	48 8b 85 c0 fb ff ff 	mov    -0x440(%rbp),%rax
  8023d8:	c7 00 07 04 00 00    	movl   $0x407,(%rax)
  8023de:	b8 00 00 00 00       	mov    $0x0,%eax
  8023e3:	c9                   	leaveq 
  8023e4:	c3                   	retq   

00000000008023e5 <serve_set_size>:
  8023e5:	55                   	push   %rbp
  8023e6:	48 89 e5             	mov    %rsp,%rbp
  8023e9:	48 83 ec 20          	sub    $0x20,%rsp
  8023ed:	89 7d ec             	mov    %edi,-0x14(%rbp)
  8023f0:	48 89 75 e0          	mov    %rsi,-0x20(%rbp)
  8023f4:	48 8b 45 e0          	mov    -0x20(%rbp),%rax
  8023f8:	8b 00                	mov    (%rax),%eax
  8023fa:	89 c1                	mov    %eax,%ecx
  8023fc:	48 8d 55 f0          	lea    -0x10(%rbp),%rdx
  802400:	8b 45 ec             	mov    -0x14(%rbp),%eax
  802403:	89 ce                	mov    %ecx,%esi
  802405:	89 c7                	mov    %eax,%edi
  802407:	48 b8 7d 21 80 00 00 	movabs $0x80217d,%rax
  80240e:	00 00 00 
  802411:	ff d0                	callq  *%rax
  802413:	89 45 fc             	mov    %eax,-0x4(%rbp)
  802416:	83 7d fc 00          	cmpl   $0x0,-0x4(%rbp)
  80241a:	79 05                	jns    802421 <serve_set_size+0x3c>
  80241c:	8b 45 fc             	mov    -0x4(%rbp),%eax
  80241f:	eb 20                	jmp    802441 <serve_set_size+0x5c>
  802421:	48 8b 45 e0          	mov    -0x20(%rbp),%rax
  802425:	8b 50 04             	mov    0x4(%rax),%edx
  802428:	48 8b 45 f0          	mov    -0x10(%rbp),%rax
  80242c:	48 8b 40 08          	mov    0x8(%rax),%rax
  802430:	89 d6                	mov    %edx,%esi
  802432:	48 89 c7             	mov    %rax,%rdi
  802435:	48 b8 bf 1c 80 00 00 	movabs $0x801cbf,%rax
  80243c:	00 00 00 
  80243f:	ff d0                	callq  *%rax
  802441:	c9                   	leaveq 
  802442:	c3                   	retq   

0000000000802443 <serve_read>:
  802443:	55                   	push   %rbp
  802444:	48 89 e5             	mov    %rsp,%rbp
  802447:	48 83 ec 40          	sub    $0x40,%rsp
  80244b:	89 7d cc             	mov    %edi,-0x34(%rbp)
  80244e:	48 89 75 c0          	mov    %rsi,-0x40(%rbp)
  802452:	48 8b 45 c0          	mov    -0x40(%rbp),%rax
  802456:	48 89 45 f8          	mov    %rax,-0x8(%rbp)
  80245a:	48 8b 45 c0          	mov    -0x40(%rbp),%rax
  80245e:	48 89 45 f0          	mov    %rax,-0x10(%rbp)
  802462:	48 8b 45 f8          	mov    -0x8(%rbp),%rax
  802466:	8b 00                	mov    (%rax),%eax
  802468:	89 c1                	mov    %eax,%ecx
  80246a:	48 8d 55 d0          	lea    -0x30(%rbp),%rdx
  80246e:	8b 45 cc             	mov    -0x34(%rbp),%eax
  802471:	89 ce                	mov    %ecx,%esi
  802473:	89 c7                	mov    %eax,%edi
  802475:	48 b8 7d 21 80 00 00 	movabs $0x80217d,%rax
  80247c:	00 00 00 
  80247f:	ff d0                	callq  *%rax
  802481:	89 45 ec             	mov    %eax,-0x14(%rbp)
  802484:	83 7d ec 00          	cmpl   $0x0,-0x14(%rbp)
  802488:	79 05                	jns    80248f <serve_read+0x4c>
  80248a:	8b 45 ec             	mov    -0x14(%rbp),%eax
  80248d:	eb 76                	jmp    802505 <serve_read+0xc2>
  80248f:	48 8b 45 d0          	mov    -0x30(%rbp),%rax
  802493:	48 8b 40 18          	mov    0x18(%rax),%rax
  802497:	8b 48 04             	mov    0x4(%rax),%ecx
  80249a:	48 8b 45 f8          	mov    -0x8(%rbp),%rax
  80249e:	48 8b 40 08          	mov    0x8(%rax),%rax
  8024a2:	48 89 45 e0          	mov    %rax,-0x20(%rbp)
  8024a6:	48 c7 45 d8 00 10 00 	movq   $0x1000,-0x28(%rbp)
  8024ad:	00 
  8024ae:	48 8b 45 d8          	mov    -0x28(%rbp),%rax
  8024b2:	48 39 45 e0          	cmp    %rax,-0x20(%rbp)
  8024b6:	48 0f 46 45 e0       	cmovbe -0x20(%rbp),%rax
  8024bb:	48 89 c2             	mov    %rax,%rdx
  8024be:	48 8b 75 f0          	mov    -0x10(%rbp),%rsi
  8024c2:	48 8b 45 d0          	mov    -0x30(%rbp),%rax
  8024c6:	48 8b 40 08          	mov    0x8(%rax),%rax
  8024ca:	48 89 c7             	mov    %rax,%rdi
  8024cd:	48 b8 c3 18 80 00 00 	movabs $0x8018c3,%rax
  8024d4:	00 00 00 
  8024d7:	ff d0                	callq  *%rax
  8024d9:	89 45 ec             	mov    %eax,-0x14(%rbp)
  8024dc:	83 7d ec 00          	cmpl   $0x0,-0x14(%rbp)
  8024e0:	79 05                	jns    8024e7 <serve_read+0xa4>
  8024e2:	8b 45 ec             	mov    -0x14(%rbp),%eax
  8024e5:	eb 1e                	jmp    802505 <serve_read+0xc2>
  8024e7:	48 8b 45 d0          	mov    -0x30(%rbp),%rax
  8024eb:	48 8b 40 18          	mov    0x18(%rax),%rax
  8024ef:	48 8b 55 d0          	mov    -0x30(%rbp),%rdx
  8024f3:	48 8b 52 18          	mov    0x18(%rdx),%rdx
  8024f7:	8b 4a 04             	mov    0x4(%rdx),%ecx
  8024fa:	8b 55 ec             	mov    -0x14(%rbp),%edx
  8024fd:	01 ca                	add    %ecx,%edx
  8024ff:	89 50 04             	mov    %edx,0x4(%rax)
  802502:	8b 45 ec             	mov    -0x14(%rbp),%eax
  802505:	c9                   	leaveq 
  802506:	c3                   	retq   

0000000000802507 <serve_write>:
  802507:	55                   	push   %rbp
  802508:	48 89 e5             	mov    %rsp,%rbp
  80250b:	48 83 ec 20          	sub    $0x20,%rsp
  80250f:	89 7d ec             	mov    %edi,-0x14(%rbp)
  802512:	48 89 75 e0          	mov    %rsi,-0x20(%rbp)
  802516:	48 8b 45 e0          	mov    -0x20(%rbp),%rax
  80251a:	8b 00                	mov    (%rax),%eax
  80251c:	89 c1                	mov    %eax,%ecx
  80251e:	48 8d 55 f0          	lea    -0x10(%rbp),%rdx
  802522:	8b 45 ec             	mov    -0x14(%rbp),%eax
  802525:	89 ce                	mov    %ecx,%esi
  802527:	89 c7                	mov    %eax,%edi
  802529:	48 b8 7d 21 80 00 00 	movabs $0x80217d,%rax
  802530:	00 00 00 
  802533:	ff d0                	callq  *%rax
  802535:	89 45 fc             	mov    %eax,-0x4(%rbp)
  802538:	83 7d fc 00          	cmpl   $0x0,-0x4(%rbp)
  80253c:	79 05                	jns    802543 <serve_write+0x3c>
  80253e:	8b 45 fc             	mov    -0x4(%rbp),%eax
  802541:	eb 75                	jmp    8025b8 <serve_write+0xb1>
  802543:	48 8b 45 e0          	mov    -0x20(%rbp),%rax
  802547:	48 8b 40 08          	mov    0x8(%rax),%rax
  80254b:	48 3d f4 0f 00 00    	cmp    $0xff4,%rax
  802551:	76 07                	jbe    80255a <serve_write+0x53>
  802553:	b8 fd ff ff ff       	mov    $0xfffffffd,%eax
  802558:	eb 5e                	jmp    8025b8 <serve_write+0xb1>
  80255a:	48 8b 45 f0          	mov    -0x10(%rbp),%rax
  80255e:	48 8b 40 18          	mov    0x18(%rax),%rax
  802562:	8b 48 04             	mov    0x4(%rax),%ecx
  802565:	48 8b 45 e0          	mov    -0x20(%rbp),%rax
  802569:	48 8b 50 08          	mov    0x8(%rax),%rdx
  80256d:	48 8b 45 e0          	mov    -0x20(%rbp),%rax
  802571:	48 8d 70 10          	lea    0x10(%rax),%rsi
  802575:	48 8b 45 f0          	mov    -0x10(%rbp),%rax
  802579:	48 8b 40 08          	mov    0x8(%rax),%rax
  80257d:	48 89 c7             	mov    %rax,%rdi
  802580:	48 b8 19 1a 80 00 00 	movabs $0x801a19,%rax
  802587:	00 00 00 
  80258a:	ff d0                	callq  *%rax
  80258c:	89 45 fc             	mov    %eax,-0x4(%rbp)
  80258f:	83 7d fc 00          	cmpl   $0x0,-0x4(%rbp)
  802593:	79 05                	jns    80259a <serve_write+0x93>
  802595:	8b 45 fc             	mov    -0x4(%rbp),%eax
  802598:	eb 1e                	jmp    8025b8 <serve_write+0xb1>
  80259a:	48 8b 45 f0          	mov    -0x10(%rbp),%rax
  80259e:	48 8b 40 18          	mov    0x18(%rax),%rax
  8025a2:	48 8b 55 f0          	mov    -0x10(%rbp),%rdx
  8025a6:	48 8b 52 18          	mov    0x18(%rdx),%rdx
  8025aa:	8b 4a 04             	mov    0x4(%rdx),%ecx
  8025ad:	8b 55 fc             	mov    -0x4(%rbp),%edx
  8025b0:	01 ca                	add    %ecx,%edx
  8025b2:	89 50 04             	mov    %edx,0x4(%rax)
  8025b5:	8b 45 fc             	mov    -0x4(%rbp),%eax
  8025b8:	c9                   	leaveq 
  8025b9:	c3                   	retq   

00000000008025ba <serve_stat>:
  8025ba:	55                   	push   %rbp
  8025bb:	48 89 e5             	mov    %rsp,%rbp
  8025be:	48 83 ec 30          	sub    $0x30,%rsp
  8025c2:	89 7d dc             	mov    %edi,-0x24(%rbp)
  8025c5:	48 89 75 d0          	mov    %rsi,-0x30(%rbp)
  8025c9:	48 8b 45 d0          	mov    -0x30(%rbp),%rax
  8025cd:	48 89 45 f8          	mov    %rax,-0x8(%rbp)
  8025d1:	48 8b 45 d0          	mov    -0x30(%rbp),%rax
  8025d5:	48 89 45 f0          	mov    %rax,-0x10(%rbp)
  8025d9:	48 8b 45 f8          	mov    -0x8(%rbp),%rax
  8025dd:	8b 00                	mov    (%rax),%eax
  8025df:	89 c1                	mov    %eax,%ecx
  8025e1:	48 8d 55 e0          	lea    -0x20(%rbp),%rdx
  8025e5:	8b 45 dc             	mov    -0x24(%rbp),%eax
  8025e8:	89 ce                	mov    %ecx,%esi
  8025ea:	89 c7                	mov    %eax,%edi
  8025ec:	48 b8 7d 21 80 00 00 	movabs $0x80217d,%rax
  8025f3:	00 00 00 
  8025f6:	ff d0                	callq  *%rax
  8025f8:	89 45 ec             	mov    %eax,-0x14(%rbp)
  8025fb:	83 7d ec 00          	cmpl   $0x0,-0x14(%rbp)
  8025ff:	79 05                	jns    802606 <serve_stat+0x4c>
  802601:	8b 45 ec             	mov    -0x14(%rbp),%eax
  802604:	eb 5f                	jmp    802665 <serve_stat+0xab>
  802606:	48 8b 45 e0          	mov    -0x20(%rbp),%rax
  80260a:	48 8b 40 08          	mov    0x8(%rax),%rax
  80260e:	48 89 c2             	mov    %rax,%rdx
  802611:	48 8b 45 f0          	mov    -0x10(%rbp),%rax
  802615:	48 89 d6             	mov    %rdx,%rsi
  802618:	48 89 c7             	mov    %rax,%rdi
  80261b:	48 b8 26 43 80 00 00 	movabs $0x804326,%rax
  802622:	00 00 00 
  802625:	ff d0                	callq  *%rax
  802627:	48 8b 45 e0          	mov    -0x20(%rbp),%rax
  80262b:	48 8b 40 08          	mov    0x8(%rax),%rax
  80262f:	8b 90 80 00 00 00    	mov    0x80(%rax),%edx
  802635:	48 8b 45 f0          	mov    -0x10(%rbp),%rax
  802639:	89 90 80 00 00 00    	mov    %edx,0x80(%rax)
  80263f:	48 8b 45 e0          	mov    -0x20(%rbp),%rax
  802643:	48 8b 40 08          	mov    0x8(%rax),%rax
  802647:	8b 80 84 00 00 00    	mov    0x84(%rax),%eax
  80264d:	83 f8 01             	cmp    $0x1,%eax
  802650:	0f 94 c0             	sete   %al
  802653:	0f b6 d0             	movzbl %al,%edx
  802656:	48 8b 45 f0          	mov    -0x10(%rbp),%rax
  80265a:	89 90 84 00 00 00    	mov    %edx,0x84(%rax)
  802660:	b8 00 00 00 00       	mov    $0x0,%eax
  802665:	c9                   	leaveq 
  802666:	c3                   	retq   

0000000000802667 <serve_flush>:
  802667:	55                   	push   %rbp
  802668:	48 89 e5             	mov    %rsp,%rbp
  80266b:	48 83 ec 20          	sub    $0x20,%rsp
  80266f:	89 7d ec             	mov    %edi,-0x14(%rbp)
  802672:	48 89 75 e0          	mov    %rsi,-0x20(%rbp)
  802676:	48 8b 45 e0          	mov    -0x20(%rbp),%rax
  80267a:	8b 00                	mov    (%rax),%eax
  80267c:	89 c1                	mov    %eax,%ecx
  80267e:	48 8d 55 f0          	lea    -0x10(%rbp),%rdx
  802682:	8b 45 ec             	mov    -0x14(%rbp),%eax
  802685:	89 ce                	mov    %ecx,%esi
  802687:	89 c7                	mov    %eax,%edi
  802689:	48 b8 7d 21 80 00 00 	movabs $0x80217d,%rax
  802690:	00 00 00 
  802693:	ff d0                	callq  *%rax
  802695:	89 45 fc             	mov    %eax,-0x4(%rbp)
  802698:	83 7d fc 00          	cmpl   $0x0,-0x4(%rbp)
  80269c:	79 05                	jns    8026a3 <serve_flush+0x3c>
  80269e:	8b 45 fc             	mov    -0x4(%rbp),%eax
  8026a1:	eb 1c                	jmp    8026bf <serve_flush+0x58>
  8026a3:	48 8b 45 f0          	mov    -0x10(%rbp),%rax
  8026a7:	48 8b 40 08          	mov    0x8(%rax),%rax
  8026ab:	48 89 c7             	mov    %rax,%rdi
  8026ae:	48 b8 1c 1d 80 00 00 	movabs $0x801d1c,%rax
  8026b5:	00 00 00 
  8026b8:	ff d0                	callq  *%rax
  8026ba:	b8 00 00 00 00       	mov    $0x0,%eax
  8026bf:	c9                   	leaveq 
  8026c0:	c3                   	retq   

00000000008026c1 <serve_remove>:
  8026c1:	55                   	push   %rbp
  8026c2:	48 89 e5             	mov    %rsp,%rbp
  8026c5:	48 81 ec 10 04 00 00 	sub    $0x410,%rsp
  8026cc:	89 bd fc fb ff ff    	mov    %edi,-0x404(%rbp)
  8026d2:	48 89 b5 f0 fb ff ff 	mov    %rsi,-0x410(%rbp)
  8026d9:	48 8b 8d f0 fb ff ff 	mov    -0x410(%rbp),%rcx
  8026e0:	48 8d 85 00 fc ff ff 	lea    -0x400(%rbp),%rax
  8026e7:	ba 00 04 00 00       	mov    $0x400,%edx
  8026ec:	48 89 ce             	mov    %rcx,%rsi
  8026ef:	48 89 c7             	mov    %rax,%rdi
  8026f2:	48 b8 4a 46 80 00 00 	movabs $0x80464a,%rax
  8026f9:	00 00 00 
  8026fc:	ff d0                	callq  *%rax
  8026fe:	c6 45 ff 00          	movb   $0x0,-0x1(%rbp)
  802702:	48 8d 85 00 fc ff ff 	lea    -0x400(%rbp),%rax
  802709:	48 89 c7             	mov    %rax,%rdi
  80270c:	48 b8 06 1e 80 00 00 	movabs $0x801e06,%rax
  802713:	00 00 00 
  802716:	ff d0                	callq  *%rax
  802718:	c9                   	leaveq 
  802719:	c3                   	retq   

000000000080271a <serve_sync>:
  80271a:	55                   	push   %rbp
  80271b:	48 89 e5             	mov    %rsp,%rbp
  80271e:	48 83 ec 10          	sub    $0x10,%rsp
  802722:	89 7d fc             	mov    %edi,-0x4(%rbp)
  802725:	48 89 75 f0          	mov    %rsi,-0x10(%rbp)
  802729:	48 b8 88 1e 80 00 00 	movabs $0x801e88,%rax
  802730:	00 00 00 
  802733:	ff d0                	callq  *%rax
  802735:	b8 00 00 00 00       	mov    $0x0,%eax
  80273a:	c9                   	leaveq 
  80273b:	c3                   	retq   

000000000080273c <serve>:
  80273c:	55                   	push   %rbp
  80273d:	48 89 e5             	mov    %rsp,%rbp
  802740:	48 83 ec 20          	sub    $0x20,%rsp
  802744:	c7 45 f0 00 00 00 00 	movl   $0x0,-0x10(%rbp)
  80274b:	48 b8 20 20 81 00 00 	movabs $0x812020,%rax
  802752:	00 00 00 
  802755:	48 8b 08             	mov    (%rax),%rcx
  802758:	48 8d 55 f0          	lea    -0x10(%rbp),%rdx
  80275c:	48 8d 45 f4          	lea    -0xc(%rbp),%rax
  802760:	48 89 ce             	mov    %rcx,%rsi
  802763:	48 89 c7             	mov    %rax,%rdi
  802766:	48 b8 5d 51 80 00 00 	movabs $0x80515d,%rax
  80276d:	00 00 00 
  802770:	ff d0                	callq  *%rax
  802772:	89 45 f8             	mov    %eax,-0x8(%rbp)
  802775:	8b 45 f0             	mov    -0x10(%rbp),%eax
  802778:	83 e0 01             	and    $0x1,%eax
  80277b:	85 c0                	test   %eax,%eax
  80277d:	75 23                	jne    8027a2 <serve+0x66>
  80277f:	8b 45 f4             	mov    -0xc(%rbp),%eax
  802782:	89 c6                	mov    %eax,%esi
  802784:	48 bf 20 79 80 00 00 	movabs $0x807920,%rdi
  80278b:	00 00 00 
  80278e:	b8 00 00 00 00       	mov    $0x0,%eax
  802793:	48 ba 71 37 80 00 00 	movabs $0x803771,%rdx
  80279a:	00 00 00 
  80279d:	ff d2                	callq  *%rdx
  80279f:	90                   	nop
  8027a0:	eb a2                	jmp    802744 <serve+0x8>
  8027a2:	48 c7 45 e8 00 00 00 	movq   $0x0,-0x18(%rbp)
  8027a9:	00 
  8027aa:	83 7d f8 01          	cmpl   $0x1,-0x8(%rbp)
  8027ae:	75 2b                	jne    8027db <serve+0x9f>
  8027b0:	48 b8 20 20 81 00 00 	movabs $0x812020,%rax
  8027b7:	00 00 00 
  8027ba:	48 8b 30             	mov    (%rax),%rsi
  8027bd:	8b 45 f4             	mov    -0xc(%rbp),%eax
  8027c0:	48 8d 4d f0          	lea    -0x10(%rbp),%rcx
  8027c4:	48 8d 55 e8          	lea    -0x18(%rbp),%rdx
  8027c8:	89 c7                	mov    %eax,%edi
  8027ca:	48 b8 f1 21 80 00 00 	movabs $0x8021f1,%rax
  8027d1:	00 00 00 
  8027d4:	ff d0                	callq  *%rax
  8027d6:	89 45 fc             	mov    %eax,-0x4(%rbp)
  8027d9:	eb 73                	jmp    80284e <serve+0x112>
  8027db:	83 7d f8 08          	cmpl   $0x8,-0x8(%rbp)
  8027df:	77 43                	ja     802824 <serve+0xe8>
  8027e1:	48 b8 40 20 81 00 00 	movabs $0x812040,%rax
  8027e8:	00 00 00 
  8027eb:	8b 55 f8             	mov    -0x8(%rbp),%edx
  8027ee:	48 8b 04 d0          	mov    (%rax,%rdx,8),%rax
  8027f2:	48 85 c0             	test   %rax,%rax
  8027f5:	74 2d                	je     802824 <serve+0xe8>
  8027f7:	48 b8 40 20 81 00 00 	movabs $0x812040,%rax
  8027fe:	00 00 00 
  802801:	8b 55 f8             	mov    -0x8(%rbp),%edx
  802804:	48 8b 04 d0          	mov    (%rax,%rdx,8),%rax
  802808:	48 ba 20 20 81 00 00 	movabs $0x812020,%rdx
  80280f:	00 00 00 
  802812:	48 8b 0a             	mov    (%rdx),%rcx
  802815:	8b 55 f4             	mov    -0xc(%rbp),%edx
  802818:	48 89 ce             	mov    %rcx,%rsi
  80281b:	89 d7                	mov    %edx,%edi
  80281d:	ff d0                	callq  *%rax
  80281f:	89 45 fc             	mov    %eax,-0x4(%rbp)
  802822:	eb 2a                	jmp    80284e <serve+0x112>
  802824:	8b 55 f4             	mov    -0xc(%rbp),%edx
  802827:	8b 45 f8             	mov    -0x8(%rbp),%eax
  80282a:	89 c6                	mov    %eax,%esi
  80282c:	48 bf 50 79 80 00 00 	movabs $0x807950,%rdi
  802833:	00 00 00 
  802836:	b8 00 00 00 00       	mov    $0x0,%eax
  80283b:	48 b9 71 37 80 00 00 	movabs $0x803771,%rcx
  802842:	00 00 00 
  802845:	ff d1                	callq  *%rcx
  802847:	c7 45 fc fd ff ff ff 	movl   $0xfffffffd,-0x4(%rbp)
  80284e:	8b 4d f0             	mov    -0x10(%rbp),%ecx
  802851:	48 8b 55 e8          	mov    -0x18(%rbp),%rdx
  802855:	8b 75 fc             	mov    -0x4(%rbp),%esi
  802858:	8b 45 f4             	mov    -0xc(%rbp),%eax
  80285b:	89 c7                	mov    %eax,%edi
  80285d:	48 b8 1e 52 80 00 00 	movabs $0x80521e,%rax
  802864:	00 00 00 
  802867:	ff d0                	callq  *%rax
  802869:	48 b8 20 20 81 00 00 	movabs $0x812020,%rax
  802870:	00 00 00 
  802873:	48 8b 00             	mov    (%rax),%rax
  802876:	48 89 c6             	mov    %rax,%rsi
  802879:	bf 00 00 00 00       	mov    $0x0,%edi
  80287e:	48 b8 00 4d 80 00 00 	movabs $0x804d00,%rax
  802885:	00 00 00 
  802888:	ff d0                	callq  *%rax
  80288a:	e9 b5 fe ff ff       	jmpq   802744 <serve+0x8>

000000000080288f <umain>:
  80288f:	55                   	push   %rbp
  802890:	48 89 e5             	mov    %rsp,%rbp
  802893:	48 83 ec 20          	sub    $0x20,%rsp
  802897:	89 7d ec             	mov    %edi,-0x14(%rbp)
  80289a:	48 89 75 e0          	mov    %rsi,-0x20(%rbp)
  80289e:	48 b8 90 20 81 00 00 	movabs $0x812090,%rax
  8028a5:	00 00 00 
  8028a8:	48 b9 73 79 80 00 00 	movabs $0x807973,%rcx
  8028af:	00 00 00 
  8028b2:	48 89 08             	mov    %rcx,(%rax)
  8028b5:	48 bf 76 79 80 00 00 	movabs $0x807976,%rdi
  8028bc:	00 00 00 
  8028bf:	b8 00 00 00 00       	mov    $0x0,%eax
  8028c4:	48 ba 71 37 80 00 00 	movabs $0x803771,%rdx
  8028cb:	00 00 00 
  8028ce:	ff d2                	callq  *%rdx
  8028d0:	c7 45 fc 00 8a 00 00 	movl   $0x8a00,-0x4(%rbp)
  8028d7:	66 c7 45 fa 00 8a    	movw   $0x8a00,-0x6(%rbp)
}

static __inline void
outw(int port, uint16_t data)
{
	__asm __volatile("outw %0,%w1" : : "a" (data), "d" (port));
  8028dd:	0f b7 45 fa          	movzwl -0x6(%rbp),%eax
  8028e1:	8b 55 fc             	mov    -0x4(%rbp),%edx
  8028e4:	66 ef                	out    %ax,(%dx)
  8028e6:	48 bf 85 79 80 00 00 	movabs $0x807985,%rdi
  8028ed:	00 00 00 
  8028f0:	b8 00 00 00 00       	mov    $0x0,%eax
  8028f5:	48 ba 71 37 80 00 00 	movabs $0x803771,%rdx
  8028fc:	00 00 00 
  8028ff:	ff d2                	callq  *%rdx
  802901:	48 b8 d9 1e 80 00 00 	movabs $0x801ed9,%rax
  802908:	00 00 00 
  80290b:	ff d0                	callq  *%rax
  80290d:	48 b8 89 10 80 00 00 	movabs $0x801089,%rax
  802914:	00 00 00 
  802917:	ff d0                	callq  *%rax
  802919:	48 b8 3c 27 80 00 00 	movabs $0x80273c,%rax
  802920:	00 00 00 
  802923:	ff d0                	callq  *%rax
  802925:	c9                   	leaveq 
  802926:	c3                   	retq   

0000000000802927 <fs_test>:
  802927:	55                   	push   %rbp
  802928:	48 89 e5             	mov    %rsp,%rbp
  80292b:	48 83 ec 20          	sub    $0x20,%rsp
  80292f:	ba 07 00 00 00       	mov    $0x7,%edx
  802934:	be 00 10 00 00       	mov    $0x1000,%esi
  802939:	bf 00 00 00 00       	mov    $0x0,%edi
  80293e:	48 b8 55 4c 80 00 00 	movabs $0x804c55,%rax
  802945:	00 00 00 
  802948:	ff d0                	callq  *%rax
  80294a:	89 45 fc             	mov    %eax,-0x4(%rbp)
  80294d:	83 7d fc 00          	cmpl   $0x0,-0x4(%rbp)
  802951:	79 30                	jns    802983 <fs_test+0x5c>
  802953:	8b 45 fc             	mov    -0x4(%rbp),%eax
  802956:	89 c1                	mov    %eax,%ecx
  802958:	48 ba be 79 80 00 00 	movabs $0x8079be,%rdx
  80295f:	00 00 00 
  802962:	be 14 00 00 00       	mov    $0x14,%esi
  802967:	48 bf d1 79 80 00 00 	movabs $0x8079d1,%rdi
  80296e:	00 00 00 
  802971:	b8 00 00 00 00       	mov    $0x0,%eax
  802976:	49 b8 38 35 80 00 00 	movabs $0x803538,%r8
  80297d:	00 00 00 
  802980:	41 ff d0             	callq  *%r8
  802983:	48 c7 45 f0 00 10 00 	movq   $0x1000,-0x10(%rbp)
  80298a:	00 
  80298b:	48 b8 10 60 81 00 00 	movabs $0x816010,%rax
  802992:	00 00 00 
  802995:	48 8b 08             	mov    (%rax),%rcx
  802998:	48 8b 45 f0          	mov    -0x10(%rbp),%rax
  80299c:	ba 00 10 00 00       	mov    $0x1000,%edx
  8029a1:	48 89 ce             	mov    %rcx,%rsi
  8029a4:	48 89 c7             	mov    %rax,%rdi
  8029a7:	48 b8 4a 46 80 00 00 	movabs $0x80464a,%rax
  8029ae:	00 00 00 
  8029b1:	ff d0                	callq  *%rax
  8029b3:	48 b8 2f 0e 80 00 00 	movabs $0x800e2f,%rax
  8029ba:	00 00 00 
  8029bd:	ff d0                	callq  *%rax
  8029bf:	89 45 fc             	mov    %eax,-0x4(%rbp)
  8029c2:	83 7d fc 00          	cmpl   $0x0,-0x4(%rbp)
  8029c6:	79 30                	jns    8029f8 <fs_test+0xd1>
  8029c8:	8b 45 fc             	mov    -0x4(%rbp),%eax
  8029cb:	89 c1                	mov    %eax,%ecx
  8029cd:	48 ba de 79 80 00 00 	movabs $0x8079de,%rdx
  8029d4:	00 00 00 
  8029d7:	be 19 00 00 00       	mov    $0x19,%esi
  8029dc:	48 bf d1 79 80 00 00 	movabs $0x8079d1,%rdi
  8029e3:	00 00 00 
  8029e6:	b8 00 00 00 00       	mov    $0x0,%eax
  8029eb:	49 b8 38 35 80 00 00 	movabs $0x803538,%r8
  8029f2:	00 00 00 
  8029f5:	41 ff d0             	callq  *%r8
  8029f8:	8b 45 fc             	mov    -0x4(%rbp),%eax
  8029fb:	8d 50 1f             	lea    0x1f(%rax),%edx
  8029fe:	85 c0                	test   %eax,%eax
  802a00:	0f 48 c2             	cmovs  %edx,%eax
  802a03:	c1 f8 05             	sar    $0x5,%eax
  802a06:	48 98                	cltq   
  802a08:	48 8d 14 85 00 00 00 	lea    0x0(,%rax,4),%rdx
  802a0f:	00 
  802a10:	48 8b 45 f0          	mov    -0x10(%rbp),%rax
  802a14:	48 01 d0             	add    %rdx,%rax
  802a17:	8b 30                	mov    (%rax),%esi
  802a19:	8b 45 fc             	mov    -0x4(%rbp),%eax
  802a1c:	99                   	cltd   
  802a1d:	c1 ea 1b             	shr    $0x1b,%edx
  802a20:	01 d0                	add    %edx,%eax
  802a22:	83 e0 1f             	and    $0x1f,%eax
  802a25:	29 d0                	sub    %edx,%eax
  802a27:	ba 01 00 00 00       	mov    $0x1,%edx
  802a2c:	89 c1                	mov    %eax,%ecx
  802a2e:	d3 e2                	shl    %cl,%edx
  802a30:	89 d0                	mov    %edx,%eax
  802a32:	21 f0                	and    %esi,%eax
  802a34:	85 c0                	test   %eax,%eax
  802a36:	75 35                	jne    802a6d <fs_test+0x146>
  802a38:	48 b9 ee 79 80 00 00 	movabs $0x8079ee,%rcx
  802a3f:	00 00 00 
  802a42:	48 ba 09 7a 80 00 00 	movabs $0x807a09,%rdx
  802a49:	00 00 00 
  802a4c:	be 1b 00 00 00       	mov    $0x1b,%esi
  802a51:	48 bf d1 79 80 00 00 	movabs $0x8079d1,%rdi
  802a58:	00 00 00 
  802a5b:	b8 00 00 00 00       	mov    $0x0,%eax
  802a60:	49 b8 38 35 80 00 00 	movabs $0x803538,%r8
  802a67:	00 00 00 
  802a6a:	41 ff d0             	callq  *%r8
  802a6d:	48 b8 10 60 81 00 00 	movabs $0x816010,%rax
  802a74:	00 00 00 
  802a77:	48 8b 10             	mov    (%rax),%rdx
  802a7a:	8b 45 fc             	mov    -0x4(%rbp),%eax
  802a7d:	8d 48 1f             	lea    0x1f(%rax),%ecx
  802a80:	85 c0                	test   %eax,%eax
  802a82:	0f 48 c1             	cmovs  %ecx,%eax
  802a85:	c1 f8 05             	sar    $0x5,%eax
  802a88:	48 98                	cltq   
  802a8a:	48 c1 e0 02          	shl    $0x2,%rax
  802a8e:	48 01 d0             	add    %rdx,%rax
  802a91:	8b 30                	mov    (%rax),%esi
  802a93:	8b 45 fc             	mov    -0x4(%rbp),%eax
  802a96:	99                   	cltd   
  802a97:	c1 ea 1b             	shr    $0x1b,%edx
  802a9a:	01 d0                	add    %edx,%eax
  802a9c:	83 e0 1f             	and    $0x1f,%eax
  802a9f:	29 d0                	sub    %edx,%eax
  802aa1:	ba 01 00 00 00       	mov    $0x1,%edx
  802aa6:	89 c1                	mov    %eax,%ecx
  802aa8:	d3 e2                	shl    %cl,%edx
  802aaa:	89 d0                	mov    %edx,%eax
  802aac:	21 f0                	and    %esi,%eax
  802aae:	85 c0                	test   %eax,%eax
  802ab0:	74 35                	je     802ae7 <fs_test+0x1c0>
  802ab2:	48 b9 20 7a 80 00 00 	movabs $0x807a20,%rcx
  802ab9:	00 00 00 
  802abc:	48 ba 09 7a 80 00 00 	movabs $0x807a09,%rdx
  802ac3:	00 00 00 
  802ac6:	be 1d 00 00 00       	mov    $0x1d,%esi
  802acb:	48 bf d1 79 80 00 00 	movabs $0x8079d1,%rdi
  802ad2:	00 00 00 
  802ad5:	b8 00 00 00 00       	mov    $0x0,%eax
  802ada:	49 b8 38 35 80 00 00 	movabs $0x803538,%r8
  802ae1:	00 00 00 
  802ae4:	41 ff d0             	callq  *%r8
  802ae7:	48 bf 40 7a 80 00 00 	movabs $0x807a40,%rdi
  802aee:	00 00 00 
  802af1:	b8 00 00 00 00       	mov    $0x0,%eax
  802af6:	48 ba 71 37 80 00 00 	movabs $0x803771,%rdx
  802afd:	00 00 00 
  802b00:	ff d2                	callq  *%rdx
  802b02:	48 8d 45 e8          	lea    -0x18(%rbp),%rax
  802b06:	48 89 c6             	mov    %rax,%rsi
  802b09:	48 bf 55 7a 80 00 00 	movabs $0x807a55,%rdi
  802b10:	00 00 00 
  802b13:	48 b8 90 18 80 00 00 	movabs $0x801890,%rax
  802b1a:	00 00 00 
  802b1d:	ff d0                	callq  *%rax
  802b1f:	89 45 fc             	mov    %eax,-0x4(%rbp)
  802b22:	83 7d fc 00          	cmpl   $0x0,-0x4(%rbp)
  802b26:	79 36                	jns    802b5e <fs_test+0x237>
  802b28:	83 7d fc f4          	cmpl   $0xfffffff4,-0x4(%rbp)
  802b2c:	74 30                	je     802b5e <fs_test+0x237>
  802b2e:	8b 45 fc             	mov    -0x4(%rbp),%eax
  802b31:	89 c1                	mov    %eax,%ecx
  802b33:	48 ba 60 7a 80 00 00 	movabs $0x807a60,%rdx
  802b3a:	00 00 00 
  802b3d:	be 21 00 00 00       	mov    $0x21,%esi
  802b42:	48 bf d1 79 80 00 00 	movabs $0x8079d1,%rdi
  802b49:	00 00 00 
  802b4c:	b8 00 00 00 00       	mov    $0x0,%eax
  802b51:	49 b8 38 35 80 00 00 	movabs $0x803538,%r8
  802b58:	00 00 00 
  802b5b:	41 ff d0             	callq  *%r8
  802b5e:	83 7d fc 00          	cmpl   $0x0,-0x4(%rbp)
  802b62:	75 2a                	jne    802b8e <fs_test+0x267>
  802b64:	48 ba 80 7a 80 00 00 	movabs $0x807a80,%rdx
  802b6b:	00 00 00 
  802b6e:	be 23 00 00 00       	mov    $0x23,%esi
  802b73:	48 bf d1 79 80 00 00 	movabs $0x8079d1,%rdi
  802b7a:	00 00 00 
  802b7d:	b8 00 00 00 00       	mov    $0x0,%eax
  802b82:	48 b9 38 35 80 00 00 	movabs $0x803538,%rcx
  802b89:	00 00 00 
  802b8c:	ff d1                	callq  *%rcx
  802b8e:	48 8d 45 e8          	lea    -0x18(%rbp),%rax
  802b92:	48 89 c6             	mov    %rax,%rsi
  802b95:	48 bf a0 7a 80 00 00 	movabs $0x807aa0,%rdi
  802b9c:	00 00 00 
  802b9f:	48 b8 90 18 80 00 00 	movabs $0x801890,%rax
  802ba6:	00 00 00 
  802ba9:	ff d0                	callq  *%rax
  802bab:	89 45 fc             	mov    %eax,-0x4(%rbp)
  802bae:	83 7d fc 00          	cmpl   $0x0,-0x4(%rbp)
  802bb2:	79 30                	jns    802be4 <fs_test+0x2bd>
  802bb4:	8b 45 fc             	mov    -0x4(%rbp),%eax
  802bb7:	89 c1                	mov    %eax,%ecx
  802bb9:	48 ba a9 7a 80 00 00 	movabs $0x807aa9,%rdx
  802bc0:	00 00 00 
  802bc3:	be 25 00 00 00       	mov    $0x25,%esi
  802bc8:	48 bf d1 79 80 00 00 	movabs $0x8079d1,%rdi
  802bcf:	00 00 00 
  802bd2:	b8 00 00 00 00       	mov    $0x0,%eax
  802bd7:	49 b8 38 35 80 00 00 	movabs $0x803538,%r8
  802bde:	00 00 00 
  802be1:	41 ff d0             	callq  *%r8
  802be4:	48 bf c0 7a 80 00 00 	movabs $0x807ac0,%rdi
  802beb:	00 00 00 
  802bee:	b8 00 00 00 00       	mov    $0x0,%eax
  802bf3:	48 ba 71 37 80 00 00 	movabs $0x803771,%rdx
  802bfa:	00 00 00 
  802bfd:	ff d2                	callq  *%rdx
  802bff:	48 8b 45 e8          	mov    -0x18(%rbp),%rax
  802c03:	48 8d 55 e0          	lea    -0x20(%rbp),%rdx
  802c07:	be 00 00 00 00       	mov    $0x0,%esi
  802c0c:	48 89 c7             	mov    %rax,%rdi
  802c0f:	48 b8 10 12 80 00 00 	movabs $0x801210,%rax
  802c16:	00 00 00 
  802c19:	ff d0                	callq  *%rax
  802c1b:	89 45 fc             	mov    %eax,-0x4(%rbp)
  802c1e:	83 7d fc 00          	cmpl   $0x0,-0x4(%rbp)
  802c22:	79 30                	jns    802c54 <fs_test+0x32d>
  802c24:	8b 45 fc             	mov    -0x4(%rbp),%eax
  802c27:	89 c1                	mov    %eax,%ecx
  802c29:	48 ba d3 7a 80 00 00 	movabs $0x807ad3,%rdx
  802c30:	00 00 00 
  802c33:	be 29 00 00 00       	mov    $0x29,%esi
  802c38:	48 bf d1 79 80 00 00 	movabs $0x8079d1,%rdi
  802c3f:	00 00 00 
  802c42:	b8 00 00 00 00       	mov    $0x0,%eax
  802c47:	49 b8 38 35 80 00 00 	movabs $0x803538,%r8
  802c4e:	00 00 00 
  802c51:	41 ff d0             	callq  *%r8
  802c54:	48 b8 88 20 81 00 00 	movabs $0x812088,%rax
  802c5b:	00 00 00 
  802c5e:	48 8b 10             	mov    (%rax),%rdx
  802c61:	48 8b 45 e0          	mov    -0x20(%rbp),%rax
  802c65:	48 89 d6             	mov    %rdx,%rsi
  802c68:	48 89 c7             	mov    %rax,%rdi
  802c6b:	48 b8 88 44 80 00 00 	movabs $0x804488,%rax
  802c72:	00 00 00 
  802c75:	ff d0                	callq  *%rax
  802c77:	85 c0                	test   %eax,%eax
  802c79:	74 2a                	je     802ca5 <fs_test+0x37e>
  802c7b:	48 ba e8 7a 80 00 00 	movabs $0x807ae8,%rdx
  802c82:	00 00 00 
  802c85:	be 2b 00 00 00       	mov    $0x2b,%esi
  802c8a:	48 bf d1 79 80 00 00 	movabs $0x8079d1,%rdi
  802c91:	00 00 00 
  802c94:	b8 00 00 00 00       	mov    $0x0,%eax
  802c99:	48 b9 38 35 80 00 00 	movabs $0x803538,%rcx
  802ca0:	00 00 00 
  802ca3:	ff d1                	callq  *%rcx
  802ca5:	48 bf 0b 7b 80 00 00 	movabs $0x807b0b,%rdi
  802cac:	00 00 00 
  802caf:	b8 00 00 00 00       	mov    $0x0,%eax
  802cb4:	48 ba 71 37 80 00 00 	movabs $0x803771,%rdx
  802cbb:	00 00 00 
  802cbe:	ff d2                	callq  *%rdx
  802cc0:	48 8b 45 e0          	mov    -0x20(%rbp),%rax
  802cc4:	48 8b 55 e0          	mov    -0x20(%rbp),%rdx
  802cc8:	0f b6 12             	movzbl (%rdx),%edx
  802ccb:	88 10                	mov    %dl,(%rax)
  802ccd:	48 8b 45 e0          	mov    -0x20(%rbp),%rax
  802cd1:	48 c1 e8 0c          	shr    $0xc,%rax
  802cd5:	48 89 c2             	mov    %rax,%rdx
  802cd8:	48 b8 00 00 00 00 00 	movabs $0x10000000000,%rax
  802cdf:	01 00 00 
  802ce2:	48 8b 04 d0          	mov    (%rax,%rdx,8),%rax
  802ce6:	83 e0 40             	and    $0x40,%eax
  802ce9:	48 85 c0             	test   %rax,%rax
  802cec:	75 35                	jne    802d23 <fs_test+0x3fc>
  802cee:	48 b9 23 7b 80 00 00 	movabs $0x807b23,%rcx
  802cf5:	00 00 00 
  802cf8:	48 ba 09 7a 80 00 00 	movabs $0x807a09,%rdx
  802cff:	00 00 00 
  802d02:	be 2f 00 00 00       	mov    $0x2f,%esi
  802d07:	48 bf d1 79 80 00 00 	movabs $0x8079d1,%rdi
  802d0e:	00 00 00 
  802d11:	b8 00 00 00 00       	mov    $0x0,%eax
  802d16:	49 b8 38 35 80 00 00 	movabs $0x803538,%r8
  802d1d:	00 00 00 
  802d20:	41 ff d0             	callq  *%r8
  802d23:	48 8b 45 e8          	mov    -0x18(%rbp),%rax
  802d27:	48 89 c7             	mov    %rax,%rdi
  802d2a:	48 b8 1c 1d 80 00 00 	movabs $0x801d1c,%rax
  802d31:	00 00 00 
  802d34:	ff d0                	callq  *%rax
  802d36:	48 8b 45 e0          	mov    -0x20(%rbp),%rax
  802d3a:	48 c1 e8 0c          	shr    $0xc,%rax
  802d3e:	48 89 c2             	mov    %rax,%rdx
  802d41:	48 b8 00 00 00 00 00 	movabs $0x10000000000,%rax
  802d48:	01 00 00 
  802d4b:	48 8b 04 d0          	mov    (%rax,%rdx,8),%rax
  802d4f:	83 e0 40             	and    $0x40,%eax
  802d52:	48 85 c0             	test   %rax,%rax
  802d55:	74 35                	je     802d8c <fs_test+0x465>
  802d57:	48 b9 3e 7b 80 00 00 	movabs $0x807b3e,%rcx
  802d5e:	00 00 00 
  802d61:	48 ba 09 7a 80 00 00 	movabs $0x807a09,%rdx
  802d68:	00 00 00 
  802d6b:	be 31 00 00 00       	mov    $0x31,%esi
  802d70:	48 bf d1 79 80 00 00 	movabs $0x8079d1,%rdi
  802d77:	00 00 00 
  802d7a:	b8 00 00 00 00       	mov    $0x0,%eax
  802d7f:	49 b8 38 35 80 00 00 	movabs $0x803538,%r8
  802d86:	00 00 00 
  802d89:	41 ff d0             	callq  *%r8
  802d8c:	48 bf 5a 7b 80 00 00 	movabs $0x807b5a,%rdi
  802d93:	00 00 00 
  802d96:	b8 00 00 00 00       	mov    $0x0,%eax
  802d9b:	48 ba 71 37 80 00 00 	movabs $0x803771,%rdx
  802da2:	00 00 00 
  802da5:	ff d2                	callq  *%rdx
  802da7:	48 8b 45 e8          	mov    -0x18(%rbp),%rax
  802dab:	be 00 00 00 00       	mov    $0x0,%esi
  802db0:	48 89 c7             	mov    %rax,%rdi
  802db3:	48 b8 bf 1c 80 00 00 	movabs $0x801cbf,%rax
  802dba:	00 00 00 
  802dbd:	ff d0                	callq  *%rax
  802dbf:	89 45 fc             	mov    %eax,-0x4(%rbp)
  802dc2:	83 7d fc 00          	cmpl   $0x0,-0x4(%rbp)
  802dc6:	79 30                	jns    802df8 <fs_test+0x4d1>
  802dc8:	8b 45 fc             	mov    -0x4(%rbp),%eax
  802dcb:	89 c1                	mov    %eax,%ecx
  802dcd:	48 ba 6e 7b 80 00 00 	movabs $0x807b6e,%rdx
  802dd4:	00 00 00 
  802dd7:	be 35 00 00 00       	mov    $0x35,%esi
  802ddc:	48 bf d1 79 80 00 00 	movabs $0x8079d1,%rdi
  802de3:	00 00 00 
  802de6:	b8 00 00 00 00       	mov    $0x0,%eax
  802deb:	49 b8 38 35 80 00 00 	movabs $0x803538,%r8
  802df2:	00 00 00 
  802df5:	41 ff d0             	callq  *%r8
  802df8:	48 8b 45 e8          	mov    -0x18(%rbp),%rax
  802dfc:	8b 80 88 00 00 00    	mov    0x88(%rax),%eax
  802e02:	85 c0                	test   %eax,%eax
  802e04:	74 35                	je     802e3b <fs_test+0x514>
  802e06:	48 b9 80 7b 80 00 00 	movabs $0x807b80,%rcx
  802e0d:	00 00 00 
  802e10:	48 ba 09 7a 80 00 00 	movabs $0x807a09,%rdx
  802e17:	00 00 00 
  802e1a:	be 36 00 00 00       	mov    $0x36,%esi
  802e1f:	48 bf d1 79 80 00 00 	movabs $0x8079d1,%rdi
  802e26:	00 00 00 
  802e29:	b8 00 00 00 00       	mov    $0x0,%eax
  802e2e:	49 b8 38 35 80 00 00 	movabs $0x803538,%r8
  802e35:	00 00 00 
  802e38:	41 ff d0             	callq  *%r8
  802e3b:	48 8b 45 e8          	mov    -0x18(%rbp),%rax
  802e3f:	48 c1 e8 0c          	shr    $0xc,%rax
  802e43:	48 89 c2             	mov    %rax,%rdx
  802e46:	48 b8 00 00 00 00 00 	movabs $0x10000000000,%rax
  802e4d:	01 00 00 
  802e50:	48 8b 04 d0          	mov    (%rax,%rdx,8),%rax
  802e54:	83 e0 40             	and    $0x40,%eax
  802e57:	48 85 c0             	test   %rax,%rax
  802e5a:	74 35                	je     802e91 <fs_test+0x56a>
  802e5c:	48 b9 94 7b 80 00 00 	movabs $0x807b94,%rcx
  802e63:	00 00 00 
  802e66:	48 ba 09 7a 80 00 00 	movabs $0x807a09,%rdx
  802e6d:	00 00 00 
  802e70:	be 37 00 00 00       	mov    $0x37,%esi
  802e75:	48 bf d1 79 80 00 00 	movabs $0x8079d1,%rdi
  802e7c:	00 00 00 
  802e7f:	b8 00 00 00 00       	mov    $0x0,%eax
  802e84:	49 b8 38 35 80 00 00 	movabs $0x803538,%r8
  802e8b:	00 00 00 
  802e8e:	41 ff d0             	callq  *%r8
  802e91:	48 bf ae 7b 80 00 00 	movabs $0x807bae,%rdi
  802e98:	00 00 00 
  802e9b:	b8 00 00 00 00       	mov    $0x0,%eax
  802ea0:	48 ba 71 37 80 00 00 	movabs $0x803771,%rdx
  802ea7:	00 00 00 
  802eaa:	ff d2                	callq  *%rdx
  802eac:	48 b8 88 20 81 00 00 	movabs $0x812088,%rax
  802eb3:	00 00 00 
  802eb6:	48 8b 00             	mov    (%rax),%rax
  802eb9:	48 89 c7             	mov    %rax,%rdi
  802ebc:	48 b8 ba 42 80 00 00 	movabs $0x8042ba,%rax
  802ec3:	00 00 00 
  802ec6:	ff d0                	callq  *%rax
  802ec8:	89 c2                	mov    %eax,%edx
  802eca:	48 8b 45 e8          	mov    -0x18(%rbp),%rax
  802ece:	89 d6                	mov    %edx,%esi
  802ed0:	48 89 c7             	mov    %rax,%rdi
  802ed3:	48 b8 bf 1c 80 00 00 	movabs $0x801cbf,%rax
  802eda:	00 00 00 
  802edd:	ff d0                	callq  *%rax
  802edf:	89 45 fc             	mov    %eax,-0x4(%rbp)
  802ee2:	83 7d fc 00          	cmpl   $0x0,-0x4(%rbp)
  802ee6:	79 30                	jns    802f18 <fs_test+0x5f1>
  802ee8:	8b 45 fc             	mov    -0x4(%rbp),%eax
  802eeb:	89 c1                	mov    %eax,%ecx
  802eed:	48 ba c5 7b 80 00 00 	movabs $0x807bc5,%rdx
  802ef4:	00 00 00 
  802ef7:	be 3b 00 00 00       	mov    $0x3b,%esi
  802efc:	48 bf d1 79 80 00 00 	movabs $0x8079d1,%rdi
  802f03:	00 00 00 
  802f06:	b8 00 00 00 00       	mov    $0x0,%eax
  802f0b:	49 b8 38 35 80 00 00 	movabs $0x803538,%r8
  802f12:	00 00 00 
  802f15:	41 ff d0             	callq  *%r8
  802f18:	48 8b 45 e8          	mov    -0x18(%rbp),%rax
  802f1c:	48 c1 e8 0c          	shr    $0xc,%rax
  802f20:	48 89 c2             	mov    %rax,%rdx
  802f23:	48 b8 00 00 00 00 00 	movabs $0x10000000000,%rax
  802f2a:	01 00 00 
  802f2d:	48 8b 04 d0          	mov    (%rax,%rdx,8),%rax
  802f31:	83 e0 40             	and    $0x40,%eax
  802f34:	48 85 c0             	test   %rax,%rax
  802f37:	74 35                	je     802f6e <fs_test+0x647>
  802f39:	48 b9 94 7b 80 00 00 	movabs $0x807b94,%rcx
  802f40:	00 00 00 
  802f43:	48 ba 09 7a 80 00 00 	movabs $0x807a09,%rdx
  802f4a:	00 00 00 
  802f4d:	be 3c 00 00 00       	mov    $0x3c,%esi
  802f52:	48 bf d1 79 80 00 00 	movabs $0x8079d1,%rdi
  802f59:	00 00 00 
  802f5c:	b8 00 00 00 00       	mov    $0x0,%eax
  802f61:	49 b8 38 35 80 00 00 	movabs $0x803538,%r8
  802f68:	00 00 00 
  802f6b:	41 ff d0             	callq  *%r8
  802f6e:	48 8b 45 e8          	mov    -0x18(%rbp),%rax
  802f72:	48 8d 55 e0          	lea    -0x20(%rbp),%rdx
  802f76:	be 00 00 00 00       	mov    $0x0,%esi
  802f7b:	48 89 c7             	mov    %rax,%rdi
  802f7e:	48 b8 10 12 80 00 00 	movabs $0x801210,%rax
  802f85:	00 00 00 
  802f88:	ff d0                	callq  *%rax
  802f8a:	89 45 fc             	mov    %eax,-0x4(%rbp)
  802f8d:	83 7d fc 00          	cmpl   $0x0,-0x4(%rbp)
  802f91:	79 30                	jns    802fc3 <fs_test+0x69c>
  802f93:	8b 45 fc             	mov    -0x4(%rbp),%eax
  802f96:	89 c1                	mov    %eax,%ecx
  802f98:	48 ba d9 7b 80 00 00 	movabs $0x807bd9,%rdx
  802f9f:	00 00 00 
  802fa2:	be 3e 00 00 00       	mov    $0x3e,%esi
  802fa7:	48 bf d1 79 80 00 00 	movabs $0x8079d1,%rdi
  802fae:	00 00 00 
  802fb1:	b8 00 00 00 00       	mov    $0x0,%eax
  802fb6:	49 b8 38 35 80 00 00 	movabs $0x803538,%r8
  802fbd:	00 00 00 
  802fc0:	41 ff d0             	callq  *%r8
  802fc3:	48 b8 88 20 81 00 00 	movabs $0x812088,%rax
  802fca:	00 00 00 
  802fcd:	48 8b 10             	mov    (%rax),%rdx
  802fd0:	48 8b 45 e0          	mov    -0x20(%rbp),%rax
  802fd4:	48 89 d6             	mov    %rdx,%rsi
  802fd7:	48 89 c7             	mov    %rax,%rdi
  802fda:	48 b8 26 43 80 00 00 	movabs $0x804326,%rax
  802fe1:	00 00 00 
  802fe4:	ff d0                	callq  *%rax
  802fe6:	48 8b 45 e0          	mov    -0x20(%rbp),%rax
  802fea:	48 c1 e8 0c          	shr    $0xc,%rax
  802fee:	48 89 c2             	mov    %rax,%rdx
  802ff1:	48 b8 00 00 00 00 00 	movabs $0x10000000000,%rax
  802ff8:	01 00 00 
  802ffb:	48 8b 04 d0          	mov    (%rax,%rdx,8),%rax
  802fff:	83 e0 40             	and    $0x40,%eax
  803002:	48 85 c0             	test   %rax,%rax
  803005:	75 35                	jne    80303c <fs_test+0x715>
  803007:	48 b9 23 7b 80 00 00 	movabs $0x807b23,%rcx
  80300e:	00 00 00 
  803011:	48 ba 09 7a 80 00 00 	movabs $0x807a09,%rdx
  803018:	00 00 00 
  80301b:	be 40 00 00 00       	mov    $0x40,%esi
  803020:	48 bf d1 79 80 00 00 	movabs $0x8079d1,%rdi
  803027:	00 00 00 
  80302a:	b8 00 00 00 00       	mov    $0x0,%eax
  80302f:	49 b8 38 35 80 00 00 	movabs $0x803538,%r8
  803036:	00 00 00 
  803039:	41 ff d0             	callq  *%r8
  80303c:	48 8b 45 e8          	mov    -0x18(%rbp),%rax
  803040:	48 89 c7             	mov    %rax,%rdi
  803043:	48 b8 1c 1d 80 00 00 	movabs $0x801d1c,%rax
  80304a:	00 00 00 
  80304d:	ff d0                	callq  *%rax
  80304f:	48 8b 45 e0          	mov    -0x20(%rbp),%rax
  803053:	48 c1 e8 0c          	shr    $0xc,%rax
  803057:	48 89 c2             	mov    %rax,%rdx
  80305a:	48 b8 00 00 00 00 00 	movabs $0x10000000000,%rax
  803061:	01 00 00 
  803064:	48 8b 04 d0          	mov    (%rax,%rdx,8),%rax
  803068:	83 e0 40             	and    $0x40,%eax
  80306b:	48 85 c0             	test   %rax,%rax
  80306e:	74 35                	je     8030a5 <fs_test+0x77e>
  803070:	48 b9 3e 7b 80 00 00 	movabs $0x807b3e,%rcx
  803077:	00 00 00 
  80307a:	48 ba 09 7a 80 00 00 	movabs $0x807a09,%rdx
  803081:	00 00 00 
  803084:	be 42 00 00 00       	mov    $0x42,%esi
  803089:	48 bf d1 79 80 00 00 	movabs $0x8079d1,%rdi
  803090:	00 00 00 
  803093:	b8 00 00 00 00       	mov    $0x0,%eax
  803098:	49 b8 38 35 80 00 00 	movabs $0x803538,%r8
  80309f:	00 00 00 
  8030a2:	41 ff d0             	callq  *%r8
  8030a5:	48 8b 45 e8          	mov    -0x18(%rbp),%rax
  8030a9:	48 c1 e8 0c          	shr    $0xc,%rax
  8030ad:	48 89 c2             	mov    %rax,%rdx
  8030b0:	48 b8 00 00 00 00 00 	movabs $0x10000000000,%rax
  8030b7:	01 00 00 
  8030ba:	48 8b 04 d0          	mov    (%rax,%rdx,8),%rax
  8030be:	83 e0 40             	and    $0x40,%eax
  8030c1:	48 85 c0             	test   %rax,%rax
  8030c4:	74 35                	je     8030fb <fs_test+0x7d4>
  8030c6:	48 b9 94 7b 80 00 00 	movabs $0x807b94,%rcx
  8030cd:	00 00 00 
  8030d0:	48 ba 09 7a 80 00 00 	movabs $0x807a09,%rdx
  8030d7:	00 00 00 
  8030da:	be 43 00 00 00       	mov    $0x43,%esi
  8030df:	48 bf d1 79 80 00 00 	movabs $0x8079d1,%rdi
  8030e6:	00 00 00 
  8030e9:	b8 00 00 00 00       	mov    $0x0,%eax
  8030ee:	49 b8 38 35 80 00 00 	movabs $0x803538,%r8
  8030f5:	00 00 00 
  8030f8:	41 ff d0             	callq  *%r8
  8030fb:	48 bf ee 7b 80 00 00 	movabs $0x807bee,%rdi
  803102:	00 00 00 
  803105:	b8 00 00 00 00       	mov    $0x0,%eax
  80310a:	48 ba 71 37 80 00 00 	movabs $0x803771,%rdx
  803111:	00 00 00 
  803114:	ff d2                	callq  *%rdx
  803116:	c9                   	leaveq 
  803117:	c3                   	retq   

0000000000803118 <host_fsipc>:
  803118:	55                   	push   %rbp
  803119:	48 89 e5             	mov    %rsp,%rbp
  80311c:	48 83 ec 10          	sub    $0x10,%rsp
  803120:	89 7d fc             	mov    %edi,-0x4(%rbp)
  803123:	48 89 75 f0          	mov    %rsi,-0x10(%rbp)
  803127:	8b 45 fc             	mov    -0x4(%rbp),%eax
  80312a:	b9 07 00 00 00       	mov    $0x7,%ecx
  80312f:	48 ba 00 50 81 00 00 	movabs $0x815000,%rdx
  803136:	00 00 00 
  803139:	89 c6                	mov    %eax,%esi
  80313b:	bf 01 00 00 00       	mov    $0x1,%edi
  803140:	48 b8 50 53 80 00 00 	movabs $0x805350,%rax
  803147:	00 00 00 
  80314a:	ff d0                	callq  *%rax
  80314c:	48 8b 45 f0          	mov    -0x10(%rbp),%rax
  803150:	48 89 c7             	mov    %rax,%rdi
  803153:	48 b8 b4 52 80 00 00 	movabs $0x8052b4,%rax
  80315a:	00 00 00 
  80315d:	ff d0                	callq  *%rax
  80315f:	c9                   	leaveq 
  803160:	c3                   	retq   

0000000000803161 <get_host_fd>:
  803161:	55                   	push   %rbp
  803162:	48 89 e5             	mov    %rsp,%rbp
  803165:	48 b8 00 40 81 00 00 	movabs $0x814000,%rax
  80316c:	00 00 00 
  80316f:	48 8b 00             	mov    (%rax),%rax
  803172:	5d                   	pop    %rbp
  803173:	c3                   	retq   

0000000000803174 <host_read>:
  803174:	55                   	push   %rbp
  803175:	48 89 e5             	mov    %rsp,%rbp
  803178:	48 83 ec 30          	sub    $0x30,%rsp
  80317c:	89 7d ec             	mov    %edi,-0x14(%rbp)
  80317f:	48 89 75 e0          	mov    %rsi,-0x20(%rbp)
  803183:	48 89 55 d8          	mov    %rdx,-0x28(%rbp)
  803187:	c7 45 fc 00 00 00 00 	movl   $0x0,-0x4(%rbp)
  80318e:	48 b8 00 40 81 00 00 	movabs $0x814000,%rax
  803195:	00 00 00 
  803198:	48 8b 00             	mov    (%rax),%rax
  80319b:	8b 40 0c             	mov    0xc(%rax),%eax
  80319e:	85 c0                	test   %eax,%eax
  8031a0:	75 11                	jne    8031b3 <host_read+0x3f>
  8031a2:	b8 00 00 00 00       	mov    $0x0,%eax
  8031a7:	48 ba 61 33 80 00 00 	movabs $0x803361,%rdx
  8031ae:	00 00 00 
  8031b1:	ff d2                	callq  *%rdx
  8031b3:	48 b8 00 40 81 00 00 	movabs $0x814000,%rax
  8031ba:	00 00 00 
  8031bd:	48 8b 00             	mov    (%rax),%rax
  8031c0:	8b 55 ec             	mov    -0x14(%rbp),%edx
  8031c3:	c1 e2 09             	shl    $0x9,%edx
  8031c6:	89 50 04             	mov    %edx,0x4(%rax)
  8031c9:	e9 8c 00 00 00       	jmpq   80325a <host_read+0xe6>
  8031ce:	48 b8 00 40 81 00 00 	movabs $0x814000,%rax
  8031d5:	00 00 00 
  8031d8:	48 8b 00             	mov    (%rax),%rax
  8031db:	8b 50 0c             	mov    0xc(%rax),%edx
  8031de:	48 b8 00 50 81 00 00 	movabs $0x815000,%rax
  8031e5:	00 00 00 
  8031e8:	89 10                	mov    %edx,(%rax)
  8031ea:	48 b8 00 50 81 00 00 	movabs $0x815000,%rax
  8031f1:	00 00 00 
  8031f4:	48 c7 40 08 00 04 00 	movq   $0x400,0x8(%rax)
  8031fb:	00 
  8031fc:	be 00 00 00 00       	mov    $0x0,%esi
  803201:	bf 03 00 00 00       	mov    $0x3,%edi
  803206:	48 b8 18 31 80 00 00 	movabs $0x803118,%rax
  80320d:	00 00 00 
  803210:	ff d0                	callq  *%rax
  803212:	89 45 f8             	mov    %eax,-0x8(%rbp)
  803215:	83 7d f8 00          	cmpl   $0x0,-0x8(%rbp)
  803219:	79 05                	jns    803220 <host_read+0xac>
  80321b:	8b 45 f8             	mov    -0x8(%rbp),%eax
  80321e:	eb 4a                	jmp    80326a <host_read+0xf6>
  803220:	8b 45 f8             	mov    -0x8(%rbp),%eax
  803223:	48 98                	cltq   
  803225:	8b 55 fc             	mov    -0x4(%rbp),%edx
  803228:	48 63 ca             	movslq %edx,%rcx
  80322b:	48 8b 55 e0          	mov    -0x20(%rbp),%rdx
  80322f:	48 01 d1             	add    %rdx,%rcx
  803232:	48 89 c2             	mov    %rax,%rdx
  803235:	48 be 00 50 81 00 00 	movabs $0x815000,%rsi
  80323c:	00 00 00 
  80323f:	48 89 cf             	mov    %rcx,%rdi
  803242:	48 b8 4a 46 80 00 00 	movabs $0x80464a,%rax
  803249:	00 00 00 
  80324c:	ff d0                	callq  *%rax
  80324e:	81 45 fc 00 04 00 00 	addl   $0x400,-0x4(%rbp)
  803255:	48 83 6d d8 02       	subq   $0x2,-0x28(%rbp)
  80325a:	48 83 7d d8 00       	cmpq   $0x0,-0x28(%rbp)
  80325f:	0f 85 69 ff ff ff    	jne    8031ce <host_read+0x5a>
  803265:	b8 00 00 00 00       	mov    $0x0,%eax
  80326a:	c9                   	leaveq 
  80326b:	c3                   	retq   

000000000080326c <host_write>:
  80326c:	55                   	push   %rbp
  80326d:	48 89 e5             	mov    %rsp,%rbp
  803270:	48 83 ec 30          	sub    $0x30,%rsp
  803274:	89 7d ec             	mov    %edi,-0x14(%rbp)
  803277:	48 89 75 e0          	mov    %rsi,-0x20(%rbp)
  80327b:	48 89 55 d8          	mov    %rdx,-0x28(%rbp)
  80327f:	c7 45 fc 00 00 00 00 	movl   $0x0,-0x4(%rbp)
  803286:	48 b8 00 40 81 00 00 	movabs $0x814000,%rax
  80328d:	00 00 00 
  803290:	48 8b 00             	mov    (%rax),%rax
  803293:	8b 40 0c             	mov    0xc(%rax),%eax
  803296:	85 c0                	test   %eax,%eax
  803298:	75 11                	jne    8032ab <host_write+0x3f>
  80329a:	b8 00 00 00 00       	mov    $0x0,%eax
  80329f:	48 ba 61 33 80 00 00 	movabs $0x803361,%rdx
  8032a6:	00 00 00 
  8032a9:	ff d2                	callq  *%rdx
  8032ab:	48 b8 00 40 81 00 00 	movabs $0x814000,%rax
  8032b2:	00 00 00 
  8032b5:	48 8b 00             	mov    (%rax),%rax
  8032b8:	8b 55 ec             	mov    -0x14(%rbp),%edx
  8032bb:	c1 e2 09             	shl    $0x9,%edx
  8032be:	89 50 04             	mov    %edx,0x4(%rax)
  8032c1:	e9 89 00 00 00       	jmpq   80334f <host_write+0xe3>
  8032c6:	48 b8 00 40 81 00 00 	movabs $0x814000,%rax
  8032cd:	00 00 00 
  8032d0:	48 8b 00             	mov    (%rax),%rax
  8032d3:	8b 50 0c             	mov    0xc(%rax),%edx
  8032d6:	48 b8 00 50 81 00 00 	movabs $0x815000,%rax
  8032dd:	00 00 00 
  8032e0:	89 10                	mov    %edx,(%rax)
  8032e2:	48 b8 00 50 81 00 00 	movabs $0x815000,%rax
  8032e9:	00 00 00 
  8032ec:	48 c7 40 08 00 04 00 	movq   $0x400,0x8(%rax)
  8032f3:	00 
  8032f4:	8b 45 fc             	mov    -0x4(%rbp),%eax
  8032f7:	48 63 d0             	movslq %eax,%rdx
  8032fa:	48 8b 45 e0          	mov    -0x20(%rbp),%rax
  8032fe:	48 01 d0             	add    %rdx,%rax
  803301:	ba 00 04 00 00       	mov    $0x400,%edx
  803306:	48 89 c6             	mov    %rax,%rsi
  803309:	48 bf 10 50 81 00 00 	movabs $0x815010,%rdi
  803310:	00 00 00 
  803313:	48 b8 4a 46 80 00 00 	movabs $0x80464a,%rax
  80331a:	00 00 00 
  80331d:	ff d0                	callq  *%rax
  80331f:	be 00 00 00 00       	mov    $0x0,%esi
  803324:	bf 04 00 00 00       	mov    $0x4,%edi
  803329:	48 b8 18 31 80 00 00 	movabs $0x803118,%rax
  803330:	00 00 00 
  803333:	ff d0                	callq  *%rax
  803335:	89 45 f8             	mov    %eax,-0x8(%rbp)
  803338:	83 7d f8 00          	cmpl   $0x0,-0x8(%rbp)
  80333c:	79 05                	jns    803343 <host_write+0xd7>
  80333e:	8b 45 f8             	mov    -0x8(%rbp),%eax
  803341:	eb 1c                	jmp    80335f <host_write+0xf3>
  803343:	81 45 fc 00 04 00 00 	addl   $0x400,-0x4(%rbp)
  80334a:	48 83 6d d8 02       	subq   $0x2,-0x28(%rbp)
  80334f:	48 83 7d d8 00       	cmpq   $0x0,-0x28(%rbp)
  803354:	0f 85 6c ff ff ff    	jne    8032c6 <host_write+0x5a>
  80335a:	b8 00 00 00 00       	mov    $0x0,%eax
  80335f:	c9                   	leaveq 
  803360:	c3                   	retq   

0000000000803361 <host_ipc_init>:
  803361:	55                   	push   %rbp
  803362:	48 89 e5             	mov    %rsp,%rbp
  803365:	48 83 ec 40          	sub    $0x40,%rsp
  803369:	48 bf 00 40 81 00 00 	movabs $0x814000,%rdi
  803370:	00 00 00 
  803373:	48 b8 0f 55 80 00 00 	movabs $0x80550f,%rax
  80337a:	00 00 00 
  80337d:	ff d0                	callq  *%rax
  80337f:	89 45 fc             	mov    %eax,-0x4(%rbp)
  803382:	83 7d fc 00          	cmpl   $0x0,-0x4(%rbp)
  803386:	79 2a                	jns    8033b2 <host_ipc_init+0x51>
  803388:	48 ba 04 7c 80 00 00 	movabs $0x807c04,%rdx
  80338f:	00 00 00 
  803392:	be 53 00 00 00       	mov    $0x53,%esi
  803397:	48 bf 1d 7c 80 00 00 	movabs $0x807c1d,%rdi
  80339e:	00 00 00 
  8033a1:	b8 00 00 00 00       	mov    $0x0,%eax
  8033a6:	48 b9 38 35 80 00 00 	movabs $0x803538,%rcx
  8033ad:	00 00 00 
  8033b0:	ff d1                	callq  *%rcx
  8033b2:	b8 06 00 00 00       	mov    $0x6,%eax
  8033b7:	0f 01 c1             	vmcall 
  8033ba:	89 45 f8             	mov    %eax,-0x8(%rbp)
  8033bd:	8b 55 f8             	mov    -0x8(%rbp),%edx
  8033c0:	48 8d 45 c0          	lea    -0x40(%rbp),%rax
  8033c4:	89 d1                	mov    %edx,%ecx
  8033c6:	48 ba 2e 7c 80 00 00 	movabs $0x807c2e,%rdx
  8033cd:	00 00 00 
  8033d0:	be 32 00 00 00       	mov    $0x32,%esi
  8033d5:	48 89 c7             	mov    %rax,%rdi
  8033d8:	b8 00 00 00 00       	mov    $0x0,%eax
  8033dd:	49 b8 d9 41 80 00 00 	movabs $0x8041d9,%r8
  8033e4:	00 00 00 
  8033e7:	41 ff d0             	callq  *%r8
  8033ea:	48 8d 45 c0          	lea    -0x40(%rbp),%rax
  8033ee:	48 89 c6             	mov    %rax,%rsi
  8033f1:	48 bf 00 50 81 00 00 	movabs $0x815000,%rdi
  8033f8:	00 00 00 
  8033fb:	48 b8 26 43 80 00 00 	movabs $0x804326,%rax
  803402:	00 00 00 
  803405:	ff d0                	callq  *%rax
  803407:	48 b8 00 50 81 00 00 	movabs $0x815000,%rax
  80340e:	00 00 00 
  803411:	c7 80 00 04 00 00 02 	movl   $0x2,0x400(%rax)
  803418:	00 00 00 
  80341b:	48 b8 00 40 81 00 00 	movabs $0x814000,%rax
  803422:	00 00 00 
  803425:	48 8b 00             	mov    (%rax),%rax
  803428:	48 89 c6             	mov    %rax,%rsi
  80342b:	bf 01 00 00 00       	mov    $0x1,%edi
  803430:	48 b8 18 31 80 00 00 	movabs $0x803118,%rax
  803437:	00 00 00 
  80343a:	ff d0                	callq  *%rax
  80343c:	89 45 fc             	mov    %eax,-0x4(%rbp)
  80343f:	83 7d fc 00          	cmpl   $0x0,-0x4(%rbp)
  803443:	79 4b                	jns    803490 <host_ipc_init+0x12f>
  803445:	48 b8 00 40 81 00 00 	movabs $0x814000,%rax
  80344c:	00 00 00 
  80344f:	48 8b 00             	mov    (%rax),%rax
  803452:	be 00 00 00 00       	mov    $0x0,%esi
  803457:	48 89 c7             	mov    %rax,%rdi
  80345a:	48 b8 37 56 80 00 00 	movabs $0x805637,%rax
  803461:	00 00 00 
  803464:	ff d0                	callq  *%rax
  803466:	48 ba 3c 7c 80 00 00 	movabs $0x807c3c,%rdx
  80346d:	00 00 00 
  803470:	be 5b 00 00 00       	mov    $0x5b,%esi
  803475:	48 bf 1d 7c 80 00 00 	movabs $0x807c1d,%rdi
  80347c:	00 00 00 
  80347f:	b8 00 00 00 00       	mov    $0x0,%eax
  803484:	48 b9 38 35 80 00 00 	movabs $0x803538,%rcx
  80348b:	00 00 00 
  80348e:	ff d1                	callq  *%rcx
  803490:	c9                   	leaveq 
  803491:	c3                   	retq   

0000000000803492 <libmain>:
  803492:	55                   	push   %rbp
  803493:	48 89 e5             	mov    %rsp,%rbp
  803496:	48 83 ec 10          	sub    $0x10,%rsp
  80349a:	89 7d fc             	mov    %edi,-0x4(%rbp)
  80349d:	48 89 75 f0          	mov    %rsi,-0x10(%rbp)
  8034a1:	48 b8 d9 4b 80 00 00 	movabs $0x804bd9,%rax
  8034a8:	00 00 00 
  8034ab:	ff d0                	callq  *%rax
  8034ad:	25 ff 03 00 00       	and    $0x3ff,%eax
  8034b2:	48 98                	cltq   
  8034b4:	48 69 d0 68 01 00 00 	imul   $0x168,%rax,%rdx
  8034bb:	48 b8 00 00 80 00 80 	movabs $0x8000800000,%rax
  8034c2:	00 00 00 
  8034c5:	48 01 c2             	add    %rax,%rdx
  8034c8:	48 b8 20 60 81 00 00 	movabs $0x816020,%rax
  8034cf:	00 00 00 
  8034d2:	48 89 10             	mov    %rdx,(%rax)
  8034d5:	83 7d fc 00          	cmpl   $0x0,-0x4(%rbp)
  8034d9:	7e 14                	jle    8034ef <libmain+0x5d>
  8034db:	48 8b 45 f0          	mov    -0x10(%rbp),%rax
  8034df:	48 8b 10             	mov    (%rax),%rdx
  8034e2:	48 b8 90 20 81 00 00 	movabs $0x812090,%rax
  8034e9:	00 00 00 
  8034ec:	48 89 10             	mov    %rdx,(%rax)
  8034ef:	48 8b 55 f0          	mov    -0x10(%rbp),%rdx
  8034f3:	8b 45 fc             	mov    -0x4(%rbp),%eax
  8034f6:	48 89 d6             	mov    %rdx,%rsi
  8034f9:	89 c7                	mov    %eax,%edi
  8034fb:	48 b8 8f 28 80 00 00 	movabs $0x80288f,%rax
  803502:	00 00 00 
  803505:	ff d0                	callq  *%rax
  803507:	48 b8 15 35 80 00 00 	movabs $0x803515,%rax
  80350e:	00 00 00 
  803511:	ff d0                	callq  *%rax
  803513:	c9                   	leaveq 
  803514:	c3                   	retq   

0000000000803515 <exit>:
  803515:	55                   	push   %rbp
  803516:	48 89 e5             	mov    %rsp,%rbp
  803519:	48 b8 02 58 80 00 00 	movabs $0x805802,%rax
  803520:	00 00 00 
  803523:	ff d0                	callq  *%rax
  803525:	bf 00 00 00 00       	mov    $0x0,%edi
  80352a:	48 b8 95 4b 80 00 00 	movabs $0x804b95,%rax
  803531:	00 00 00 
  803534:	ff d0                	callq  *%rax
  803536:	5d                   	pop    %rbp
  803537:	c3                   	retq   

0000000000803538 <_panic>:
  803538:	55                   	push   %rbp
  803539:	48 89 e5             	mov    %rsp,%rbp
  80353c:	53                   	push   %rbx
  80353d:	48 81 ec f8 00 00 00 	sub    $0xf8,%rsp
  803544:	48 89 bd 18 ff ff ff 	mov    %rdi,-0xe8(%rbp)
  80354b:	89 b5 14 ff ff ff    	mov    %esi,-0xec(%rbp)
  803551:	48 89 8d 58 ff ff ff 	mov    %rcx,-0xa8(%rbp)
  803558:	4c 89 85 60 ff ff ff 	mov    %r8,-0xa0(%rbp)
  80355f:	4c 89 8d 68 ff ff ff 	mov    %r9,-0x98(%rbp)
  803566:	84 c0                	test   %al,%al
  803568:	74 23                	je     80358d <_panic+0x55>
  80356a:	0f 29 85 70 ff ff ff 	movaps %xmm0,-0x90(%rbp)
  803571:	0f 29 4d 80          	movaps %xmm1,-0x80(%rbp)
  803575:	0f 29 55 90          	movaps %xmm2,-0x70(%rbp)
  803579:	0f 29 5d a0          	movaps %xmm3,-0x60(%rbp)
  80357d:	0f 29 65 b0          	movaps %xmm4,-0x50(%rbp)
  803581:	0f 29 6d c0          	movaps %xmm5,-0x40(%rbp)
  803585:	0f 29 75 d0          	movaps %xmm6,-0x30(%rbp)
  803589:	0f 29 7d e0          	movaps %xmm7,-0x20(%rbp)
  80358d:	48 89 95 08 ff ff ff 	mov    %rdx,-0xf8(%rbp)
  803594:	c7 85 28 ff ff ff 18 	movl   $0x18,-0xd8(%rbp)
  80359b:	00 00 00 
  80359e:	c7 85 2c ff ff ff 30 	movl   $0x30,-0xd4(%rbp)
  8035a5:	00 00 00 
  8035a8:	48 8d 45 10          	lea    0x10(%rbp),%rax
  8035ac:	48 89 85 30 ff ff ff 	mov    %rax,-0xd0(%rbp)
  8035b3:	48 8d 85 40 ff ff ff 	lea    -0xc0(%rbp),%rax
  8035ba:	48 89 85 38 ff ff ff 	mov    %rax,-0xc8(%rbp)
  8035c1:	48 b8 90 20 81 00 00 	movabs $0x812090,%rax
  8035c8:	00 00 00 
  8035cb:	48 8b 18             	mov    (%rax),%rbx
  8035ce:	48 b8 d9 4b 80 00 00 	movabs $0x804bd9,%rax
  8035d5:	00 00 00 
  8035d8:	ff d0                	callq  *%rax
  8035da:	8b 8d 14 ff ff ff    	mov    -0xec(%rbp),%ecx
  8035e0:	48 8b 95 18 ff ff ff 	mov    -0xe8(%rbp),%rdx
  8035e7:	41 89 c8             	mov    %ecx,%r8d
  8035ea:	48 89 d1             	mov    %rdx,%rcx
  8035ed:	48 89 da             	mov    %rbx,%rdx
  8035f0:	89 c6                	mov    %eax,%esi
  8035f2:	48 bf 60 7c 80 00 00 	movabs $0x807c60,%rdi
  8035f9:	00 00 00 
  8035fc:	b8 00 00 00 00       	mov    $0x0,%eax
  803601:	49 b9 71 37 80 00 00 	movabs $0x803771,%r9
  803608:	00 00 00 
  80360b:	41 ff d1             	callq  *%r9
  80360e:	48 8d 95 28 ff ff ff 	lea    -0xd8(%rbp),%rdx
  803615:	48 8b 85 08 ff ff ff 	mov    -0xf8(%rbp),%rax
  80361c:	48 89 d6             	mov    %rdx,%rsi
  80361f:	48 89 c7             	mov    %rax,%rdi
  803622:	48 b8 c5 36 80 00 00 	movabs $0x8036c5,%rax
  803629:	00 00 00 
  80362c:	ff d0                	callq  *%rax
  80362e:	48 bf 83 7c 80 00 00 	movabs $0x807c83,%rdi
  803635:	00 00 00 
  803638:	b8 00 00 00 00       	mov    $0x0,%eax
  80363d:	48 ba 71 37 80 00 00 	movabs $0x803771,%rdx
  803644:	00 00 00 
  803647:	ff d2                	callq  *%rdx
  803649:	cc                   	int3   
  80364a:	eb fd                	jmp    803649 <_panic+0x111>

000000000080364c <putch>:
  80364c:	55                   	push   %rbp
  80364d:	48 89 e5             	mov    %rsp,%rbp
  803650:	48 83 ec 10          	sub    $0x10,%rsp
  803654:	89 7d fc             	mov    %edi,-0x4(%rbp)
  803657:	48 89 75 f0          	mov    %rsi,-0x10(%rbp)
  80365b:	48 8b 45 f0          	mov    -0x10(%rbp),%rax
  80365f:	8b 00                	mov    (%rax),%eax
  803661:	8d 48 01             	lea    0x1(%rax),%ecx
  803664:	48 8b 55 f0          	mov    -0x10(%rbp),%rdx
  803668:	89 0a                	mov    %ecx,(%rdx)
  80366a:	8b 55 fc             	mov    -0x4(%rbp),%edx
  80366d:	89 d1                	mov    %edx,%ecx
  80366f:	48 8b 55 f0          	mov    -0x10(%rbp),%rdx
  803673:	48 98                	cltq   
  803675:	88 4c 02 08          	mov    %cl,0x8(%rdx,%rax,1)
  803679:	48 8b 45 f0          	mov    -0x10(%rbp),%rax
  80367d:	8b 00                	mov    (%rax),%eax
  80367f:	3d ff 00 00 00       	cmp    $0xff,%eax
  803684:	75 2c                	jne    8036b2 <putch+0x66>
  803686:	48 8b 45 f0          	mov    -0x10(%rbp),%rax
  80368a:	8b 00                	mov    (%rax),%eax
  80368c:	48 98                	cltq   
  80368e:	48 8b 55 f0          	mov    -0x10(%rbp),%rdx
  803692:	48 83 c2 08          	add    $0x8,%rdx
  803696:	48 89 c6             	mov    %rax,%rsi
  803699:	48 89 d7             	mov    %rdx,%rdi
  80369c:	48 b8 0d 4b 80 00 00 	movabs $0x804b0d,%rax
  8036a3:	00 00 00 
  8036a6:	ff d0                	callq  *%rax
  8036a8:	48 8b 45 f0          	mov    -0x10(%rbp),%rax
  8036ac:	c7 00 00 00 00 00    	movl   $0x0,(%rax)
  8036b2:	48 8b 45 f0          	mov    -0x10(%rbp),%rax
  8036b6:	8b 40 04             	mov    0x4(%rax),%eax
  8036b9:	8d 50 01             	lea    0x1(%rax),%edx
  8036bc:	48 8b 45 f0          	mov    -0x10(%rbp),%rax
  8036c0:	89 50 04             	mov    %edx,0x4(%rax)
  8036c3:	c9                   	leaveq 
  8036c4:	c3                   	retq   

00000000008036c5 <vcprintf>:
  8036c5:	55                   	push   %rbp
  8036c6:	48 89 e5             	mov    %rsp,%rbp
  8036c9:	48 81 ec 40 01 00 00 	sub    $0x140,%rsp
  8036d0:	48 89 bd c8 fe ff ff 	mov    %rdi,-0x138(%rbp)
  8036d7:	48 89 b5 c0 fe ff ff 	mov    %rsi,-0x140(%rbp)
  8036de:	48 8d 85 d8 fe ff ff 	lea    -0x128(%rbp),%rax
  8036e5:	48 8b 95 c0 fe ff ff 	mov    -0x140(%rbp),%rdx
  8036ec:	48 8b 0a             	mov    (%rdx),%rcx
  8036ef:	48 89 08             	mov    %rcx,(%rax)
  8036f2:	48 8b 4a 08          	mov    0x8(%rdx),%rcx
  8036f6:	48 89 48 08          	mov    %rcx,0x8(%rax)
  8036fa:	48 8b 52 10          	mov    0x10(%rdx),%rdx
  8036fe:	48 89 50 10          	mov    %rdx,0x10(%rax)
  803702:	c7 85 f0 fe ff ff 00 	movl   $0x0,-0x110(%rbp)
  803709:	00 00 00 
  80370c:	c7 85 f4 fe ff ff 00 	movl   $0x0,-0x10c(%rbp)
  803713:	00 00 00 
  803716:	48 8d 8d d8 fe ff ff 	lea    -0x128(%rbp),%rcx
  80371d:	48 8b 95 c8 fe ff ff 	mov    -0x138(%rbp),%rdx
  803724:	48 8d 85 f0 fe ff ff 	lea    -0x110(%rbp),%rax
  80372b:	48 89 c6             	mov    %rax,%rsi
  80372e:	48 bf 4c 36 80 00 00 	movabs $0x80364c,%rdi
  803735:	00 00 00 
  803738:	48 b8 24 3b 80 00 00 	movabs $0x803b24,%rax
  80373f:	00 00 00 
  803742:	ff d0                	callq  *%rax
  803744:	8b 85 f0 fe ff ff    	mov    -0x110(%rbp),%eax
  80374a:	48 98                	cltq   
  80374c:	48 8d 95 f0 fe ff ff 	lea    -0x110(%rbp),%rdx
  803753:	48 83 c2 08          	add    $0x8,%rdx
  803757:	48 89 c6             	mov    %rax,%rsi
  80375a:	48 89 d7             	mov    %rdx,%rdi
  80375d:	48 b8 0d 4b 80 00 00 	movabs $0x804b0d,%rax
  803764:	00 00 00 
  803767:	ff d0                	callq  *%rax
  803769:	8b 85 f4 fe ff ff    	mov    -0x10c(%rbp),%eax
  80376f:	c9                   	leaveq 
  803770:	c3                   	retq   

0000000000803771 <cprintf>:
  803771:	55                   	push   %rbp
  803772:	48 89 e5             	mov    %rsp,%rbp
  803775:	48 81 ec 00 01 00 00 	sub    $0x100,%rsp
  80377c:	48 89 b5 58 ff ff ff 	mov    %rsi,-0xa8(%rbp)
  803783:	48 89 95 60 ff ff ff 	mov    %rdx,-0xa0(%rbp)
  80378a:	48 89 8d 68 ff ff ff 	mov    %rcx,-0x98(%rbp)
  803791:	4c 89 85 70 ff ff ff 	mov    %r8,-0x90(%rbp)
  803798:	4c 89 8d 78 ff ff ff 	mov    %r9,-0x88(%rbp)
  80379f:	84 c0                	test   %al,%al
  8037a1:	74 20                	je     8037c3 <cprintf+0x52>
  8037a3:	0f 29 45 80          	movaps %xmm0,-0x80(%rbp)
  8037a7:	0f 29 4d 90          	movaps %xmm1,-0x70(%rbp)
  8037ab:	0f 29 55 a0          	movaps %xmm2,-0x60(%rbp)
  8037af:	0f 29 5d b0          	movaps %xmm3,-0x50(%rbp)
  8037b3:	0f 29 65 c0          	movaps %xmm4,-0x40(%rbp)
  8037b7:	0f 29 6d d0          	movaps %xmm5,-0x30(%rbp)
  8037bb:	0f 29 75 e0          	movaps %xmm6,-0x20(%rbp)
  8037bf:	0f 29 7d f0          	movaps %xmm7,-0x10(%rbp)
  8037c3:	48 89 bd 08 ff ff ff 	mov    %rdi,-0xf8(%rbp)
  8037ca:	c7 85 30 ff ff ff 08 	movl   $0x8,-0xd0(%rbp)
  8037d1:	00 00 00 
  8037d4:	c7 85 34 ff ff ff 30 	movl   $0x30,-0xcc(%rbp)
  8037db:	00 00 00 
  8037de:	48 8d 45 10          	lea    0x10(%rbp),%rax
  8037e2:	48 89 85 38 ff ff ff 	mov    %rax,-0xc8(%rbp)
  8037e9:	48 8d 85 50 ff ff ff 	lea    -0xb0(%rbp),%rax
  8037f0:	48 89 85 40 ff ff ff 	mov    %rax,-0xc0(%rbp)
  8037f7:	48 8d 85 18 ff ff ff 	lea    -0xe8(%rbp),%rax
  8037fe:	48 8d 95 30 ff ff ff 	lea    -0xd0(%rbp),%rdx
  803805:	48 8b 0a             	mov    (%rdx),%rcx
  803808:	48 89 08             	mov    %rcx,(%rax)
  80380b:	48 8b 4a 08          	mov    0x8(%rdx),%rcx
  80380f:	48 89 48 08          	mov    %rcx,0x8(%rax)
  803813:	48 8b 52 10          	mov    0x10(%rdx),%rdx
  803817:	48 89 50 10          	mov    %rdx,0x10(%rax)
  80381b:	48 8d 95 18 ff ff ff 	lea    -0xe8(%rbp),%rdx
  803822:	48 8b 85 08 ff ff ff 	mov    -0xf8(%rbp),%rax
  803829:	48 89 d6             	mov    %rdx,%rsi
  80382c:	48 89 c7             	mov    %rax,%rdi
  80382f:	48 b8 c5 36 80 00 00 	movabs $0x8036c5,%rax
  803836:	00 00 00 
  803839:	ff d0                	callq  *%rax
  80383b:	89 85 4c ff ff ff    	mov    %eax,-0xb4(%rbp)
  803841:	8b 85 4c ff ff ff    	mov    -0xb4(%rbp),%eax
  803847:	c9                   	leaveq 
  803848:	c3                   	retq   

0000000000803849 <printnum>:
  803849:	55                   	push   %rbp
  80384a:	48 89 e5             	mov    %rsp,%rbp
  80384d:	53                   	push   %rbx
  80384e:	48 83 ec 38          	sub    $0x38,%rsp
  803852:	48 89 7d e8          	mov    %rdi,-0x18(%rbp)
  803856:	48 89 75 e0          	mov    %rsi,-0x20(%rbp)
  80385a:	48 89 55 d8          	mov    %rdx,-0x28(%rbp)
  80385e:	89 4d d4             	mov    %ecx,-0x2c(%rbp)
  803861:	44 89 45 d0          	mov    %r8d,-0x30(%rbp)
  803865:	44 89 4d cc          	mov    %r9d,-0x34(%rbp)
  803869:	8b 45 d4             	mov    -0x2c(%rbp),%eax
  80386c:	48 3b 45 d8          	cmp    -0x28(%rbp),%rax
  803870:	77 3b                	ja     8038ad <printnum+0x64>
  803872:	8b 45 d0             	mov    -0x30(%rbp),%eax
  803875:	44 8d 40 ff          	lea    -0x1(%rax),%r8d
  803879:	8b 5d d4             	mov    -0x2c(%rbp),%ebx
  80387c:	48 8b 45 d8          	mov    -0x28(%rbp),%rax
  803880:	ba 00 00 00 00       	mov    $0x0,%edx
  803885:	48 f7 f3             	div    %rbx
  803888:	48 89 c2             	mov    %rax,%rdx
  80388b:	8b 7d cc             	mov    -0x34(%rbp),%edi
  80388e:	8b 4d d4             	mov    -0x2c(%rbp),%ecx
  803891:	48 8b 75 e0          	mov    -0x20(%rbp),%rsi
  803895:	48 8b 45 e8          	mov    -0x18(%rbp),%rax
  803899:	41 89 f9             	mov    %edi,%r9d
  80389c:	48 89 c7             	mov    %rax,%rdi
  80389f:	48 b8 49 38 80 00 00 	movabs $0x803849,%rax
  8038a6:	00 00 00 
  8038a9:	ff d0                	callq  *%rax
  8038ab:	eb 1e                	jmp    8038cb <printnum+0x82>
  8038ad:	eb 12                	jmp    8038c1 <printnum+0x78>
  8038af:	48 8b 4d e0          	mov    -0x20(%rbp),%rcx
  8038b3:	8b 55 cc             	mov    -0x34(%rbp),%edx
  8038b6:	48 8b 45 e8          	mov    -0x18(%rbp),%rax
  8038ba:	48 89 ce             	mov    %rcx,%rsi
  8038bd:	89 d7                	mov    %edx,%edi
  8038bf:	ff d0                	callq  *%rax
  8038c1:	83 6d d0 01          	subl   $0x1,-0x30(%rbp)
  8038c5:	83 7d d0 00          	cmpl   $0x0,-0x30(%rbp)
  8038c9:	7f e4                	jg     8038af <printnum+0x66>
  8038cb:	8b 4d d4             	mov    -0x2c(%rbp),%ecx
  8038ce:	48 8b 45 d8          	mov    -0x28(%rbp),%rax
  8038d2:	ba 00 00 00 00       	mov    $0x0,%edx
  8038d7:	48 f7 f1             	div    %rcx
  8038da:	48 89 d0             	mov    %rdx,%rax
  8038dd:	48 ba 90 7e 80 00 00 	movabs $0x807e90,%rdx
  8038e4:	00 00 00 
  8038e7:	0f b6 04 02          	movzbl (%rdx,%rax,1),%eax
  8038eb:	0f be d0             	movsbl %al,%edx
  8038ee:	48 8b 4d e0          	mov    -0x20(%rbp),%rcx
  8038f2:	48 8b 45 e8          	mov    -0x18(%rbp),%rax
  8038f6:	48 89 ce             	mov    %rcx,%rsi
  8038f9:	89 d7                	mov    %edx,%edi
  8038fb:	ff d0                	callq  *%rax
  8038fd:	48 83 c4 38          	add    $0x38,%rsp
  803901:	5b                   	pop    %rbx
  803902:	5d                   	pop    %rbp
  803903:	c3                   	retq   

0000000000803904 <getuint>:
  803904:	55                   	push   %rbp
  803905:	48 89 e5             	mov    %rsp,%rbp
  803908:	48 83 ec 1c          	sub    $0x1c,%rsp
  80390c:	48 89 7d e8          	mov    %rdi,-0x18(%rbp)
  803910:	89 75 e4             	mov    %esi,-0x1c(%rbp)
  803913:	83 7d e4 01          	cmpl   $0x1,-0x1c(%rbp)
  803917:	7e 52                	jle    80396b <getuint+0x67>
  803919:	48 8b 45 e8          	mov    -0x18(%rbp),%rax
  80391d:	8b 00                	mov    (%rax),%eax
  80391f:	83 f8 30             	cmp    $0x30,%eax
  803922:	73 24                	jae    803948 <getuint+0x44>
  803924:	48 8b 45 e8          	mov    -0x18(%rbp),%rax
  803928:	48 8b 50 10          	mov    0x10(%rax),%rdx
  80392c:	48 8b 45 e8          	mov    -0x18(%rbp),%rax
  803930:	8b 00                	mov    (%rax),%eax
  803932:	89 c0                	mov    %eax,%eax
  803934:	48 01 d0             	add    %rdx,%rax
  803937:	48 8b 55 e8          	mov    -0x18(%rbp),%rdx
  80393b:	8b 12                	mov    (%rdx),%edx
  80393d:	8d 4a 08             	lea    0x8(%rdx),%ecx
  803940:	48 8b 55 e8          	mov    -0x18(%rbp),%rdx
  803944:	89 0a                	mov    %ecx,(%rdx)
  803946:	eb 17                	jmp    80395f <getuint+0x5b>
  803948:	48 8b 45 e8          	mov    -0x18(%rbp),%rax
  80394c:	48 8b 50 08          	mov    0x8(%rax),%rdx
  803950:	48 89 d0             	mov    %rdx,%rax
  803953:	48 8d 4a 08          	lea    0x8(%rdx),%rcx
  803957:	48 8b 55 e8          	mov    -0x18(%rbp),%rdx
  80395b:	48 89 4a 08          	mov    %rcx,0x8(%rdx)
  80395f:	48 8b 00             	mov    (%rax),%rax
  803962:	48 89 45 f8          	mov    %rax,-0x8(%rbp)
  803966:	e9 a3 00 00 00       	jmpq   803a0e <getuint+0x10a>
  80396b:	83 7d e4 00          	cmpl   $0x0,-0x1c(%rbp)
  80396f:	74 4f                	je     8039c0 <getuint+0xbc>
  803971:	48 8b 45 e8          	mov    -0x18(%rbp),%rax
  803975:	8b 00                	mov    (%rax),%eax
  803977:	83 f8 30             	cmp    $0x30,%eax
  80397a:	73 24                	jae    8039a0 <getuint+0x9c>
  80397c:	48 8b 45 e8          	mov    -0x18(%rbp),%rax
  803980:	48 8b 50 10          	mov    0x10(%rax),%rdx
  803984:	48 8b 45 e8          	mov    -0x18(%rbp),%rax
  803988:	8b 00                	mov    (%rax),%eax
  80398a:	89 c0                	mov    %eax,%eax
  80398c:	48 01 d0             	add    %rdx,%rax
  80398f:	48 8b 55 e8          	mov    -0x18(%rbp),%rdx
  803993:	8b 12                	mov    (%rdx),%edx
  803995:	8d 4a 08             	lea    0x8(%rdx),%ecx
  803998:	48 8b 55 e8          	mov    -0x18(%rbp),%rdx
  80399c:	89 0a                	mov    %ecx,(%rdx)
  80399e:	eb 17                	jmp    8039b7 <getuint+0xb3>
  8039a0:	48 8b 45 e8          	mov    -0x18(%rbp),%rax
  8039a4:	48 8b 50 08          	mov    0x8(%rax),%rdx
  8039a8:	48 89 d0             	mov    %rdx,%rax
  8039ab:	48 8d 4a 08          	lea    0x8(%rdx),%rcx
  8039af:	48 8b 55 e8          	mov    -0x18(%rbp),%rdx
  8039b3:	48 89 4a 08          	mov    %rcx,0x8(%rdx)
  8039b7:	48 8b 00             	mov    (%rax),%rax
  8039ba:	48 89 45 f8          	mov    %rax,-0x8(%rbp)
  8039be:	eb 4e                	jmp    803a0e <getuint+0x10a>
  8039c0:	48 8b 45 e8          	mov    -0x18(%rbp),%rax
  8039c4:	8b 00                	mov    (%rax),%eax
  8039c6:	83 f8 30             	cmp    $0x30,%eax
  8039c9:	73 24                	jae    8039ef <getuint+0xeb>
  8039cb:	48 8b 45 e8          	mov    -0x18(%rbp),%rax
  8039cf:	48 8b 50 10          	mov    0x10(%rax),%rdx
  8039d3:	48 8b 45 e8          	mov    -0x18(%rbp),%rax
  8039d7:	8b 00                	mov    (%rax),%eax
  8039d9:	89 c0                	mov    %eax,%eax
  8039db:	48 01 d0             	add    %rdx,%rax
  8039de:	48 8b 55 e8          	mov    -0x18(%rbp),%rdx
  8039e2:	8b 12                	mov    (%rdx),%edx
  8039e4:	8d 4a 08             	lea    0x8(%rdx),%ecx
  8039e7:	48 8b 55 e8          	mov    -0x18(%rbp),%rdx
  8039eb:	89 0a                	mov    %ecx,(%rdx)
  8039ed:	eb 17                	jmp    803a06 <getuint+0x102>
  8039ef:	48 8b 45 e8          	mov    -0x18(%rbp),%rax
  8039f3:	48 8b 50 08          	mov    0x8(%rax),%rdx
  8039f7:	48 89 d0             	mov    %rdx,%rax
  8039fa:	48 8d 4a 08          	lea    0x8(%rdx),%rcx
  8039fe:	48 8b 55 e8          	mov    -0x18(%rbp),%rdx
  803a02:	48 89 4a 08          	mov    %rcx,0x8(%rdx)
  803a06:	8b 00                	mov    (%rax),%eax
  803a08:	89 c0                	mov    %eax,%eax
  803a0a:	48 89 45 f8          	mov    %rax,-0x8(%rbp)
  803a0e:	48 8b 45 f8          	mov    -0x8(%rbp),%rax
  803a12:	c9                   	leaveq 
  803a13:	c3                   	retq   

0000000000803a14 <getint>:
  803a14:	55                   	push   %rbp
  803a15:	48 89 e5             	mov    %rsp,%rbp
  803a18:	48 83 ec 1c          	sub    $0x1c,%rsp
  803a1c:	48 89 7d e8          	mov    %rdi,-0x18(%rbp)
  803a20:	89 75 e4             	mov    %esi,-0x1c(%rbp)
  803a23:	83 7d e4 01          	cmpl   $0x1,-0x1c(%rbp)
  803a27:	7e 52                	jle    803a7b <getint+0x67>
  803a29:	48 8b 45 e8          	mov    -0x18(%rbp),%rax
  803a2d:	8b 00                	mov    (%rax),%eax
  803a2f:	83 f8 30             	cmp    $0x30,%eax
  803a32:	73 24                	jae    803a58 <getint+0x44>
  803a34:	48 8b 45 e8          	mov    -0x18(%rbp),%rax
  803a38:	48 8b 50 10          	mov    0x10(%rax),%rdx
  803a3c:	48 8b 45 e8          	mov    -0x18(%rbp),%rax
  803a40:	8b 00                	mov    (%rax),%eax
  803a42:	89 c0                	mov    %eax,%eax
  803a44:	48 01 d0             	add    %rdx,%rax
  803a47:	48 8b 55 e8          	mov    -0x18(%rbp),%rdx
  803a4b:	8b 12                	mov    (%rdx),%edx
  803a4d:	8d 4a 08             	lea    0x8(%rdx),%ecx
  803a50:	48 8b 55 e8          	mov    -0x18(%rbp),%rdx
  803a54:	89 0a                	mov    %ecx,(%rdx)
  803a56:	eb 17                	jmp    803a6f <getint+0x5b>
  803a58:	48 8b 45 e8          	mov    -0x18(%rbp),%rax
  803a5c:	48 8b 50 08          	mov    0x8(%rax),%rdx
  803a60:	48 89 d0             	mov    %rdx,%rax
  803a63:	48 8d 4a 08          	lea    0x8(%rdx),%rcx
  803a67:	48 8b 55 e8          	mov    -0x18(%rbp),%rdx
  803a6b:	48 89 4a 08          	mov    %rcx,0x8(%rdx)
  803a6f:	48 8b 00             	mov    (%rax),%rax
  803a72:	48 89 45 f8          	mov    %rax,-0x8(%rbp)
  803a76:	e9 a3 00 00 00       	jmpq   803b1e <getint+0x10a>
  803a7b:	83 7d e4 00          	cmpl   $0x0,-0x1c(%rbp)
  803a7f:	74 4f                	je     803ad0 <getint+0xbc>
  803a81:	48 8b 45 e8          	mov    -0x18(%rbp),%rax
  803a85:	8b 00                	mov    (%rax),%eax
  803a87:	83 f8 30             	cmp    $0x30,%eax
  803a8a:	73 24                	jae    803ab0 <getint+0x9c>
  803a8c:	48 8b 45 e8          	mov    -0x18(%rbp),%rax
  803a90:	48 8b 50 10          	mov    0x10(%rax),%rdx
  803a94:	48 8b 45 e8          	mov    -0x18(%rbp),%rax
  803a98:	8b 00                	mov    (%rax),%eax
  803a9a:	89 c0                	mov    %eax,%eax
  803a9c:	48 01 d0             	add    %rdx,%rax
  803a9f:	48 8b 55 e8          	mov    -0x18(%rbp),%rdx
  803aa3:	8b 12                	mov    (%rdx),%edx
  803aa5:	8d 4a 08             	lea    0x8(%rdx),%ecx
  803aa8:	48 8b 55 e8          	mov    -0x18(%rbp),%rdx
  803aac:	89 0a                	mov    %ecx,(%rdx)
  803aae:	eb 17                	jmp    803ac7 <getint+0xb3>
  803ab0:	48 8b 45 e8          	mov    -0x18(%rbp),%rax
  803ab4:	48 8b 50 08          	mov    0x8(%rax),%rdx
  803ab8:	48 89 d0             	mov    %rdx,%rax
  803abb:	48 8d 4a 08          	lea    0x8(%rdx),%rcx
  803abf:	48 8b 55 e8          	mov    -0x18(%rbp),%rdx
  803ac3:	48 89 4a 08          	mov    %rcx,0x8(%rdx)
  803ac7:	48 8b 00             	mov    (%rax),%rax
  803aca:	48 89 45 f8          	mov    %rax,-0x8(%rbp)
  803ace:	eb 4e                	jmp    803b1e <getint+0x10a>
  803ad0:	48 8b 45 e8          	mov    -0x18(%rbp),%rax
  803ad4:	8b 00                	mov    (%rax),%eax
  803ad6:	83 f8 30             	cmp    $0x30,%eax
  803ad9:	73 24                	jae    803aff <getint+0xeb>
  803adb:	48 8b 45 e8          	mov    -0x18(%rbp),%rax
  803adf:	48 8b 50 10          	mov    0x10(%rax),%rdx
  803ae3:	48 8b 45 e8          	mov    -0x18(%rbp),%rax
  803ae7:	8b 00                	mov    (%rax),%eax
  803ae9:	89 c0                	mov    %eax,%eax
  803aeb:	48 01 d0             	add    %rdx,%rax
  803aee:	48 8b 55 e8          	mov    -0x18(%rbp),%rdx
  803af2:	8b 12                	mov    (%rdx),%edx
  803af4:	8d 4a 08             	lea    0x8(%rdx),%ecx
  803af7:	48 8b 55 e8          	mov    -0x18(%rbp),%rdx
  803afb:	89 0a                	mov    %ecx,(%rdx)
  803afd:	eb 17                	jmp    803b16 <getint+0x102>
  803aff:	48 8b 45 e8          	mov    -0x18(%rbp),%rax
  803b03:	48 8b 50 08          	mov    0x8(%rax),%rdx
  803b07:	48 89 d0             	mov    %rdx,%rax
  803b0a:	48 8d 4a 08          	lea    0x8(%rdx),%rcx
  803b0e:	48 8b 55 e8          	mov    -0x18(%rbp),%rdx
  803b12:	48 89 4a 08          	mov    %rcx,0x8(%rdx)
  803b16:	8b 00                	mov    (%rax),%eax
  803b18:	48 98                	cltq   
  803b1a:	48 89 45 f8          	mov    %rax,-0x8(%rbp)
  803b1e:	48 8b 45 f8          	mov    -0x8(%rbp),%rax
  803b22:	c9                   	leaveq 
  803b23:	c3                   	retq   

0000000000803b24 <vprintfmt>:
  803b24:	55                   	push   %rbp
  803b25:	48 89 e5             	mov    %rsp,%rbp
  803b28:	41 54                	push   %r12
  803b2a:	53                   	push   %rbx
  803b2b:	48 83 ec 60          	sub    $0x60,%rsp
  803b2f:	48 89 7d a8          	mov    %rdi,-0x58(%rbp)
  803b33:	48 89 75 a0          	mov    %rsi,-0x60(%rbp)
  803b37:	48 89 55 98          	mov    %rdx,-0x68(%rbp)
  803b3b:	48 89 4d 90          	mov    %rcx,-0x70(%rbp)
  803b3f:	48 8d 45 b8          	lea    -0x48(%rbp),%rax
  803b43:	48 8b 55 90          	mov    -0x70(%rbp),%rdx
  803b47:	48 8b 0a             	mov    (%rdx),%rcx
  803b4a:	48 89 08             	mov    %rcx,(%rax)
  803b4d:	48 8b 4a 08          	mov    0x8(%rdx),%rcx
  803b51:	48 89 48 08          	mov    %rcx,0x8(%rax)
  803b55:	48 8b 52 10          	mov    0x10(%rdx),%rdx
  803b59:	48 89 50 10          	mov    %rdx,0x10(%rax)
  803b5d:	eb 17                	jmp    803b76 <vprintfmt+0x52>
  803b5f:	85 db                	test   %ebx,%ebx
  803b61:	0f 84 cc 04 00 00    	je     804033 <vprintfmt+0x50f>
  803b67:	48 8b 55 a0          	mov    -0x60(%rbp),%rdx
  803b6b:	48 8b 45 a8          	mov    -0x58(%rbp),%rax
  803b6f:	48 89 d6             	mov    %rdx,%rsi
  803b72:	89 df                	mov    %ebx,%edi
  803b74:	ff d0                	callq  *%rax
  803b76:	48 8b 45 98          	mov    -0x68(%rbp),%rax
  803b7a:	48 8d 50 01          	lea    0x1(%rax),%rdx
  803b7e:	48 89 55 98          	mov    %rdx,-0x68(%rbp)
  803b82:	0f b6 00             	movzbl (%rax),%eax
  803b85:	0f b6 d8             	movzbl %al,%ebx
  803b88:	83 fb 25             	cmp    $0x25,%ebx
  803b8b:	75 d2                	jne    803b5f <vprintfmt+0x3b>
  803b8d:	c6 45 d3 20          	movb   $0x20,-0x2d(%rbp)
  803b91:	c7 45 dc ff ff ff ff 	movl   $0xffffffff,-0x24(%rbp)
  803b98:	c7 45 d8 ff ff ff ff 	movl   $0xffffffff,-0x28(%rbp)
  803b9f:	c7 45 e0 00 00 00 00 	movl   $0x0,-0x20(%rbp)
  803ba6:	c7 45 d4 00 00 00 00 	movl   $0x0,-0x2c(%rbp)
  803bad:	48 8b 45 98          	mov    -0x68(%rbp),%rax
  803bb1:	48 8d 50 01          	lea    0x1(%rax),%rdx
  803bb5:	48 89 55 98          	mov    %rdx,-0x68(%rbp)
  803bb9:	0f b6 00             	movzbl (%rax),%eax
  803bbc:	0f b6 d8             	movzbl %al,%ebx
  803bbf:	8d 43 dd             	lea    -0x23(%rbx),%eax
  803bc2:	83 f8 55             	cmp    $0x55,%eax
  803bc5:	0f 87 34 04 00 00    	ja     803fff <vprintfmt+0x4db>
  803bcb:	89 c0                	mov    %eax,%eax
  803bcd:	48 8d 14 c5 00 00 00 	lea    0x0(,%rax,8),%rdx
  803bd4:	00 
  803bd5:	48 b8 b8 7e 80 00 00 	movabs $0x807eb8,%rax
  803bdc:	00 00 00 
  803bdf:	48 01 d0             	add    %rdx,%rax
  803be2:	48 8b 00             	mov    (%rax),%rax
  803be5:	ff e0                	jmpq   *%rax
  803be7:	c6 45 d3 2d          	movb   $0x2d,-0x2d(%rbp)
  803beb:	eb c0                	jmp    803bad <vprintfmt+0x89>
  803bed:	c6 45 d3 30          	movb   $0x30,-0x2d(%rbp)
  803bf1:	eb ba                	jmp    803bad <vprintfmt+0x89>
  803bf3:	c7 45 d8 00 00 00 00 	movl   $0x0,-0x28(%rbp)
  803bfa:	8b 55 d8             	mov    -0x28(%rbp),%edx
  803bfd:	89 d0                	mov    %edx,%eax
  803bff:	c1 e0 02             	shl    $0x2,%eax
  803c02:	01 d0                	add    %edx,%eax
  803c04:	01 c0                	add    %eax,%eax
  803c06:	01 d8                	add    %ebx,%eax
  803c08:	83 e8 30             	sub    $0x30,%eax
  803c0b:	89 45 d8             	mov    %eax,-0x28(%rbp)
  803c0e:	48 8b 45 98          	mov    -0x68(%rbp),%rax
  803c12:	0f b6 00             	movzbl (%rax),%eax
  803c15:	0f be d8             	movsbl %al,%ebx
  803c18:	83 fb 2f             	cmp    $0x2f,%ebx
  803c1b:	7e 0c                	jle    803c29 <vprintfmt+0x105>
  803c1d:	83 fb 39             	cmp    $0x39,%ebx
  803c20:	7f 07                	jg     803c29 <vprintfmt+0x105>
  803c22:	48 83 45 98 01       	addq   $0x1,-0x68(%rbp)
  803c27:	eb d1                	jmp    803bfa <vprintfmt+0xd6>
  803c29:	eb 58                	jmp    803c83 <vprintfmt+0x15f>
  803c2b:	8b 45 b8             	mov    -0x48(%rbp),%eax
  803c2e:	83 f8 30             	cmp    $0x30,%eax
  803c31:	73 17                	jae    803c4a <vprintfmt+0x126>
  803c33:	48 8b 55 c8          	mov    -0x38(%rbp),%rdx
  803c37:	8b 45 b8             	mov    -0x48(%rbp),%eax
  803c3a:	89 c0                	mov    %eax,%eax
  803c3c:	48 01 d0             	add    %rdx,%rax
  803c3f:	8b 55 b8             	mov    -0x48(%rbp),%edx
  803c42:	83 c2 08             	add    $0x8,%edx
  803c45:	89 55 b8             	mov    %edx,-0x48(%rbp)
  803c48:	eb 0f                	jmp    803c59 <vprintfmt+0x135>
  803c4a:	48 8b 55 c0          	mov    -0x40(%rbp),%rdx
  803c4e:	48 89 d0             	mov    %rdx,%rax
  803c51:	48 83 c2 08          	add    $0x8,%rdx
  803c55:	48 89 55 c0          	mov    %rdx,-0x40(%rbp)
  803c59:	8b 00                	mov    (%rax),%eax
  803c5b:	89 45 d8             	mov    %eax,-0x28(%rbp)
  803c5e:	eb 23                	jmp    803c83 <vprintfmt+0x15f>
  803c60:	83 7d dc 00          	cmpl   $0x0,-0x24(%rbp)
  803c64:	79 0c                	jns    803c72 <vprintfmt+0x14e>
  803c66:	c7 45 dc 00 00 00 00 	movl   $0x0,-0x24(%rbp)
  803c6d:	e9 3b ff ff ff       	jmpq   803bad <vprintfmt+0x89>
  803c72:	e9 36 ff ff ff       	jmpq   803bad <vprintfmt+0x89>
  803c77:	c7 45 d4 01 00 00 00 	movl   $0x1,-0x2c(%rbp)
  803c7e:	e9 2a ff ff ff       	jmpq   803bad <vprintfmt+0x89>
  803c83:	83 7d dc 00          	cmpl   $0x0,-0x24(%rbp)
  803c87:	79 12                	jns    803c9b <vprintfmt+0x177>
  803c89:	8b 45 d8             	mov    -0x28(%rbp),%eax
  803c8c:	89 45 dc             	mov    %eax,-0x24(%rbp)
  803c8f:	c7 45 d8 ff ff ff ff 	movl   $0xffffffff,-0x28(%rbp)
  803c96:	e9 12 ff ff ff       	jmpq   803bad <vprintfmt+0x89>
  803c9b:	e9 0d ff ff ff       	jmpq   803bad <vprintfmt+0x89>
  803ca0:	83 45 e0 01          	addl   $0x1,-0x20(%rbp)
  803ca4:	e9 04 ff ff ff       	jmpq   803bad <vprintfmt+0x89>
  803ca9:	8b 45 b8             	mov    -0x48(%rbp),%eax
  803cac:	83 f8 30             	cmp    $0x30,%eax
  803caf:	73 17                	jae    803cc8 <vprintfmt+0x1a4>
  803cb1:	48 8b 55 c8          	mov    -0x38(%rbp),%rdx
  803cb5:	8b 45 b8             	mov    -0x48(%rbp),%eax
  803cb8:	89 c0                	mov    %eax,%eax
  803cba:	48 01 d0             	add    %rdx,%rax
  803cbd:	8b 55 b8             	mov    -0x48(%rbp),%edx
  803cc0:	83 c2 08             	add    $0x8,%edx
  803cc3:	89 55 b8             	mov    %edx,-0x48(%rbp)
  803cc6:	eb 0f                	jmp    803cd7 <vprintfmt+0x1b3>
  803cc8:	48 8b 55 c0          	mov    -0x40(%rbp),%rdx
  803ccc:	48 89 d0             	mov    %rdx,%rax
  803ccf:	48 83 c2 08          	add    $0x8,%rdx
  803cd3:	48 89 55 c0          	mov    %rdx,-0x40(%rbp)
  803cd7:	8b 10                	mov    (%rax),%edx
  803cd9:	48 8b 4d a0          	mov    -0x60(%rbp),%rcx
  803cdd:	48 8b 45 a8          	mov    -0x58(%rbp),%rax
  803ce1:	48 89 ce             	mov    %rcx,%rsi
  803ce4:	89 d7                	mov    %edx,%edi
  803ce6:	ff d0                	callq  *%rax
  803ce8:	e9 40 03 00 00       	jmpq   80402d <vprintfmt+0x509>
  803ced:	8b 45 b8             	mov    -0x48(%rbp),%eax
  803cf0:	83 f8 30             	cmp    $0x30,%eax
  803cf3:	73 17                	jae    803d0c <vprintfmt+0x1e8>
  803cf5:	48 8b 55 c8          	mov    -0x38(%rbp),%rdx
  803cf9:	8b 45 b8             	mov    -0x48(%rbp),%eax
  803cfc:	89 c0                	mov    %eax,%eax
  803cfe:	48 01 d0             	add    %rdx,%rax
  803d01:	8b 55 b8             	mov    -0x48(%rbp),%edx
  803d04:	83 c2 08             	add    $0x8,%edx
  803d07:	89 55 b8             	mov    %edx,-0x48(%rbp)
  803d0a:	eb 0f                	jmp    803d1b <vprintfmt+0x1f7>
  803d0c:	48 8b 55 c0          	mov    -0x40(%rbp),%rdx
  803d10:	48 89 d0             	mov    %rdx,%rax
  803d13:	48 83 c2 08          	add    $0x8,%rdx
  803d17:	48 89 55 c0          	mov    %rdx,-0x40(%rbp)
  803d1b:	8b 18                	mov    (%rax),%ebx
  803d1d:	85 db                	test   %ebx,%ebx
  803d1f:	79 02                	jns    803d23 <vprintfmt+0x1ff>
  803d21:	f7 db                	neg    %ebx
  803d23:	83 fb 15             	cmp    $0x15,%ebx
  803d26:	7f 16                	jg     803d3e <vprintfmt+0x21a>
  803d28:	48 b8 e0 7d 80 00 00 	movabs $0x807de0,%rax
  803d2f:	00 00 00 
  803d32:	48 63 d3             	movslq %ebx,%rdx
  803d35:	4c 8b 24 d0          	mov    (%rax,%rdx,8),%r12
  803d39:	4d 85 e4             	test   %r12,%r12
  803d3c:	75 2e                	jne    803d6c <vprintfmt+0x248>
  803d3e:	48 8b 75 a0          	mov    -0x60(%rbp),%rsi
  803d42:	48 8b 45 a8          	mov    -0x58(%rbp),%rax
  803d46:	89 d9                	mov    %ebx,%ecx
  803d48:	48 ba a1 7e 80 00 00 	movabs $0x807ea1,%rdx
  803d4f:	00 00 00 
  803d52:	48 89 c7             	mov    %rax,%rdi
  803d55:	b8 00 00 00 00       	mov    $0x0,%eax
  803d5a:	49 b8 3c 40 80 00 00 	movabs $0x80403c,%r8
  803d61:	00 00 00 
  803d64:	41 ff d0             	callq  *%r8
  803d67:	e9 c1 02 00 00       	jmpq   80402d <vprintfmt+0x509>
  803d6c:	48 8b 75 a0          	mov    -0x60(%rbp),%rsi
  803d70:	48 8b 45 a8          	mov    -0x58(%rbp),%rax
  803d74:	4c 89 e1             	mov    %r12,%rcx
  803d77:	48 ba aa 7e 80 00 00 	movabs $0x807eaa,%rdx
  803d7e:	00 00 00 
  803d81:	48 89 c7             	mov    %rax,%rdi
  803d84:	b8 00 00 00 00       	mov    $0x0,%eax
  803d89:	49 b8 3c 40 80 00 00 	movabs $0x80403c,%r8
  803d90:	00 00 00 
  803d93:	41 ff d0             	callq  *%r8
  803d96:	e9 92 02 00 00       	jmpq   80402d <vprintfmt+0x509>
  803d9b:	8b 45 b8             	mov    -0x48(%rbp),%eax
  803d9e:	83 f8 30             	cmp    $0x30,%eax
  803da1:	73 17                	jae    803dba <vprintfmt+0x296>
  803da3:	48 8b 55 c8          	mov    -0x38(%rbp),%rdx
  803da7:	8b 45 b8             	mov    -0x48(%rbp),%eax
  803daa:	89 c0                	mov    %eax,%eax
  803dac:	48 01 d0             	add    %rdx,%rax
  803daf:	8b 55 b8             	mov    -0x48(%rbp),%edx
  803db2:	83 c2 08             	add    $0x8,%edx
  803db5:	89 55 b8             	mov    %edx,-0x48(%rbp)
  803db8:	eb 0f                	jmp    803dc9 <vprintfmt+0x2a5>
  803dba:	48 8b 55 c0          	mov    -0x40(%rbp),%rdx
  803dbe:	48 89 d0             	mov    %rdx,%rax
  803dc1:	48 83 c2 08          	add    $0x8,%rdx
  803dc5:	48 89 55 c0          	mov    %rdx,-0x40(%rbp)
  803dc9:	4c 8b 20             	mov    (%rax),%r12
  803dcc:	4d 85 e4             	test   %r12,%r12
  803dcf:	75 0a                	jne    803ddb <vprintfmt+0x2b7>
  803dd1:	49 bc ad 7e 80 00 00 	movabs $0x807ead,%r12
  803dd8:	00 00 00 
  803ddb:	83 7d dc 00          	cmpl   $0x0,-0x24(%rbp)
  803ddf:	7e 3f                	jle    803e20 <vprintfmt+0x2fc>
  803de1:	80 7d d3 2d          	cmpb   $0x2d,-0x2d(%rbp)
  803de5:	74 39                	je     803e20 <vprintfmt+0x2fc>
  803de7:	8b 45 d8             	mov    -0x28(%rbp),%eax
  803dea:	48 98                	cltq   
  803dec:	48 89 c6             	mov    %rax,%rsi
  803def:	4c 89 e7             	mov    %r12,%rdi
  803df2:	48 b8 e8 42 80 00 00 	movabs $0x8042e8,%rax
  803df9:	00 00 00 
  803dfc:	ff d0                	callq  *%rax
  803dfe:	29 45 dc             	sub    %eax,-0x24(%rbp)
  803e01:	eb 17                	jmp    803e1a <vprintfmt+0x2f6>
  803e03:	0f be 55 d3          	movsbl -0x2d(%rbp),%edx
  803e07:	48 8b 4d a0          	mov    -0x60(%rbp),%rcx
  803e0b:	48 8b 45 a8          	mov    -0x58(%rbp),%rax
  803e0f:	48 89 ce             	mov    %rcx,%rsi
  803e12:	89 d7                	mov    %edx,%edi
  803e14:	ff d0                	callq  *%rax
  803e16:	83 6d dc 01          	subl   $0x1,-0x24(%rbp)
  803e1a:	83 7d dc 00          	cmpl   $0x0,-0x24(%rbp)
  803e1e:	7f e3                	jg     803e03 <vprintfmt+0x2df>
  803e20:	eb 37                	jmp    803e59 <vprintfmt+0x335>
  803e22:	83 7d d4 00          	cmpl   $0x0,-0x2c(%rbp)
  803e26:	74 1e                	je     803e46 <vprintfmt+0x322>
  803e28:	83 fb 1f             	cmp    $0x1f,%ebx
  803e2b:	7e 05                	jle    803e32 <vprintfmt+0x30e>
  803e2d:	83 fb 7e             	cmp    $0x7e,%ebx
  803e30:	7e 14                	jle    803e46 <vprintfmt+0x322>
  803e32:	48 8b 55 a0          	mov    -0x60(%rbp),%rdx
  803e36:	48 8b 45 a8          	mov    -0x58(%rbp),%rax
  803e3a:	48 89 d6             	mov    %rdx,%rsi
  803e3d:	bf 3f 00 00 00       	mov    $0x3f,%edi
  803e42:	ff d0                	callq  *%rax
  803e44:	eb 0f                	jmp    803e55 <vprintfmt+0x331>
  803e46:	48 8b 55 a0          	mov    -0x60(%rbp),%rdx
  803e4a:	48 8b 45 a8          	mov    -0x58(%rbp),%rax
  803e4e:	48 89 d6             	mov    %rdx,%rsi
  803e51:	89 df                	mov    %ebx,%edi
  803e53:	ff d0                	callq  *%rax
  803e55:	83 6d dc 01          	subl   $0x1,-0x24(%rbp)
  803e59:	4c 89 e0             	mov    %r12,%rax
  803e5c:	4c 8d 60 01          	lea    0x1(%rax),%r12
  803e60:	0f b6 00             	movzbl (%rax),%eax
  803e63:	0f be d8             	movsbl %al,%ebx
  803e66:	85 db                	test   %ebx,%ebx
  803e68:	74 10                	je     803e7a <vprintfmt+0x356>
  803e6a:	83 7d d8 00          	cmpl   $0x0,-0x28(%rbp)
  803e6e:	78 b2                	js     803e22 <vprintfmt+0x2fe>
  803e70:	83 6d d8 01          	subl   $0x1,-0x28(%rbp)
  803e74:	83 7d d8 00          	cmpl   $0x0,-0x28(%rbp)
  803e78:	79 a8                	jns    803e22 <vprintfmt+0x2fe>
  803e7a:	eb 16                	jmp    803e92 <vprintfmt+0x36e>
  803e7c:	48 8b 55 a0          	mov    -0x60(%rbp),%rdx
  803e80:	48 8b 45 a8          	mov    -0x58(%rbp),%rax
  803e84:	48 89 d6             	mov    %rdx,%rsi
  803e87:	bf 20 00 00 00       	mov    $0x20,%edi
  803e8c:	ff d0                	callq  *%rax
  803e8e:	83 6d dc 01          	subl   $0x1,-0x24(%rbp)
  803e92:	83 7d dc 00          	cmpl   $0x0,-0x24(%rbp)
  803e96:	7f e4                	jg     803e7c <vprintfmt+0x358>
  803e98:	e9 90 01 00 00       	jmpq   80402d <vprintfmt+0x509>
  803e9d:	48 8d 45 b8          	lea    -0x48(%rbp),%rax
  803ea1:	be 03 00 00 00       	mov    $0x3,%esi
  803ea6:	48 89 c7             	mov    %rax,%rdi
  803ea9:	48 b8 14 3a 80 00 00 	movabs $0x803a14,%rax
  803eb0:	00 00 00 
  803eb3:	ff d0                	callq  *%rax
  803eb5:	48 89 45 e8          	mov    %rax,-0x18(%rbp)
  803eb9:	48 8b 45 e8          	mov    -0x18(%rbp),%rax
  803ebd:	48 85 c0             	test   %rax,%rax
  803ec0:	79 1d                	jns    803edf <vprintfmt+0x3bb>
  803ec2:	48 8b 55 a0          	mov    -0x60(%rbp),%rdx
  803ec6:	48 8b 45 a8          	mov    -0x58(%rbp),%rax
  803eca:	48 89 d6             	mov    %rdx,%rsi
  803ecd:	bf 2d 00 00 00       	mov    $0x2d,%edi
  803ed2:	ff d0                	callq  *%rax
  803ed4:	48 8b 45 e8          	mov    -0x18(%rbp),%rax
  803ed8:	48 f7 d8             	neg    %rax
  803edb:	48 89 45 e8          	mov    %rax,-0x18(%rbp)
  803edf:	c7 45 e4 0a 00 00 00 	movl   $0xa,-0x1c(%rbp)
  803ee6:	e9 d5 00 00 00       	jmpq   803fc0 <vprintfmt+0x49c>
  803eeb:	48 8d 45 b8          	lea    -0x48(%rbp),%rax
  803eef:	be 03 00 00 00       	mov    $0x3,%esi
  803ef4:	48 89 c7             	mov    %rax,%rdi
  803ef7:	48 b8 04 39 80 00 00 	movabs $0x803904,%rax
  803efe:	00 00 00 
  803f01:	ff d0                	callq  *%rax
  803f03:	48 89 45 e8          	mov    %rax,-0x18(%rbp)
  803f07:	c7 45 e4 0a 00 00 00 	movl   $0xa,-0x1c(%rbp)
  803f0e:	e9 ad 00 00 00       	jmpq   803fc0 <vprintfmt+0x49c>
  803f13:	48 8d 45 b8          	lea    -0x48(%rbp),%rax
  803f17:	be 03 00 00 00       	mov    $0x3,%esi
  803f1c:	48 89 c7             	mov    %rax,%rdi
  803f1f:	48 b8 04 39 80 00 00 	movabs $0x803904,%rax
  803f26:	00 00 00 
  803f29:	ff d0                	callq  *%rax
  803f2b:	48 89 45 e8          	mov    %rax,-0x18(%rbp)
  803f2f:	c7 45 e4 08 00 00 00 	movl   $0x8,-0x1c(%rbp)
  803f36:	e9 85 00 00 00       	jmpq   803fc0 <vprintfmt+0x49c>
  803f3b:	48 8b 55 a0          	mov    -0x60(%rbp),%rdx
  803f3f:	48 8b 45 a8          	mov    -0x58(%rbp),%rax
  803f43:	48 89 d6             	mov    %rdx,%rsi
  803f46:	bf 30 00 00 00       	mov    $0x30,%edi
  803f4b:	ff d0                	callq  *%rax
  803f4d:	48 8b 55 a0          	mov    -0x60(%rbp),%rdx
  803f51:	48 8b 45 a8          	mov    -0x58(%rbp),%rax
  803f55:	48 89 d6             	mov    %rdx,%rsi
  803f58:	bf 78 00 00 00       	mov    $0x78,%edi
  803f5d:	ff d0                	callq  *%rax
  803f5f:	8b 45 b8             	mov    -0x48(%rbp),%eax
  803f62:	83 f8 30             	cmp    $0x30,%eax
  803f65:	73 17                	jae    803f7e <vprintfmt+0x45a>
  803f67:	48 8b 55 c8          	mov    -0x38(%rbp),%rdx
  803f6b:	8b 45 b8             	mov    -0x48(%rbp),%eax
  803f6e:	89 c0                	mov    %eax,%eax
  803f70:	48 01 d0             	add    %rdx,%rax
  803f73:	8b 55 b8             	mov    -0x48(%rbp),%edx
  803f76:	83 c2 08             	add    $0x8,%edx
  803f79:	89 55 b8             	mov    %edx,-0x48(%rbp)
  803f7c:	eb 0f                	jmp    803f8d <vprintfmt+0x469>
  803f7e:	48 8b 55 c0          	mov    -0x40(%rbp),%rdx
  803f82:	48 89 d0             	mov    %rdx,%rax
  803f85:	48 83 c2 08          	add    $0x8,%rdx
  803f89:	48 89 55 c0          	mov    %rdx,-0x40(%rbp)
  803f8d:	48 8b 00             	mov    (%rax),%rax
  803f90:	48 89 45 e8          	mov    %rax,-0x18(%rbp)
  803f94:	c7 45 e4 10 00 00 00 	movl   $0x10,-0x1c(%rbp)
  803f9b:	eb 23                	jmp    803fc0 <vprintfmt+0x49c>
  803f9d:	48 8d 45 b8          	lea    -0x48(%rbp),%rax
  803fa1:	be 03 00 00 00       	mov    $0x3,%esi
  803fa6:	48 89 c7             	mov    %rax,%rdi
  803fa9:	48 b8 04 39 80 00 00 	movabs $0x803904,%rax
  803fb0:	00 00 00 
  803fb3:	ff d0                	callq  *%rax
  803fb5:	48 89 45 e8          	mov    %rax,-0x18(%rbp)
  803fb9:	c7 45 e4 10 00 00 00 	movl   $0x10,-0x1c(%rbp)
  803fc0:	44 0f be 45 d3       	movsbl -0x2d(%rbp),%r8d
  803fc5:	8b 4d e4             	mov    -0x1c(%rbp),%ecx
  803fc8:	8b 7d dc             	mov    -0x24(%rbp),%edi
  803fcb:	48 8b 55 e8          	mov    -0x18(%rbp),%rdx
  803fcf:	48 8b 75 a0          	mov    -0x60(%rbp),%rsi
  803fd3:	48 8b 45 a8          	mov    -0x58(%rbp),%rax
  803fd7:	45 89 c1             	mov    %r8d,%r9d
  803fda:	41 89 f8             	mov    %edi,%r8d
  803fdd:	48 89 c7             	mov    %rax,%rdi
  803fe0:	48 b8 49 38 80 00 00 	movabs $0x803849,%rax
  803fe7:	00 00 00 
  803fea:	ff d0                	callq  *%rax
  803fec:	eb 3f                	jmp    80402d <vprintfmt+0x509>
  803fee:	48 8b 55 a0          	mov    -0x60(%rbp),%rdx
  803ff2:	48 8b 45 a8          	mov    -0x58(%rbp),%rax
  803ff6:	48 89 d6             	mov    %rdx,%rsi
  803ff9:	89 df                	mov    %ebx,%edi
  803ffb:	ff d0                	callq  *%rax
  803ffd:	eb 2e                	jmp    80402d <vprintfmt+0x509>
  803fff:	48 8b 55 a0          	mov    -0x60(%rbp),%rdx
  804003:	48 8b 45 a8          	mov    -0x58(%rbp),%rax
  804007:	48 89 d6             	mov    %rdx,%rsi
  80400a:	bf 25 00 00 00       	mov    $0x25,%edi
  80400f:	ff d0                	callq  *%rax
  804011:	48 83 6d 98 01       	subq   $0x1,-0x68(%rbp)
  804016:	eb 05                	jmp    80401d <vprintfmt+0x4f9>
  804018:	48 83 6d 98 01       	subq   $0x1,-0x68(%rbp)
  80401d:	48 8b 45 98          	mov    -0x68(%rbp),%rax
  804021:	48 83 e8 01          	sub    $0x1,%rax
  804025:	0f b6 00             	movzbl (%rax),%eax
  804028:	3c 25                	cmp    $0x25,%al
  80402a:	75 ec                	jne    804018 <vprintfmt+0x4f4>
  80402c:	90                   	nop
  80402d:	90                   	nop
  80402e:	e9 43 fb ff ff       	jmpq   803b76 <vprintfmt+0x52>
  804033:	48 83 c4 60          	add    $0x60,%rsp
  804037:	5b                   	pop    %rbx
  804038:	41 5c                	pop    %r12
  80403a:	5d                   	pop    %rbp
  80403b:	c3                   	retq   

000000000080403c <printfmt>:
  80403c:	55                   	push   %rbp
  80403d:	48 89 e5             	mov    %rsp,%rbp
  804040:	48 81 ec f0 00 00 00 	sub    $0xf0,%rsp
  804047:	48 89 bd 28 ff ff ff 	mov    %rdi,-0xd8(%rbp)
  80404e:	48 89 b5 20 ff ff ff 	mov    %rsi,-0xe0(%rbp)
  804055:	48 89 8d 68 ff ff ff 	mov    %rcx,-0x98(%rbp)
  80405c:	4c 89 85 70 ff ff ff 	mov    %r8,-0x90(%rbp)
  804063:	4c 89 8d 78 ff ff ff 	mov    %r9,-0x88(%rbp)
  80406a:	84 c0                	test   %al,%al
  80406c:	74 20                	je     80408e <printfmt+0x52>
  80406e:	0f 29 45 80          	movaps %xmm0,-0x80(%rbp)
  804072:	0f 29 4d 90          	movaps %xmm1,-0x70(%rbp)
  804076:	0f 29 55 a0          	movaps %xmm2,-0x60(%rbp)
  80407a:	0f 29 5d b0          	movaps %xmm3,-0x50(%rbp)
  80407e:	0f 29 65 c0          	movaps %xmm4,-0x40(%rbp)
  804082:	0f 29 6d d0          	movaps %xmm5,-0x30(%rbp)
  804086:	0f 29 75 e0          	movaps %xmm6,-0x20(%rbp)
  80408a:	0f 29 7d f0          	movaps %xmm7,-0x10(%rbp)
  80408e:	48 89 95 18 ff ff ff 	mov    %rdx,-0xe8(%rbp)
  804095:	c7 85 38 ff ff ff 18 	movl   $0x18,-0xc8(%rbp)
  80409c:	00 00 00 
  80409f:	c7 85 3c ff ff ff 30 	movl   $0x30,-0xc4(%rbp)
  8040a6:	00 00 00 
  8040a9:	48 8d 45 10          	lea    0x10(%rbp),%rax
  8040ad:	48 89 85 40 ff ff ff 	mov    %rax,-0xc0(%rbp)
  8040b4:	48 8d 85 50 ff ff ff 	lea    -0xb0(%rbp),%rax
  8040bb:	48 89 85 48 ff ff ff 	mov    %rax,-0xb8(%rbp)
  8040c2:	48 8d 8d 38 ff ff ff 	lea    -0xc8(%rbp),%rcx
  8040c9:	48 8b 95 18 ff ff ff 	mov    -0xe8(%rbp),%rdx
  8040d0:	48 8b b5 20 ff ff ff 	mov    -0xe0(%rbp),%rsi
  8040d7:	48 8b 85 28 ff ff ff 	mov    -0xd8(%rbp),%rax
  8040de:	48 89 c7             	mov    %rax,%rdi
  8040e1:	48 b8 24 3b 80 00 00 	movabs $0x803b24,%rax
  8040e8:	00 00 00 
  8040eb:	ff d0                	callq  *%rax
  8040ed:	c9                   	leaveq 
  8040ee:	c3                   	retq   

00000000008040ef <sprintputch>:
  8040ef:	55                   	push   %rbp
  8040f0:	48 89 e5             	mov    %rsp,%rbp
  8040f3:	48 83 ec 10          	sub    $0x10,%rsp
  8040f7:	89 7d fc             	mov    %edi,-0x4(%rbp)
  8040fa:	48 89 75 f0          	mov    %rsi,-0x10(%rbp)
  8040fe:	48 8b 45 f0          	mov    -0x10(%rbp),%rax
  804102:	8b 40 10             	mov    0x10(%rax),%eax
  804105:	8d 50 01             	lea    0x1(%rax),%edx
  804108:	48 8b 45 f0          	mov    -0x10(%rbp),%rax
  80410c:	89 50 10             	mov    %edx,0x10(%rax)
  80410f:	48 8b 45 f0          	mov    -0x10(%rbp),%rax
  804113:	48 8b 10             	mov    (%rax),%rdx
  804116:	48 8b 45 f0          	mov    -0x10(%rbp),%rax
  80411a:	48 8b 40 08          	mov    0x8(%rax),%rax
  80411e:	48 39 c2             	cmp    %rax,%rdx
  804121:	73 17                	jae    80413a <sprintputch+0x4b>
  804123:	48 8b 45 f0          	mov    -0x10(%rbp),%rax
  804127:	48 8b 00             	mov    (%rax),%rax
  80412a:	48 8d 48 01          	lea    0x1(%rax),%rcx
  80412e:	48 8b 55 f0          	mov    -0x10(%rbp),%rdx
  804132:	48 89 0a             	mov    %rcx,(%rdx)
  804135:	8b 55 fc             	mov    -0x4(%rbp),%edx
  804138:	88 10                	mov    %dl,(%rax)
  80413a:	c9                   	leaveq 
  80413b:	c3                   	retq   

000000000080413c <vsnprintf>:
  80413c:	55                   	push   %rbp
  80413d:	48 89 e5             	mov    %rsp,%rbp
  804140:	48 83 ec 50          	sub    $0x50,%rsp
  804144:	48 89 7d c8          	mov    %rdi,-0x38(%rbp)
  804148:	89 75 c4             	mov    %esi,-0x3c(%rbp)
  80414b:	48 89 55 b8          	mov    %rdx,-0x48(%rbp)
  80414f:	48 89 4d b0          	mov    %rcx,-0x50(%rbp)
  804153:	48 8d 45 e8          	lea    -0x18(%rbp),%rax
  804157:	48 8b 55 b0          	mov    -0x50(%rbp),%rdx
  80415b:	48 8b 0a             	mov    (%rdx),%rcx
  80415e:	48 89 08             	mov    %rcx,(%rax)
  804161:	48 8b 4a 08          	mov    0x8(%rdx),%rcx
  804165:	48 89 48 08          	mov    %rcx,0x8(%rax)
  804169:	48 8b 52 10          	mov    0x10(%rdx),%rdx
  80416d:	48 89 50 10          	mov    %rdx,0x10(%rax)
  804171:	48 8b 45 c8          	mov    -0x38(%rbp),%rax
  804175:	48 89 45 d0          	mov    %rax,-0x30(%rbp)
  804179:	8b 45 c4             	mov    -0x3c(%rbp),%eax
  80417c:	48 98                	cltq   
  80417e:	48 8d 50 ff          	lea    -0x1(%rax),%rdx
  804182:	48 8b 45 c8          	mov    -0x38(%rbp),%rax
  804186:	48 01 d0             	add    %rdx,%rax
  804189:	48 89 45 d8          	mov    %rax,-0x28(%rbp)
  80418d:	c7 45 e0 00 00 00 00 	movl   $0x0,-0x20(%rbp)
  804194:	48 83 7d c8 00       	cmpq   $0x0,-0x38(%rbp)
  804199:	74 06                	je     8041a1 <vsnprintf+0x65>
  80419b:	83 7d c4 00          	cmpl   $0x0,-0x3c(%rbp)
  80419f:	7f 07                	jg     8041a8 <vsnprintf+0x6c>
  8041a1:	b8 fd ff ff ff       	mov    $0xfffffffd,%eax
  8041a6:	eb 2f                	jmp    8041d7 <vsnprintf+0x9b>
  8041a8:	48 8d 4d e8          	lea    -0x18(%rbp),%rcx
  8041ac:	48 8b 55 b8          	mov    -0x48(%rbp),%rdx
  8041b0:	48 8d 45 d0          	lea    -0x30(%rbp),%rax
  8041b4:	48 89 c6             	mov    %rax,%rsi
  8041b7:	48 bf ef 40 80 00 00 	movabs $0x8040ef,%rdi
  8041be:	00 00 00 
  8041c1:	48 b8 24 3b 80 00 00 	movabs $0x803b24,%rax
  8041c8:	00 00 00 
  8041cb:	ff d0                	callq  *%rax
  8041cd:	48 8b 45 d0          	mov    -0x30(%rbp),%rax
  8041d1:	c6 00 00             	movb   $0x0,(%rax)
  8041d4:	8b 45 e0             	mov    -0x20(%rbp),%eax
  8041d7:	c9                   	leaveq 
  8041d8:	c3                   	retq   

00000000008041d9 <snprintf>:
  8041d9:	55                   	push   %rbp
  8041da:	48 89 e5             	mov    %rsp,%rbp
  8041dd:	48 81 ec 10 01 00 00 	sub    $0x110,%rsp
  8041e4:	48 89 bd 08 ff ff ff 	mov    %rdi,-0xf8(%rbp)
  8041eb:	89 b5 04 ff ff ff    	mov    %esi,-0xfc(%rbp)
  8041f1:	48 89 8d 68 ff ff ff 	mov    %rcx,-0x98(%rbp)
  8041f8:	4c 89 85 70 ff ff ff 	mov    %r8,-0x90(%rbp)
  8041ff:	4c 89 8d 78 ff ff ff 	mov    %r9,-0x88(%rbp)
  804206:	84 c0                	test   %al,%al
  804208:	74 20                	je     80422a <snprintf+0x51>
  80420a:	0f 29 45 80          	movaps %xmm0,-0x80(%rbp)
  80420e:	0f 29 4d 90          	movaps %xmm1,-0x70(%rbp)
  804212:	0f 29 55 a0          	movaps %xmm2,-0x60(%rbp)
  804216:	0f 29 5d b0          	movaps %xmm3,-0x50(%rbp)
  80421a:	0f 29 65 c0          	movaps %xmm4,-0x40(%rbp)
  80421e:	0f 29 6d d0          	movaps %xmm5,-0x30(%rbp)
  804222:	0f 29 75 e0          	movaps %xmm6,-0x20(%rbp)
  804226:	0f 29 7d f0          	movaps %xmm7,-0x10(%rbp)
  80422a:	48 89 95 f8 fe ff ff 	mov    %rdx,-0x108(%rbp)
  804231:	c7 85 30 ff ff ff 18 	movl   $0x18,-0xd0(%rbp)
  804238:	00 00 00 
  80423b:	c7 85 34 ff ff ff 30 	movl   $0x30,-0xcc(%rbp)
  804242:	00 00 00 
  804245:	48 8d 45 10          	lea    0x10(%rbp),%rax
  804249:	48 89 85 38 ff ff ff 	mov    %rax,-0xc8(%rbp)
  804250:	48 8d 85 50 ff ff ff 	lea    -0xb0(%rbp),%rax
  804257:	48 89 85 40 ff ff ff 	mov    %rax,-0xc0(%rbp)
  80425e:	48 8d 85 18 ff ff ff 	lea    -0xe8(%rbp),%rax
  804265:	48 8d 95 30 ff ff ff 	lea    -0xd0(%rbp),%rdx
  80426c:	48 8b 0a             	mov    (%rdx),%rcx
  80426f:	48 89 08             	mov    %rcx,(%rax)
  804272:	48 8b 4a 08          	mov    0x8(%rdx),%rcx
  804276:	48 89 48 08          	mov    %rcx,0x8(%rax)
  80427a:	48 8b 52 10          	mov    0x10(%rdx),%rdx
  80427e:	48 89 50 10          	mov    %rdx,0x10(%rax)
  804282:	48 8d 8d 18 ff ff ff 	lea    -0xe8(%rbp),%rcx
  804289:	48 8b 95 f8 fe ff ff 	mov    -0x108(%rbp),%rdx
  804290:	8b b5 04 ff ff ff    	mov    -0xfc(%rbp),%esi
  804296:	48 8b 85 08 ff ff ff 	mov    -0xf8(%rbp),%rax
  80429d:	48 89 c7             	mov    %rax,%rdi
  8042a0:	48 b8 3c 41 80 00 00 	movabs $0x80413c,%rax
  8042a7:	00 00 00 
  8042aa:	ff d0                	callq  *%rax
  8042ac:	89 85 4c ff ff ff    	mov    %eax,-0xb4(%rbp)
  8042b2:	8b 85 4c ff ff ff    	mov    -0xb4(%rbp),%eax
  8042b8:	c9                   	leaveq 
  8042b9:	c3                   	retq   

00000000008042ba <strlen>:
  8042ba:	55                   	push   %rbp
  8042bb:	48 89 e5             	mov    %rsp,%rbp
  8042be:	48 83 ec 18          	sub    $0x18,%rsp
  8042c2:	48 89 7d e8          	mov    %rdi,-0x18(%rbp)
  8042c6:	c7 45 fc 00 00 00 00 	movl   $0x0,-0x4(%rbp)
  8042cd:	eb 09                	jmp    8042d8 <strlen+0x1e>
  8042cf:	83 45 fc 01          	addl   $0x1,-0x4(%rbp)
  8042d3:	48 83 45 e8 01       	addq   $0x1,-0x18(%rbp)
  8042d8:	48 8b 45 e8          	mov    -0x18(%rbp),%rax
  8042dc:	0f b6 00             	movzbl (%rax),%eax
  8042df:	84 c0                	test   %al,%al
  8042e1:	75 ec                	jne    8042cf <strlen+0x15>
  8042e3:	8b 45 fc             	mov    -0x4(%rbp),%eax
  8042e6:	c9                   	leaveq 
  8042e7:	c3                   	retq   

00000000008042e8 <strnlen>:
  8042e8:	55                   	push   %rbp
  8042e9:	48 89 e5             	mov    %rsp,%rbp
  8042ec:	48 83 ec 20          	sub    $0x20,%rsp
  8042f0:	48 89 7d e8          	mov    %rdi,-0x18(%rbp)
  8042f4:	48 89 75 e0          	mov    %rsi,-0x20(%rbp)
  8042f8:	c7 45 fc 00 00 00 00 	movl   $0x0,-0x4(%rbp)
  8042ff:	eb 0e                	jmp    80430f <strnlen+0x27>
  804301:	83 45 fc 01          	addl   $0x1,-0x4(%rbp)
  804305:	48 83 45 e8 01       	addq   $0x1,-0x18(%rbp)
  80430a:	48 83 6d e0 01       	subq   $0x1,-0x20(%rbp)
  80430f:	48 83 7d e0 00       	cmpq   $0x0,-0x20(%rbp)
  804314:	74 0b                	je     804321 <strnlen+0x39>
  804316:	48 8b 45 e8          	mov    -0x18(%rbp),%rax
  80431a:	0f b6 00             	movzbl (%rax),%eax
  80431d:	84 c0                	test   %al,%al
  80431f:	75 e0                	jne    804301 <strnlen+0x19>
  804321:	8b 45 fc             	mov    -0x4(%rbp),%eax
  804324:	c9                   	leaveq 
  804325:	c3                   	retq   

0000000000804326 <strcpy>:
  804326:	55                   	push   %rbp
  804327:	48 89 e5             	mov    %rsp,%rbp
  80432a:	48 83 ec 20          	sub    $0x20,%rsp
  80432e:	48 89 7d e8          	mov    %rdi,-0x18(%rbp)
  804332:	48 89 75 e0          	mov    %rsi,-0x20(%rbp)
  804336:	48 8b 45 e8          	mov    -0x18(%rbp),%rax
  80433a:	48 89 45 f8          	mov    %rax,-0x8(%rbp)
  80433e:	90                   	nop
  80433f:	48 8b 45 e8          	mov    -0x18(%rbp),%rax
  804343:	48 8d 50 01          	lea    0x1(%rax),%rdx
  804347:	48 89 55 e8          	mov    %rdx,-0x18(%rbp)
  80434b:	48 8b 55 e0          	mov    -0x20(%rbp),%rdx
  80434f:	48 8d 4a 01          	lea    0x1(%rdx),%rcx
  804353:	48 89 4d e0          	mov    %rcx,-0x20(%rbp)
  804357:	0f b6 12             	movzbl (%rdx),%edx
  80435a:	88 10                	mov    %dl,(%rax)
  80435c:	0f b6 00             	movzbl (%rax),%eax
  80435f:	84 c0                	test   %al,%al
  804361:	75 dc                	jne    80433f <strcpy+0x19>
  804363:	48 8b 45 f8          	mov    -0x8(%rbp),%rax
  804367:	c9                   	leaveq 
  804368:	c3                   	retq   

0000000000804369 <strcat>:
  804369:	55                   	push   %rbp
  80436a:	48 89 e5             	mov    %rsp,%rbp
  80436d:	48 83 ec 20          	sub    $0x20,%rsp
  804371:	48 89 7d e8          	mov    %rdi,-0x18(%rbp)
  804375:	48 89 75 e0          	mov    %rsi,-0x20(%rbp)
  804379:	48 8b 45 e8          	mov    -0x18(%rbp),%rax
  80437d:	48 89 c7             	mov    %rax,%rdi
  804380:	48 b8 ba 42 80 00 00 	movabs $0x8042ba,%rax
  804387:	00 00 00 
  80438a:	ff d0                	callq  *%rax
  80438c:	89 45 fc             	mov    %eax,-0x4(%rbp)
  80438f:	8b 45 fc             	mov    -0x4(%rbp),%eax
  804392:	48 63 d0             	movslq %eax,%rdx
  804395:	48 8b 45 e8          	mov    -0x18(%rbp),%rax
  804399:	48 01 c2             	add    %rax,%rdx
  80439c:	48 8b 45 e0          	mov    -0x20(%rbp),%rax
  8043a0:	48 89 c6             	mov    %rax,%rsi
  8043a3:	48 89 d7             	mov    %rdx,%rdi
  8043a6:	48 b8 26 43 80 00 00 	movabs $0x804326,%rax
  8043ad:	00 00 00 
  8043b0:	ff d0                	callq  *%rax
  8043b2:	48 8b 45 e8          	mov    -0x18(%rbp),%rax
  8043b6:	c9                   	leaveq 
  8043b7:	c3                   	retq   

00000000008043b8 <strncpy>:
  8043b8:	55                   	push   %rbp
  8043b9:	48 89 e5             	mov    %rsp,%rbp
  8043bc:	48 83 ec 28          	sub    $0x28,%rsp
  8043c0:	48 89 7d e8          	mov    %rdi,-0x18(%rbp)
  8043c4:	48 89 75 e0          	mov    %rsi,-0x20(%rbp)
  8043c8:	48 89 55 d8          	mov    %rdx,-0x28(%rbp)
  8043cc:	48 8b 45 e8          	mov    -0x18(%rbp),%rax
  8043d0:	48 89 45 f0          	mov    %rax,-0x10(%rbp)
  8043d4:	48 c7 45 f8 00 00 00 	movq   $0x0,-0x8(%rbp)
  8043db:	00 
  8043dc:	eb 2a                	jmp    804408 <strncpy+0x50>
  8043de:	48 8b 45 e8          	mov    -0x18(%rbp),%rax
  8043e2:	48 8d 50 01          	lea    0x1(%rax),%rdx
  8043e6:	48 89 55 e8          	mov    %rdx,-0x18(%rbp)
  8043ea:	48 8b 55 e0          	mov    -0x20(%rbp),%rdx
  8043ee:	0f b6 12             	movzbl (%rdx),%edx
  8043f1:	88 10                	mov    %dl,(%rax)
  8043f3:	48 8b 45 e0          	mov    -0x20(%rbp),%rax
  8043f7:	0f b6 00             	movzbl (%rax),%eax
  8043fa:	84 c0                	test   %al,%al
  8043fc:	74 05                	je     804403 <strncpy+0x4b>
  8043fe:	48 83 45 e0 01       	addq   $0x1,-0x20(%rbp)
  804403:	48 83 45 f8 01       	addq   $0x1,-0x8(%rbp)
  804408:	48 8b 45 f8          	mov    -0x8(%rbp),%rax
  80440c:	48 3b 45 d8          	cmp    -0x28(%rbp),%rax
  804410:	72 cc                	jb     8043de <strncpy+0x26>
  804412:	48 8b 45 f0          	mov    -0x10(%rbp),%rax
  804416:	c9                   	leaveq 
  804417:	c3                   	retq   

0000000000804418 <strlcpy>:
  804418:	55                   	push   %rbp
  804419:	48 89 e5             	mov    %rsp,%rbp
  80441c:	48 83 ec 28          	sub    $0x28,%rsp
  804420:	48 89 7d e8          	mov    %rdi,-0x18(%rbp)
  804424:	48 89 75 e0          	mov    %rsi,-0x20(%rbp)
  804428:	48 89 55 d8          	mov    %rdx,-0x28(%rbp)
  80442c:	48 8b 45 e8          	mov    -0x18(%rbp),%rax
  804430:	48 89 45 f8          	mov    %rax,-0x8(%rbp)
  804434:	48 83 7d d8 00       	cmpq   $0x0,-0x28(%rbp)
  804439:	74 3d                	je     804478 <strlcpy+0x60>
  80443b:	eb 1d                	jmp    80445a <strlcpy+0x42>
  80443d:	48 8b 45 e8          	mov    -0x18(%rbp),%rax
  804441:	48 8d 50 01          	lea    0x1(%rax),%rdx
  804445:	48 89 55 e8          	mov    %rdx,-0x18(%rbp)
  804449:	48 8b 55 e0          	mov    -0x20(%rbp),%rdx
  80444d:	48 8d 4a 01          	lea    0x1(%rdx),%rcx
  804451:	48 89 4d e0          	mov    %rcx,-0x20(%rbp)
  804455:	0f b6 12             	movzbl (%rdx),%edx
  804458:	88 10                	mov    %dl,(%rax)
  80445a:	48 83 6d d8 01       	subq   $0x1,-0x28(%rbp)
  80445f:	48 83 7d d8 00       	cmpq   $0x0,-0x28(%rbp)
  804464:	74 0b                	je     804471 <strlcpy+0x59>
  804466:	48 8b 45 e0          	mov    -0x20(%rbp),%rax
  80446a:	0f b6 00             	movzbl (%rax),%eax
  80446d:	84 c0                	test   %al,%al
  80446f:	75 cc                	jne    80443d <strlcpy+0x25>
  804471:	48 8b 45 e8          	mov    -0x18(%rbp),%rax
  804475:	c6 00 00             	movb   $0x0,(%rax)
  804478:	48 8b 55 e8          	mov    -0x18(%rbp),%rdx
  80447c:	48 8b 45 f8          	mov    -0x8(%rbp),%rax
  804480:	48 29 c2             	sub    %rax,%rdx
  804483:	48 89 d0             	mov    %rdx,%rax
  804486:	c9                   	leaveq 
  804487:	c3                   	retq   

0000000000804488 <strcmp>:
  804488:	55                   	push   %rbp
  804489:	48 89 e5             	mov    %rsp,%rbp
  80448c:	48 83 ec 10          	sub    $0x10,%rsp
  804490:	48 89 7d f8          	mov    %rdi,-0x8(%rbp)
  804494:	48 89 75 f0          	mov    %rsi,-0x10(%rbp)
  804498:	eb 0a                	jmp    8044a4 <strcmp+0x1c>
  80449a:	48 83 45 f8 01       	addq   $0x1,-0x8(%rbp)
  80449f:	48 83 45 f0 01       	addq   $0x1,-0x10(%rbp)
  8044a4:	48 8b 45 f8          	mov    -0x8(%rbp),%rax
  8044a8:	0f b6 00             	movzbl (%rax),%eax
  8044ab:	84 c0                	test   %al,%al
  8044ad:	74 12                	je     8044c1 <strcmp+0x39>
  8044af:	48 8b 45 f8          	mov    -0x8(%rbp),%rax
  8044b3:	0f b6 10             	movzbl (%rax),%edx
  8044b6:	48 8b 45 f0          	mov    -0x10(%rbp),%rax
  8044ba:	0f b6 00             	movzbl (%rax),%eax
  8044bd:	38 c2                	cmp    %al,%dl
  8044bf:	74 d9                	je     80449a <strcmp+0x12>
  8044c1:	48 8b 45 f8          	mov    -0x8(%rbp),%rax
  8044c5:	0f b6 00             	movzbl (%rax),%eax
  8044c8:	0f b6 d0             	movzbl %al,%edx
  8044cb:	48 8b 45 f0          	mov    -0x10(%rbp),%rax
  8044cf:	0f b6 00             	movzbl (%rax),%eax
  8044d2:	0f b6 c0             	movzbl %al,%eax
  8044d5:	29 c2                	sub    %eax,%edx
  8044d7:	89 d0                	mov    %edx,%eax
  8044d9:	c9                   	leaveq 
  8044da:	c3                   	retq   

00000000008044db <strncmp>:
  8044db:	55                   	push   %rbp
  8044dc:	48 89 e5             	mov    %rsp,%rbp
  8044df:	48 83 ec 18          	sub    $0x18,%rsp
  8044e3:	48 89 7d f8          	mov    %rdi,-0x8(%rbp)
  8044e7:	48 89 75 f0          	mov    %rsi,-0x10(%rbp)
  8044eb:	48 89 55 e8          	mov    %rdx,-0x18(%rbp)
  8044ef:	eb 0f                	jmp    804500 <strncmp+0x25>
  8044f1:	48 83 6d e8 01       	subq   $0x1,-0x18(%rbp)
  8044f6:	48 83 45 f8 01       	addq   $0x1,-0x8(%rbp)
  8044fb:	48 83 45 f0 01       	addq   $0x1,-0x10(%rbp)
  804500:	48 83 7d e8 00       	cmpq   $0x0,-0x18(%rbp)
  804505:	74 1d                	je     804524 <strncmp+0x49>
  804507:	48 8b 45 f8          	mov    -0x8(%rbp),%rax
  80450b:	0f b6 00             	movzbl (%rax),%eax
  80450e:	84 c0                	test   %al,%al
  804510:	74 12                	je     804524 <strncmp+0x49>
  804512:	48 8b 45 f8          	mov    -0x8(%rbp),%rax
  804516:	0f b6 10             	movzbl (%rax),%edx
  804519:	48 8b 45 f0          	mov    -0x10(%rbp),%rax
  80451d:	0f b6 00             	movzbl (%rax),%eax
  804520:	38 c2                	cmp    %al,%dl
  804522:	74 cd                	je     8044f1 <strncmp+0x16>
  804524:	48 83 7d e8 00       	cmpq   $0x0,-0x18(%rbp)
  804529:	75 07                	jne    804532 <strncmp+0x57>
  80452b:	b8 00 00 00 00       	mov    $0x0,%eax
  804530:	eb 18                	jmp    80454a <strncmp+0x6f>
  804532:	48 8b 45 f8          	mov    -0x8(%rbp),%rax
  804536:	0f b6 00             	movzbl (%rax),%eax
  804539:	0f b6 d0             	movzbl %al,%edx
  80453c:	48 8b 45 f0          	mov    -0x10(%rbp),%rax
  804540:	0f b6 00             	movzbl (%rax),%eax
  804543:	0f b6 c0             	movzbl %al,%eax
  804546:	29 c2                	sub    %eax,%edx
  804548:	89 d0                	mov    %edx,%eax
  80454a:	c9                   	leaveq 
  80454b:	c3                   	retq   

000000000080454c <strchr>:
  80454c:	55                   	push   %rbp
  80454d:	48 89 e5             	mov    %rsp,%rbp
  804550:	48 83 ec 0c          	sub    $0xc,%rsp
  804554:	48 89 7d f8          	mov    %rdi,-0x8(%rbp)
  804558:	89 f0                	mov    %esi,%eax
  80455a:	88 45 f4             	mov    %al,-0xc(%rbp)
  80455d:	eb 17                	jmp    804576 <strchr+0x2a>
  80455f:	48 8b 45 f8          	mov    -0x8(%rbp),%rax
  804563:	0f b6 00             	movzbl (%rax),%eax
  804566:	3a 45 f4             	cmp    -0xc(%rbp),%al
  804569:	75 06                	jne    804571 <strchr+0x25>
  80456b:	48 8b 45 f8          	mov    -0x8(%rbp),%rax
  80456f:	eb 15                	jmp    804586 <strchr+0x3a>
  804571:	48 83 45 f8 01       	addq   $0x1,-0x8(%rbp)
  804576:	48 8b 45 f8          	mov    -0x8(%rbp),%rax
  80457a:	0f b6 00             	movzbl (%rax),%eax
  80457d:	84 c0                	test   %al,%al
  80457f:	75 de                	jne    80455f <strchr+0x13>
  804581:	b8 00 00 00 00       	mov    $0x0,%eax
  804586:	c9                   	leaveq 
  804587:	c3                   	retq   

0000000000804588 <strfind>:
  804588:	55                   	push   %rbp
  804589:	48 89 e5             	mov    %rsp,%rbp
  80458c:	48 83 ec 0c          	sub    $0xc,%rsp
  804590:	48 89 7d f8          	mov    %rdi,-0x8(%rbp)
  804594:	89 f0                	mov    %esi,%eax
  804596:	88 45 f4             	mov    %al,-0xc(%rbp)
  804599:	eb 13                	jmp    8045ae <strfind+0x26>
  80459b:	48 8b 45 f8          	mov    -0x8(%rbp),%rax
  80459f:	0f b6 00             	movzbl (%rax),%eax
  8045a2:	3a 45 f4             	cmp    -0xc(%rbp),%al
  8045a5:	75 02                	jne    8045a9 <strfind+0x21>
  8045a7:	eb 10                	jmp    8045b9 <strfind+0x31>
  8045a9:	48 83 45 f8 01       	addq   $0x1,-0x8(%rbp)
  8045ae:	48 8b 45 f8          	mov    -0x8(%rbp),%rax
  8045b2:	0f b6 00             	movzbl (%rax),%eax
  8045b5:	84 c0                	test   %al,%al
  8045b7:	75 e2                	jne    80459b <strfind+0x13>
  8045b9:	48 8b 45 f8          	mov    -0x8(%rbp),%rax
  8045bd:	c9                   	leaveq 
  8045be:	c3                   	retq   

00000000008045bf <memset>:
  8045bf:	55                   	push   %rbp
  8045c0:	48 89 e5             	mov    %rsp,%rbp
  8045c3:	48 83 ec 18          	sub    $0x18,%rsp
  8045c7:	48 89 7d f8          	mov    %rdi,-0x8(%rbp)
  8045cb:	89 75 f4             	mov    %esi,-0xc(%rbp)
  8045ce:	48 89 55 e8          	mov    %rdx,-0x18(%rbp)
  8045d2:	48 83 7d e8 00       	cmpq   $0x0,-0x18(%rbp)
  8045d7:	75 06                	jne    8045df <memset+0x20>
  8045d9:	48 8b 45 f8          	mov    -0x8(%rbp),%rax
  8045dd:	eb 69                	jmp    804648 <memset+0x89>
  8045df:	48 8b 45 f8          	mov    -0x8(%rbp),%rax
  8045e3:	83 e0 03             	and    $0x3,%eax
  8045e6:	48 85 c0             	test   %rax,%rax
  8045e9:	75 48                	jne    804633 <memset+0x74>
  8045eb:	48 8b 45 e8          	mov    -0x18(%rbp),%rax
  8045ef:	83 e0 03             	and    $0x3,%eax
  8045f2:	48 85 c0             	test   %rax,%rax
  8045f5:	75 3c                	jne    804633 <memset+0x74>
  8045f7:	81 65 f4 ff 00 00 00 	andl   $0xff,-0xc(%rbp)
  8045fe:	8b 45 f4             	mov    -0xc(%rbp),%eax
  804601:	c1 e0 18             	shl    $0x18,%eax
  804604:	89 c2                	mov    %eax,%edx
  804606:	8b 45 f4             	mov    -0xc(%rbp),%eax
  804609:	c1 e0 10             	shl    $0x10,%eax
  80460c:	09 c2                	or     %eax,%edx
  80460e:	8b 45 f4             	mov    -0xc(%rbp),%eax
  804611:	c1 e0 08             	shl    $0x8,%eax
  804614:	09 d0                	or     %edx,%eax
  804616:	09 45 f4             	or     %eax,-0xc(%rbp)
  804619:	48 8b 45 e8          	mov    -0x18(%rbp),%rax
  80461d:	48 c1 e8 02          	shr    $0x2,%rax
  804621:	48 89 c1             	mov    %rax,%rcx
  804624:	48 8b 55 f8          	mov    -0x8(%rbp),%rdx
  804628:	8b 45 f4             	mov    -0xc(%rbp),%eax
  80462b:	48 89 d7             	mov    %rdx,%rdi
  80462e:	fc                   	cld    
  80462f:	f3 ab                	rep stos %eax,%es:(%rdi)
  804631:	eb 11                	jmp    804644 <memset+0x85>
  804633:	48 8b 55 f8          	mov    -0x8(%rbp),%rdx
  804637:	8b 45 f4             	mov    -0xc(%rbp),%eax
  80463a:	48 8b 4d e8          	mov    -0x18(%rbp),%rcx
  80463e:	48 89 d7             	mov    %rdx,%rdi
  804641:	fc                   	cld    
  804642:	f3 aa                	rep stos %al,%es:(%rdi)
  804644:	48 8b 45 f8          	mov    -0x8(%rbp),%rax
  804648:	c9                   	leaveq 
  804649:	c3                   	retq   

000000000080464a <memmove>:
  80464a:	55                   	push   %rbp
  80464b:	48 89 e5             	mov    %rsp,%rbp
  80464e:	48 83 ec 28          	sub    $0x28,%rsp
  804652:	48 89 7d e8          	mov    %rdi,-0x18(%rbp)
  804656:	48 89 75 e0          	mov    %rsi,-0x20(%rbp)
  80465a:	48 89 55 d8          	mov    %rdx,-0x28(%rbp)
  80465e:	48 8b 45 e0          	mov    -0x20(%rbp),%rax
  804662:	48 89 45 f8          	mov    %rax,-0x8(%rbp)
  804666:	48 8b 45 e8          	mov    -0x18(%rbp),%rax
  80466a:	48 89 45 f0          	mov    %rax,-0x10(%rbp)
  80466e:	48 8b 45 f8          	mov    -0x8(%rbp),%rax
  804672:	48 3b 45 f0          	cmp    -0x10(%rbp),%rax
  804676:	0f 83 88 00 00 00    	jae    804704 <memmove+0xba>
  80467c:	48 8b 45 d8          	mov    -0x28(%rbp),%rax
  804680:	48 8b 55 f8          	mov    -0x8(%rbp),%rdx
  804684:	48 01 d0             	add    %rdx,%rax
  804687:	48 3b 45 f0          	cmp    -0x10(%rbp),%rax
  80468b:	76 77                	jbe    804704 <memmove+0xba>
  80468d:	48 8b 45 d8          	mov    -0x28(%rbp),%rax
  804691:	48 01 45 f8          	add    %rax,-0x8(%rbp)
  804695:	48 8b 45 d8          	mov    -0x28(%rbp),%rax
  804699:	48 01 45 f0          	add    %rax,-0x10(%rbp)
  80469d:	48 8b 45 f8          	mov    -0x8(%rbp),%rax
  8046a1:	83 e0 03             	and    $0x3,%eax
  8046a4:	48 85 c0             	test   %rax,%rax
  8046a7:	75 3b                	jne    8046e4 <memmove+0x9a>
  8046a9:	48 8b 45 f0          	mov    -0x10(%rbp),%rax
  8046ad:	83 e0 03             	and    $0x3,%eax
  8046b0:	48 85 c0             	test   %rax,%rax
  8046b3:	75 2f                	jne    8046e4 <memmove+0x9a>
  8046b5:	48 8b 45 d8          	mov    -0x28(%rbp),%rax
  8046b9:	83 e0 03             	and    $0x3,%eax
  8046bc:	48 85 c0             	test   %rax,%rax
  8046bf:	75 23                	jne    8046e4 <memmove+0x9a>
  8046c1:	48 8b 45 f0          	mov    -0x10(%rbp),%rax
  8046c5:	48 83 e8 04          	sub    $0x4,%rax
  8046c9:	48 8b 55 f8          	mov    -0x8(%rbp),%rdx
